(lp0
(dp1
S'genres'
p2
(lp3
VDrama
p4
aVRomance
p5
aVMusical & Performing Arts
p6
asS'synopsis'
p7
S'the filmmakers of the hit step up and step up 2 the streets movies reunite to bring you step up 3 urban street dancing goes global in an electrifying new story with mind blowing dance moves the house of pirates dance crew are pitched against their long time rivals the house of samurai at the upcoming world jam competition in an exhilarating and energetic dance battle against the worlds best hip hop dancers this highstakes showdown will change all their lives forever'
p8
sa(dp9
g2
(lp10
VDrama
p11
asg7
S'martin scorsese directs the story of new york stockbroker jordan belfort from the american dream to corporate greed belfort goes from penny stocks and righteousness to ipos and a life of corruption in the late 80s excess success and affluence in his early twenties as founder of the brokerage firm stratton oakmont warranted belfort the title the wolf of wall street  c paramount'
p12
sa(dp13
g2
(lp14
VDrama
p15
aVAction & Adventure
p16
aVMystery & Suspense
p17
asg7
S'dodging speeding cars crazed cabbies open doors and eight million cranky pedestrians is all in a days work for wilee joseph gordonlevitt the best of new yorks agile and aggressive bicycle messengers it takes a special breed to ride the fixie  super lightweight singlegear bikes with no brakes and riders who are equal part skilled cyclists and suicidal nutcases who risk becoming a smear on the pavement every time they head into traffic but a guy whos used to putting his life on the line is about to get more than even he is used to when a routine delivery turns into a life or death chase through the streets of manhattan when wilee picks up his last envelope of the day on a premium rush run he discovers this package is different this time someone is actually trying to kill him  c sony'
p18
sa(dp19
g2
(lp20
VAnimation
p21
asg7
S'conor pledges to improve the mach 6s stealth systems after an unsuccessful training exercise before conor is able to make the final modifications ziles goons attempt to capture the mach 6 speed and the others must work fast in order to escape and ensure he never obtains its secrets while annalise now in charge of the company tries to finish what her father started'
p22
sa(dp23
g2
(lp24
VDrama
p25
aVHorror
p26
asg7
S'a group of friends stumble across an abandoned military bunker where deadly genetically enhanced creatures are lurking in the shadows ready to unleash utter carnage'
p27
sa(dp28
g2
(lp29
VDrama
p30
aVTelevision
p31
asg7
S'revolves around a criminal prosecutor who penned the law on stalking in california and is based on the true story of a hothead cop and polished district attorney who team to bring a stalker obsessed with her former lover to justice'
p32
sa(dp33
g2
(lp34
VMystery & Suspense
p35
asg7
S'based upon the acclaimed comic book and directed by matthew vaughn kick ass xmen first class kingsman the secret service tells the story of a supersecret spy organization that recruits an unrefined but promising street kid into the agencys ultracompetitive training program just as a global threat emerges from a twisted tech genius c fox'
p36
sa(dp37
g2
(lp38
VDrama
p39
asg7
S'three soldiers become unlikely friends after falling into enemy hands in this emotional drama that takes a very different look at war one by one pvt aaron phillips lt steven hill and sgt bryan monroe are taken hostage strangers to one another each man has his own story and different levels of military experience while pvt phillips is on his first tour of duty lt hill has returned to active duty from the reserves and sgt monroe is on his fourth and final tour trapped in a small and dank prison cell the soldiers swap stories of their last memories of home but time is running out and all of their lives are hanging in the balance'
p40
sa(dp41
g2
(lp42
VDrama
p43
aVScience Fiction & Fantasy
p44
asg7
S'this scifi adventure tale takes place in a future dystopia where a bunch of desperate soldiers band together to pilfer a warlords treasure and then start a new life unfortunately the rulers executioners soon capture the thieves and threaten them with brutal deaths seeking asylum the men flee into a mysterious and dangerous place known as the shadowlands where they must fight off not only the kings assassins but the terrifying creatures that populate this realm  nathan southern rovi'
p45
sa(dp46
g2
(lp47
VDrama
p48
aVComedy
p49
asg7
S'the last godfather is a coproduction between south korea and the usa famous comedian and film director hyung rae shim returns with his latest hollywood film this time a comedy in the 1950s in new york mafia boss don carini harvey keitel suddenly brings his lovechild younggu shim from korea who seems mentally impaired to train him as his successor he keeps disappointing everyone by behaving strangely but finally manages to win the hearts of the gang however the mafias rival refuses to let him take overc roadside attractions'
p50
sa(dp51
g2
(lp52
VDocumentary
p53
aVMusical & Performing Arts
p54
aVSpecial Interest
p55
asg7
S'ncm fathom events anthem and zoe vision invite you to celebrate the ultimate rush experience when rush clockwork angels tour comes to select cinemas nationwide in an epic one night event on monday november 18 the 2013 rock  roll hall of fame inductees perform their classic hits alongside newly reworked arrangements featuring the clockwork angels string ensemble  the first time the rock trio has ever brought additional musicians on stage with them dont miss a night of legendary rock music exclusive behindthescenes access and neverbeforeseen band interviews'
p56
sa(dp57
g2
(lp58
VRomance
p59
aVArt House & International
p60
aVComedy
p61
asg7
S'after rajs application for canadian residency is rejected he plots the perfect plan to attain citizenship within a year he marries a stranger pia the plan seems to be working fine but the real complications begin on a stormy day when destiny brings linda in front of raj a woman who comes into his life and changes it forever'
p62
sa(dp63
g2
(lp64
VDrama
p65
aVRomance
p66
asg7
S'a coming of age story of six youngsters set in the beautiful nostalgic world of a workingmiddle class neighborhood the film tracks their journey through the different seasons festivals romances street cricket colony fights and family gatherings with the beginning of responsibilities and adulthood looming around the corner their dreams and aspirations bring them all together to make the whole experience magical'
p67
sa(dp68
g2
(lp69
VHorror
p70
asg7
S'psychotic killer chases women'
p71
sa(dp72
g2
(lp73
VArt House & International
p74
aVAction & Adventure
p75
asg7
S'boss suchart is the influential owner of a major elephant camp when he was murdered in his own home  the killer delivered three fatal blows on his body  all evidence points to kham tony jaa who was present at the crime scene and was seen with the victim the moment before he died kham is forced to run as the police launch a pursuit meanwhile the twin nieces of boss suchart jija yanin wismitanan and teerada kittisiriprasert are out for revenge but luck is on khams side when he runs into sergeant mark mum jokmok an interpol agent sent to thailand on a secret mission as kham is hunted by several parties hes also desperately searching for khon his elephant whose disappearance is involved with boss sucharts death in another twist kham is drawn into an underground fighting ring run by lc rza a crime lord whos obsessed with collecting topclass martial artists from around the world lcs fighters are branded only by numbers such as the lethal beautiful twenty ratha phongam and the diabolical no2 marrese crump these fighters are ordered to defeat and capture kham for a special mission that lc has in mind a sequel of the global smashhit the protector tom yam goong the protector 2 is an extreme fight movie an endlessly intense nerveracking film full of fists elbows kicks and daredevil stunt scenes and amazingly choreographed fighting moves that will pump hot blood through the body of all action fansc magnolia'
p76
sa(dp77
g2
(lp78
VDocumentary
p79
aVTelevision
p80
asg7
S'this compelling and eyeopening doc follows afghanistans first independent television network tolo tv and the group of family members and dedicated staff behind it launched in 2004 tolo tv has grown to be afghanistans largest and most successful television network employing over 800 afghans producing news current affairs drama comedy music and lifestyle programs but as the country faces the impending withdrawal of foreign troops and with security rapidly deteriorating the film reveals an uncertain future for the network and its employees many of whom are women featuring interviews with tolo tv founder saad mohseni and former viacom ceo tom freston c filmbuff'
p81
sa(dp82
g2
(lp83
VTelevision
p84
aVComedy
p85
asg7
S'perched high above it all in denver joe rogans brandnew onehour standup special rocky mountain high has a clear perspective tune in to find out the real meaning of infinity why joe will lie to you on stage and why kim kardashian is the most popular woman in the world filmed at the renowned denver comedy works in downtown denver rocky mountain high proves if youre not paranoid youre not paying attention'
p86
sa(dp87
g2
(lp88
VAction & Adventure
p89
asg7
S'in postwar hong kong legendary wing chun grandmaster ip man anthony wong is reluctantly called into action once more what begin as simple challenges from rival kung fu styles soon turn deadly drawing him into the dark and dangerous underworld of the triads now to defend life and honour he has no choice but to fight one last time c well go usa'
p90
sa(dp91
g2
(lp92
VScience Fiction & Fantasy
p93
aVHorror
p94
asg7
S'this scifi thriller finds the universe in a time of turmoil as a race of malevolent aliens known as the scythe have become the enemy of the cosmos transforming into any creature they can sample the dna of meanwhile six college friends out for a camping trip find themselves the scythes next target in the middle of an interstellar war that could mean life or death for the entire human race  cammila collar rovi'
p95
sa(dp96
g2
(lp97
VDrama
p98
aVRomance
p99
aVMusical & Performing Arts
p100
asg7
S'step up revolution is the next installment in the worldwide smash step up franchise which sets the dancing against the vibrant backdrop of miami emily kathryn mccormick arrives in miami with aspirations of becoming a professional dancer and soon falls in love with sean ryan guzman a young man who leads a dance crew in elaborate cuttingedge flash mobs called the mob when a wealthy business man threatens to develop the mobs historic neighborhood and displace thousands of people emily must band together with sean and the mob to turn their performance art into protest art and risk losing their dreams to fight for a greater cause  c summit'
p101
sa(dp102
g2
(lp103
VDrama
p104
aVArt House & International
p105
aVComedy
p106
aVSpecial Interest
p107
asg7
S'an irreverent uplifting comedy about friendship trust and human possibility the intouchables has broken box office records in its native france and across europe based on a true story of friendship between a handicap millionaire francois cluzet and his street smart excon caretaker omar sy the intouchables depicts an unlikely camaraderie rooted in honesty and humor between two individuals who on the surface would seem to have nothing in common  c weinstein'
p108
sa(dp109
g2
(lp110
VAction & Adventure
p111
aVComedy
p112
asg7
S'get ready for the wildest and most adventurefilled night at the museum ever as larry ben stiller spans the globe uniting favorite and new characters while embarking on an epic quest to save the magic before it is gone forever c fox'
p113
sa(dp114
g2
(lp115
VKids & Family
p116
asg7
S'prepare for highflying adventures with hiccup toothless and the rest of the dragon trainers meet new dragons learn the secrets of the legendary boneknapper and see what is in store for the holidays on the festive island of berk'
p117
sa(dp118
g2
(lp119
VDrama
p120
aVAction & Adventure
p121
aVArt House & International
p122
aVSports & Fitness
p123
asg7
S'international megastar donnie yen reprises his iconic role as the reallife kung fu grandmaster ip man in this martial arts spectacular after escaping the japanese occupation of his hometown of fo shan china ip man and his family have arrived in hong kong which is living under the iron fist of british colonial rule ip wants to support his family by opening up a martial arts academy to teach his unique wing chun style but a corrupt cabal of hong kong martial arts masters led by hung chunnam the legendary sammo hung refuses to allow ip to teach until he proves himself  and prove himself he does in an intense series of fights against the masters showcasing a dazzling variety of martial arts styles culminating in a highly anticipated brawl between ip and hung atop a rickety table but even after gaining the respect of the masters ips troubles are far from over hong kong under british rule is a world of corruption and when a westernstyle boxer named taylor twister milos comes to town to entertain the british upperclass and insults both chinese martial arts and the native citizens in a horrifically violent way ip must step up and fight for the honor of both his kung fu and the chinese people forced by honor to enter a brutal king of the ring boxing match against twister its east versus west in an amazing knockdown dragout fight to the finish the likes of which have never been seen onscreen before presented in the original undubbed and uncut international version thats been breaking boxoffice records across asia ip man 2 legend of the grandmaster is a throwback to the golden age of hong kong martial arts cinema that will delight kung fu fans and newcomers alike  c well go usa and variance'
p124
sa(dp125
g2
(lp126
VComedy
p127
asg7
S'marty farrell is a struggling writer who dreams of finishing his screenplay seven psychopaths billy rockwell is martys best friend an unemployed actor and part time dog thief who wants to help marty by any means necessary all he needs is a little focus and inspiration hans walken is billys partner in crime a religious man with a violent past charlie harrelson is the psychopathetic gangster whose beloved dog billy and hans have just stolen charlies unpredictable extremely violent and wouldnt think twice about killing anyone or anything associated with the theft marty is going to get all the focus and inspiration he needs just as long as he lives to tell the tale  c official site'
p128
sa(dp129
g2
(lp130
VScience Fiction & Fantasy
p131
aVHorror
p132
asg7
S'its the end of the century at a corner of the city in a building riddled with crime  everyone in the building has turned into zombies after jennys boyfriend is killed in a zombie attack she faces the challenge of surviving in the face of adversity in order to stay alive she struggles with andy to flee danger'
p133
sa(dp134
g2
(lp135
VAction & Adventure
p136
aVArt House & International
p137
aVMystery & Suspense
p138
aVScience Fiction & Fantasy
p139
asg7
S'when circus clown sunny gets transformed into a superpowered mutant he finds himself pitted against his fellow circus performers who were altered in the same freak accident and who are now using their powers to wreck havoc around the city  jason buchanan rovi'
p140
sa(dp141
g2
(lp142
VDocumentary
p143
aVSpecial Interest
p144
asg7
S'writerdirector shola lynch follows up her 2004 documentary chisholm 72 unbought and unbossed with this film centered on the struggle of educator and activist angela davis an outspoken ucla professor whose affiliation with the communist party and the black panthers landed her on the fbis ten most wanted list while challenging our perceptions of political freedom in america from her early years as a student in the us and abroad to her highly publicized arrest and trial following the brazen hostagetaking and murder of marin county judge harold haley in california lynchs film leaves no stone unturned as it explores every remarkable detail of davis life and allows her to tell her own stories through a series of intimate interviews  jason buchanan rovi'
p145
sa(dp146
g2
(lp147
VAction & Adventure
p148
aVAnimation
p149
asg7
S'in the spring male student makoto yuki transfers to gekkoukan high school however as he heads to his new dormitory listening to the music on his headphones he is stopped more precisely time has stopped and the people who were around him turn into coffins makoto learns that this period of time hidden between the minute of midnight is called the dark hour a time when monsters called shadows appear suddenly made the leader of his fellow classmates yukari and junpei by his upperclassmen mitsuru and akihiko makoto must learn empathy his connection to his comrades and the meaning of death with the power of his evoker aimed at his head makoto fights against the shadows threatening to attack his world from the mysterious tower of tartarus'
p150
sa(dp151
g2
(lp152
VTelevision
p153
aVAnimation
p154
aVKids & Family
p155
asg7
S'this whimsical feature length release from the kids series angelina ballerina follows the titular animated mouse as she prepares for ms mimis talent show at chambert academy but when angelina spends too much time helping her friends prepare she fears that she may not have focused enough on herself  cammila collar rovi'
p156
sa(dp157
g2
(lp158
VScience Fiction & Fantasy
p159
asg7
S'an exploration of physicist kip thornes theories of gravity fields wormholes and several hypotheses that albert einstein was never able to prove'
p160
sa(dp161
g2
(lp162
VAction & Adventure
p163
aVScience Fiction & Fantasy
p164
aVComedy
p165
asg7
S'the guardians of the galaxy leap back into action in this marvel studios sequel from writerdirector james gunn  jason buchanan rovi'
p166
sa(dp167
g2
(lp168
VDocumentary
p169
aVSports & Fitness
p170
aVSpecial Interest
p171
asg7
S'for the past 30 years everything we thought we knew about food and exercise is dead wrong fed up is the film the food industry doesnt want you to see from katie couric laurie david oscar winning producer of an inconvenient truth and director stephanie soechtig fed up will change the way you eat forever the film opens in theaters across the country on may 9th c official site'
p172
sa(dp173
g2
(lp174
VDrama
p175
aVMusical & Performing Arts
p176
aVScience Fiction & Fantasy
p177
aVSpecial Interest
p178
asg7
S'dark side of the rainbow also known as dark side of oz or the wizard of floyd refers to the pairing of the 1973 pink floyd music album the dark side of the moon with the visual portion of the 1939 film the wizard of oz this produces moments where the film and the album appear to correspond with each other the title of the music videolike experience comes from a combination of the album title and the films song over the rainbow band members and others involved in the making of the album state that any relationship between the two works of art is merely a coincidence because of this many other syncs have been made with albums by different artists and films'
p179
sa(dp180
g2
(lp181
VTelevision
p182
aVRomance
p183
asg7
S'a new york highsociety party planners life hinges on whether or not she gets a plane to los angeles on christmas eve in one version of her life she makes the flight and takes on a job that could make her career but in an alternative scenario she sacrifices the opportunity for a festive holiday with her boyfriend'
p184
sa(dp185
g2
(lp186
VDocumentary
p187
aVSpecial Interest
p188
asg7
S'city sits the povertystricken town of newburgh where in 2009 four men were lured by a shady pakistani man into a plot to bomb jewish centers in the bronx but once the men were on board their leader who doubled as an fbi undercover agent led them straight to the authorities their arrest was hailed as a national victory in the war on terror using neverbeforeseen footage from hidden cameras david heilbroner and kate davis investigate just what homegrown terrorism truly means in this shocking and galvanizing expose c hbo documentary'
p189
sa(dp190
g2
(lp191
VDocumentary
p192
aVTelevision
p193
aVSports & Fitness
p194
asg7
S'explore the career of the filmmaker responsible for inventing the modern gore film in this documentary featuring interviews with such ardent fans and followers as pink flamingoes director john waters and famed drivein movie critic joe bob briggs in the beginning hershell gordon lewis titillated moviegoers with nudie cuties  films which featured pretty young women in various states of undress his career took a decidedly gruesome turn however when he unleashed blood feast on unsuspecting grindhouse audiences in 1963 a film that reveled in viscera blood feast pushed the boundaries of gore in a manner that was positively shocking for the time and lewis was only getting started in the years that followed he continued to shock moviegoers with such unapologetically repulsive horror films as two thousand maniacs the gruesome twosome and the wizard of gore in this film movie fans get the unique opportunity to explore one of the most fascinating  and morbid  chapters in the history of cinema'
p195
sa(dp196
g2
(lp197
VAnimation
p198
aVRomance
p199
aVDrama
p200
aVKids & Family
p201
aVMusical & Performing Arts
p202
aVScience Fiction & Fantasy
p203
asg7
S'walt disney animation studios magical classic beauty and the beast returns to the big screen in disney digital 3dtm introducing a whole new generation to the disney classic with stunning new 3d imagery the film captures the fantastic journey of belle voice of paige ohara a bright and beautiful young woman whos taken prisoner by a hideous beast voice of robby benson in his castle despite her precarious situation belle befriends the castles enchanted staffa teapot a candelabra and a mantel clock among othersand ultimately learns to see beneath the beasts exterior to discover the heart and soul of a prince  c disney'
p204
sa(dp205
g2
(lp206
VMystery & Suspense
p207
aVHorror
p208
asg7
S'a new psychological horror film based on the story by hp lovecraft daniel uptons relationship with his friend edward derby is abruptly changed after edward becomes romantically involved with enigmatic hypnotist asenath waite as edwards behavior becomes more erratic and events unexplainable daniel investigates is it madnessor something far more terrifying it is true that i have just sent six bullets through the head of my best friend and yet i hope to show by this statement that i am not his murderer'
p209
sa(dp210
g2
(lp211
VWestern
p212
aVAction & Adventure
p213
aVArt House & International
p214
aVScience Fiction & Fantasy
p215
aVSpecial Interest
p216
asg7
S'an asian warrior assassin is forced to hide in a small town in the american badlands'
p217
sa(dp218
g2
(lp219
VDocumentary
p220
aVDrama
p221
aVArt House & International
p222
asg7
S'arsaw uprising is probably the worlds first war documentary film made entirely from original archive materials it tells the story of the warsaw uprising of 1944 through the eyes of us airman and two young reporters witnesses to insurgent fighting it uses authentic newsreels filmed in august of 1944 applying modern technology of restoring colorization and expertize of speech readers and ensuring the cooperation of the best artists the warsaw uprising has no comparable project in the world arsaw uprising is probably the worlds first war documentary film made entirely from original archive materials it tells the story of the warsaw uprising of 1944 through the eyes of us airman and two young reporters witnesses to insurgent fighting it uses authentic newsreels filmed in august of 1944 applying modern technology of restoring colorization and expertize of speech readers and ensuring the cooperation of the best artists the warsaw uprising has no comparable project in the world arsaw uprising is probably the worlds first war documentary film made entirely from original archive materials it tells the story of the warsaw uprising of 1944 through the eyes of us airman and two young reporters witnesses to insurgent fighting it uses authentic newsreels filmed in august of 1944 applying modern technology of restoring colorization and expertize of speech readers and ensuring the cooperation of the best artists the warsaw uprising has no comparable project in the world c official site'
p223
sa(dp224
g2
(lp225
VDrama
p226
asg7
S'the help stars emma stone as skeeter viola davis as aibileen and octavia spencer as minnythree very different extraordinary women in mississippi during the 1960s who build an unlikely friendship around a secret writing project that breaks societal rules and puts them all at risk from their improbable alliance a remarkable sisterhood emerges instilling all of them with the courage to transcend the lines that define them and the realization that sometimes those lines are made to be crossedeven if it means bringing everyone in town facetoface with the changing times  c dreamworks'
p227
sa(dp228
g2
(lp229
VMystery & Suspense
p230
aVDrama
p231
asg7
S'christopher mcquarrie writes directs and produces this dramatic thriller adapted from the criticallyacclaimed uk miniseries and centering on the plight of a woman who was previously convicted of murder for the killing of two police officers who were attempting to evict her family from their rural farmhouse on the heels of serving a 15year prison sentence the remorseful womans efforts to live peacefully are disrupted when she becomes the target of a violent revenge plot'
p232
sa(dp233
g2
(lp234
VDocumentary
p235
aVSpecial Interest
p236
asg7
S'fifty years after winning the pulitzer prize to kill a mockingbird remains a beloved bestseller and quite possibly the most influential american novel of the 20th century nearly one million copies are sold each year and the novel has been translated into more than forty languages worldwide the film version starring gregory peck as atticus finch won a trio of academy awards and the us postal services new stamp honoring peck depicts him wearing glasses as finch behind it all was a young southern girl named nelle harper lee who once said that she wanted to be south alabamas jane austen hey boo explores lees life and unravels some of the mysteries surrounding her including why she never published again containing neverbeforeseen photos and letters and an exclusive interview with lees sister alice finch lee the film also brings to light the context and history of the novels deep south setting and the social changes it inspired after publication oprah winfrey tom brokaw anna quindlen rosanne cash wally lamb richard russo scott turow andrew young and others reflect on the novels power influence and popularity and the many ways it has shaped their lives c first run features'
p237
sa(dp238
g2
(lp239
VAnimation
p240
aVScience Fiction & Fantasy
p241
aVComedy
p242
asg7
S'take a trip back to the toybox in this sequel from director john lassiter'
p243
sa(dp244
g2
(lp245
VSpecial Interest
p246
asg7
S'tony montana the worlds most ruthless and notorious gangster is coming to the big screen for only one night as ncm fathom and universal studios home entertainment bring you the scarface special event with al pacinos legendary portrayal of tony montana and unforgettable action scenes scarface has anchored its spot as one of the best and most influential gangster films ever made this one night event comes to movie theaters'
p247
sa(dp248
g2
(lp249
VDrama
p250
aVAction & Adventure
p251
aVMystery & Suspense
p252
aVComedy
p253
asg7
S'mistaken for a dangerous islamist saadi  a regular guy who happens to be an illegal arab immigrant  sets out on the most dangerous day of his life a satirical and thrilling comedy where a wrongly accused suspect gets mixed up in a worldwide terrorist plot'
p254
sa(dp255
g2
(lp256
VDrama
p257
aVComedy
p258
asg7
S'playing himself in this comedy drama from director guillaume nicloux author michel houellebecq is kidnapped by a group of amazteur criminals who bungle their efforts from start to finish'
p259
sa(dp260
g2
(lp261
VDrama
p262
asg7
S'an ambitious young computer hacker uncovers classified government documents in a pentagon database and discovers the true power of information in director robert connellys biopic exploring the teenage years of wikileaks founder julian assange the year is 1989 upon acquiring a commodore 64 18yearold computer wiz julian alex williams adopts the pseudonym mendax and forms a hacker group known as the international subversives with two of his best friends before long the group begins gaining access to all manners of sensitive websites but they operate on a strict code stealing is prohibited they are to remain completely invisible and any information they uncover must be shared with the group when julian accesses a pentagon database containing evidence that the government has deceived the public about a recent military offensive however he sees an opportunity to become the voice of truth in the age of deception meanwhile police detective ken roberts anthony lapaglia learns that capturing a talented computer hacker is no simple task  jason buchanan rovi'
p263
sa(dp264
g2
(lp265
VDocumentary
p266
aVSpecial Interest
p267
asg7
S'fourth film in the mafrouza series two events mark the early winter in mafrouza the birth of a boy and a young womans engagement'
p268
sa(dp269
g2
(lp270
VDrama
p271
aVRomance
p272
aVMusical & Performing Arts
p273
aVScience Fiction & Fantasy
p274
asg7
S'bill condon dreamgirls the twilight saga breaking dawn directs this live action take on the classic fairy tale penned by evan spiliotopoulos tinker bell and the lost treasure for disney and mandeville films'
p275
sa(dp276
g2
(lp277
VKids & Family
p278
asg7
S'get ready for hilarious funfilled adventure as 10yearold caden along with his best friend and golden retriever charlie protects his dads toy shop and greatest invention from the town bullies filled with warmth and humor this laughaminute comedy will reignite your imagination and show you that anything is possible if you just believe in yourself'
p279
sa(dp280
g2
(lp281
VComedy
p282
aVAnimation
p283
asg7
S'spongebob squarepants the worlds favorite sea dwelling invertebrate comes ashore to our world for his most superheroic adventure yetc paramount pictures'
p284
sa(dp285
g2
(lp286
VDrama
p287
aVHorror
p288
aVMystery & Suspense
p289
aVScience Fiction & Fantasy
p290
asg7
S'paleontologist kate lloyd mary elizabeth winstead has traveled to the desolate region for the expedition of her lifetime joining a norwegian scientific team that has stumbled across an extraterrestrial ship buried in the ice she discovers an organism that seems to have died in the crash eons ago but it is about to wake up when a simple experiment frees the alien from its frozen prison kate must join the crews pilot carter joel edgerton to keep it from killing them off one at a time and in this vast intense land a parasite that can mimic anything it touches will pit human against human as it tries to survive and flourish the thing serves as a prelude to john carpenters classic 1982 film of the same name  c universal'
p291
sa(dp292
g2
(lp293
VAction & Adventure
p294
aVScience Fiction & Fantasy
p295
asg7
S'marvel studios presents marvels the avengersthe super hero team up of a lifetime featuring iconic marvel super heroes iron man the incredible hulk thor captain america hawkeye and black widow when an unexpected enemy emerges that threatens global safety and security nick fury director of the international peacekeeping agency known as shield finds himself in need of a team to pull the world back from the brink of disaster spanning the globe a daring recruitment effort begins  c marvel'
p296
sa(dp297
g2
(lp298
VDocumentary
p299
aVTelevision
p300
aVSpecial Interest
p301
asg7
S'a salute to the 1975 classic film jaws recalls its origins production and influence on the film industry and popular culture'
p302
sa(dp303
g2
(lp304
VDrama
p305
aVAction & Adventure
p306
aVKids & Family
p307
asg7
S'when a 12yearold from detroit moves to china with his mother and incurs the wrath of the class bully at his new school he makes an unlikely ally in the form of his aging maintenance man a kung fu master who teaches him the secrets to selfdefense upon arriving at his new school dre parker jaden smith develops a powerful crush on pretty classmate mei ying the feeling is mutual although the cultural divide between dre and mei ying makes a friendship unlikely and romance impossible when cruel classmate and kung fu prodigy cheng learns of dres feelings for mei ying he harasses and humiliates the young outsider in front of the entire school with no one to turn to for help dre confides his fears in kindly maintenance man mr han jackie chan a kung fu master who knows that serenity and maturity  not punches and power  are the true keys to mastering the martial arts as dre prepares to face down his intimidating tormentor he begins to realize that the real fight is just beginning  jason buchanan rovi'
p308
sa(dp309
g2
(lp310
VDrama
p311
asg7
S'andrew neyman is an ambitious young jazz drummer singleminded in his pursuit to rise to the top of his elite east coast music conservatory plagued by the failed writing career of his father andrew hungers day and night to become one of the greats terence fletcher an instructor equally known for his teaching talents as for his terrifying methods leads the top jazz ensemble in the school fletcher discovers andrew and transfers the aspiring drummer into his band forever changing the young mans life andrews passion to achieve perfection quickly spirals into obsession as his ruthless teacher continues to push him to the brink of both his abilityand his sanity c sony classics'
p312
sa(dp313
g2
(lp314
VDocumentary
p315
asg7
S'between 1989 and 2003 the african nation of liberia was caught up in civil war and one of the most feared insurgent leaders during the war was joshua milton blahyi a tribal priest in his younger days blahyi became a warlord known as general butt naked for his habit of going into battle nude except for boots and a rifle or sword convinced his naked body would give him a cloak of invincibility while striking fear into his enemies leading an army largely consisting of kidnapped child soldiers blahyi claims to have be responsible for the death of 20000 men women and children and says he practiced devil worship and committed human and animal sacrifices before taking the battlefield with liberia still struggling with the scars of war blahyi has renounced his violent past and returned to the pulpit preaching the word of god and attempting to atone for his monstrous deeds but while some support blahyis new crusade others question the sincerity of his new guise as a man of peace filmmaker eric strauss studies the past and present of a man of tremendous contrasts in the documentary the redemption of general butt naked which was an official selection at the 2011 sundance film festival'
p316
sa(dp317
g2
(lp318
VComedy
p319
aVRomance
p320
asg7
S'a romantic comedy centered on a woman who conceives twins through artificial insemination only to meet the man of her dreams on the very same day'
p321
sa(dp322
g2
(lp323
VArt House & International
p324
aVDrama
p325
asg7
S'set in contemporary iran a separation is a compelling drama about the dissolution of a marriage simin wants to leave iran with her husband nader and daughter termeh simin sues for divorce when nader refuses to leave behind his alzheimersuffering father her request having failed simin returns to her parents home but termeh decides to stay with nader when nader hires a young woman to assist with his father in his wifes absence he hopes that his life will return to a normal state however when he discovers that the new maid has been lying to him he realizes that there is more on the line than just his marriage  c sony pictures classics'
p326
sa(dp327
g2
(lp328
VWestern
p329
aVDrama
p330
asg7
S'john ford had already directed one of the three previous film versions of peter kynes novel under the title marked men 1919 with his mentor harry carey a great cowboy star of the silent era who had recently died its not difficult to see how the storys sentimentality and christian symbolism might have appealed to the directors sensibility john wayne stars as bob hightower the leader of a trio of thieves who rob a bank in arizona and take off with the posse of sheriff buck sweet ward bond in close pursuit although they need to stop to water their horses and care for the wounds of abilene harry carey jr their accurate suspicion that the sheriff is laying an ambush for them at the mohave water tank leads the gang toward the more distant terrapin tanks however en route theyre waylaid by a terrible sandstorm which scatters their horses forced to go on foot they come upon a lone woman mildred natwick in a covered wagon who is about to give birth she dies in childbirth but not before extracting a promise from the three to take care of her child under a blistering sun they head for new jerusalem michael costello all movie guide'
p331
sa(dp332
g2
(lp333
VAction & Adventure
p334
aVComedy
p335
aVHorror
p336
aVScience Fiction & Fantasy
p337
asg7
S'romy and peewee are teenage orphans in the philippines with an unusual job they loot the cemeteries and steal precious belongings left for the dead the townspeople are fed up with their disrespect for the dead that a hefty reward awaits for their capture desperate to flee the town the sail to a desolated island only to encounter a greater foe  the undead victims of contagious alien virus that were unleashed from an ancient meteorite discovered by the obsessed american scientist named william seabrook trapped on an island and left with nothing to defend themselves the grave bandits must use their wits to battle the swarm of flesh eating ghouls'
p338
sa(dp339
g2
(lp340
VDrama
p341
aVMystery & Suspense
p342
aVComedy
p343
asg7
S'twotime academy award winner kevin spacey gives the performance of a lifetime in casino jack a riotous new film starring spacey as a man hell bent on acquiring all that the good life has to offer he plays in the same game as the highest of rollers and resorts to aweinspiring levels of conning scheming and fraudulent antics to get what he wants inspired by true events that are too overthetop for even the wildest imaginations to conjure casino jack lays bare the wild excesses and escapades of jack abramoff aided by his business partner michael scanlon barry pepper jack parlays his clout over some of the worlds most powerful men with the goal of creating a personal empire of wealth and influence when the two enlist a mobconnected buddy jon lovitz to help with one of their illegal schemes they soon find themselves in over their heads entrenched in a world of mafia assassins murder and a scandal that spins so out of control that it makes worldwide headlines directed by george hickenlooper factory girl the man from elysian fields casino jack returns spacey to the type of role that made him famous  a coolheaded articulate snake charmer whose wild ambitions knows no limits or boundaries the film also stars kelly preston and rachelle lefevre and is produced by gary howsam bill marks and george vitetzakis from an original screenplay by norman snider executive producers are richard rionda del castro lewin webb donald zuckerman dana brunetti patricia eberle warren nimchuk angelo paletta and domenic serafino the associate producer is rick chad  c art takes over'
p344
sa(dp345
g2
(lp346
VSpecial Interest
p347
asg7
S'ncm fathom turner classic movies and warner bros are coming together again to present turner classic movies presents casablanca 70th anniversary event in select movie theaters nationwide on wednesday march 21st at 700pm the event will begin with turner classic movies host robert osborne taking audiences behind the scenes of this epic love story in a special original production showcasing stories from those who were on set and those who simply admire this timeless classic audiences will then be able to see again on the silver screen this beautiful and timeless classic casablanca is a classic tale of unrequited love and is a project that defined the golden age of hollywood and allowed audiences to fall in love with cinema all over again turner classic movies presents casablanca 70th anniversary event is the only opportunity to see this stunning digital presentation grace the silver screen on wednesday march 21st at 700pm with additional matinee showings at select movie theater locations dont miss the most romantic film of all time more beautiful than its ever been'
p348
sa(dp349
g2
(lp350
VDocumentary
p351
aVArt House & International
p352
aVSpecial Interest
p353
asg7
S'a documentary about youth politicians changes radically when a terrorist commits utoyamassacre of 69 party kids while filming'
p354
sa(dp355
g2
(lp356
VAction & Adventure
p357
aVAnimation
p358
aVKids & Family
p359
asg7
S'tenyearold ben enters into the total alien immersion training program on the far side of the galaxy but before he can even leave earths orbit his ship is attacked and he is sent crashing back to earth stuck in his alien forms and battling a very hostile mecamorph warrior'
p360
sa(dp361
g2
(lp362
VDrama
p363
aVAction & Adventure
p364
asg7
S'set during the winter of 1981  statistically one of the most crimeridden of new york citys history  a most violent year is a drama following the lives of an immigrant and his family as they attempt to capitalize on the american dream while the rampant violence decay and corruption of the day drag them in and threaten to destroy all they have built c a24'
p365
sa(dp366
g2
(lp367
VDocumentary
p368
asg7
S'over 2 decades ago a group of teenagers made the poor choice to engage in a series of robberies not understanding that the serious consequences of their actions would alter the rest of their lives although no one was physically injured they received stiff prison sentences of up to 500 years from 20063013 the cooler bandits has followed the journey of four friends in four stages of incarceration struggling to confront their future after two decades of incarceration the film humanizes the staggering statistic of africanamerican men branded felon for life'
p369
sa(dp370
g2
(lp371
VScience Fiction & Fantasy
p372
asg7
S'visionary filmmaker ridley scott heads back to the world of blade runner with this sequel from alcon entertainment original screenwriter hampton fancher is developing the story  jeremy wheeler rovi'
p373
sa(dp374
g2
(lp375
VAction & Adventure
p376
aVScience Fiction & Fantasy
p377
asg7
S'from marvel the studio that brought you the global blockbuster franchises of iron man thor captain america and the avengers comes a new teamthe guardians of the galaxy an actionpacked epic space adventure marvels guardians of the galaxy expands the marvel cinematic universe into the cosmos where brash adventurer peter quill finds himself the object of an unrelenting bounty hunt after stealing a mysterious orb coveted by ronan a powerful villain with ambitions that threaten the entire universe to evade the everpersistent ronan quill is forced into an uneasy truce with a quartet of disparate misfitsrocket a guntoting raccoon groot a treelike humanoid the deadly and enigmatic gamora and the revengedriven drax the destroyer but when quill discovers the true power of the orb and the menace it poses to the cosmos he must do his best to rally his ragtag rivals for a last desperate standwith the galaxys fate in the balance c walt disney'
p378
sa(dp379
g2
(lp380
VHorror
p381
aVMystery & Suspense
p382
aVScience Fiction & Fantasy
p383
asg7
S'a vacationing family encounters an alien threat in this pulsepounding thriller based on the reallife brown mountain lights phenomenon in north carolina c ifc films'
p384
sa(dp385
g2
(lp386
VSpecial Interest
p387
asg7
S'sneak peek of the trilogy documentary the dark knight reborn'
p388
sa(dp389
g2
(lp390
VAction & Adventure
p391
aVScience Fiction & Fantasy
p392
aVComedy
p393
asg7
S'in men in black 3 agents j will smith and k tommy lee jones are backin time j has seen some inexplicable things in his 15 years with the men in black but nothing not even aliens perplexes him as much as his wry reticent partner but when ks life and the fate of the planet are put at stake agent j will have to travel back in time to put things right j discovers that there are secrets to the universe that k never told him  secrets that will reveal themselves as he teams up with the young agent k josh brolin to save his partner the agency and the future of humankind  c sony'
p394
sa(dp395
g2
(lp396
VAnimation
p397
aVKids & Family
p398
asg7
S'what starts out as a fun road trip for the toy story gang takes an unexpected turn for the worse when the trip detours to a roadside motel after one of the toys goes missing the others find themselves caught up in a mysterious sequence of events that must be solved before they all suffer the same fate in this toy story of terror  c abc'
p399
sa(dp400
g2
(lp401
VDrama
p402
asg7
S'a violent gangster film tracing destinies of 4 friends from childhood in old jewish quarter of new york to their maturity as notorious gangsters in prohibitionera criminal empire'
p403
sa(dp404
g2
(lp405
VDrama
p406
aVScience Fiction & Fantasy
p407
asg7
S'what if the ghastly images and abominations haunting our collective nightmares actually exist writerdirector adam green hatchet sets out to make a documentary exploring this tantalizing premise after being contacted by a mysterious man named william dekker ray wise dekker claims he can prove that monsters are real and insists these grotesque creatures are forgotten hideously deformed humanoids inhabiting a vast underground metropolis of the damned determined to expose the truth green embarks on a bonechilling odyssey and gets more than he bargains for when he dares to go digging up the marrowc image'
p408
sa(dp409
g2
(lp410
VMystery & Suspense
p411
aVDrama
p412
asg7
S'during the winter of 1952 british authorities entered the home of mathematician cryptanalyst and war hero alan turing benedict cumberbatch to investigate a reported burglary they instead ended up arresting turing himself on charges of gross indecency an accusation that would lead to his devastating conviction for the criminal offense of homosexuality  little did officials know they were actually incriminating the pioneer of modernday computing famously leading a motley group of scholars linguists chess champions and intelligence officers he was credited with cracking the socalled unbreakable codes of germanys world war ii enigma machine an intense and haunting portrayal of a brilliant complicated man the imitation game follows a genius who under nailbiting pressure helped to shorten the war and in turn save thousands of lives c weinstein'
p413
sa(dp414
g2
(lp415
VDrama
p416
aVAction & Adventure
p417
aVAnimation
p418
aVKids & Family
p419
aVMusical & Performing Arts
p420
asg7
S'one of the most popular disney animated musicals the lion king presents the story of a lion cubs journey to adulthood and acceptance of his royal destiny simba voiced first by jonathan taylor thomas then by matthew broderick begins life as an honored prince the son of the powerful king mufasa voiced by james earl jones the cubs happy childhood turns tragic when his evil uncle scar voiced by jeremy irons murders mufasa and drives simba away from the kingdom in exile the young lion befriends the comically bumbling pair of pumbaa the warthog voiced by ernie sabella and timon the meerkat voiced by nathan lane he and lives a carefree jungle life as he approaches adulthood however he is visited by the spirit of his father who instructs him to defeat the nefarious scar and reclaim his rightful throne borrowing elements from hamlet classical mythology and african folk tales the lion king tells its mythic comingofage tale with a combination of spectacular visuals and lively music featuring light rhythmic songs by elton john and tim rice and a score by hans zimmer embraced by children and adults alike the film also spawned hit songs can you feel the love tonight the circle of life and a hit broadway musical in late 2002 the lion king was rereleased in the largescreen imax format  judd blaise rovi'
p421
sa(dp422
g2
(lp423
VAction & Adventure
p424
aVKids & Family
p425
asg7
S'from the chronicles of the dc universe comes the sweeping saga of rebirth revenge and redemption now for the first time witness the legend of the dark knight returns presented as an over twohour unabridged and seamless animated feature the days of the batman and other noble super heroes are but faded memories violence and despair are now the harbingers of our time with the roving gangs and return of villains such as harvey twoface dent and the joker an aged and weathered bruce wayne dons the mask and cape once more with the brave young carrie kelley at his side as robin the dark knight faces off against insurmountable odds unforgettable battles and even the man of steel as he desperately fights to reclaim gotham city with a stellar voice cast headed by peter weller robocop ariel winter modern family and david selby dark shadows experience the complete epic journey of the dark knight as never before'
p426
sa(dp427
g2
(lp428
VDocumentary
p429
asg7
S'an eccentric collection of mid20thcentury dictating equipment reflects one mans zeal for the history and design of dead media wax cylinder wire and magnetic recording machines'
p430
sa(dp431
g2
(lp432
VDrama
p433
aVAction & Adventure
p434
asg7
S'a group of 12yearolds escape from a terrible day camp'
p435
sa(dp436
g2
(lp437
VAnimation
p438
asg7
S'super spy teams arent borntheyre hatched discover the secrets of the greatest and most hilarious covert birds in the global espionage biz skipper kowalski rico and private these elitists of the elite are joining forces with a chic undercover organization the north wind led by handsome and husky agent classified we could tell you his name but thenyou know voiced by benedict cumberbatch together they must stop the villainous dr octavius brine voiced by john malkovich from destroying the world as we know it c fox'
p439
sa(dp440
g2
(lp441
VComedy
p442
asg7
S'the allstar comedy cast from grown ups returns with some exciting new additions for more summertime laughs lenny adam sandler has relocated his family back to the small town where he and his friends grew up this time around the grown ups are the ones learning lessons from their kids on a day notoriously full of surprises the last day of school c sony'
p443
sa(dp444
g2
(lp445
VDrama
p446
aVAction & Adventure
p447
aVMystery & Suspense
p448
asg7
S'martin scorsese and leonardo dicaprio team up for a fourth time for this adaptation of shutter island a novel by dennis lehane mystic river the film opens in 1954 as world war ii veteran and current federal marshal teddy daniels leonardo dicaprio and his new partner chuck mark ruffalo ferry to shutter island a waterbound mental hospital housing the criminally insane they have been asked to investigate the disappearance of rachel solando emily mortimer a patient admitted to the asylum after she murdered her three children as teddy quizzes dr cawley ben kingsley the head of the institution he begins to suspect that the authorities in charge might not be giving him the whole truth and that a terrible fate may befall all the patients in the spooky ward c  a unit devoted to the most heinous of the hospitals inmates complicating matters further teddy has a secret of his own  the arsonist who murdered his wife is incarcerated on shutter island driven to confront his wifes killer and stranded on the island because of a hurricane teddy must unravel the secrets of the eerie place before succumbing to his own madness max von sydow emily mortimer michelle williams patricia clarkson and jackie earle haley round out the supporting cast  perry seibert rovi'
p449
sa(dp450
g2
(lp451
VAction & Adventure
p452
aVMystery & Suspense
p453
aVScience Fiction & Fantasy
p454
asg7
S'relive the films epic battle to save humanity like never before the shock and awe intensifies in this exclusive nonstop pulsepounding alternate way to experience the ultimate fight between man and alien'
p455
sa(dp456
g2
(lp457
VComedy
p458
asg7
S'after struggling for years as an artist in new york city jake is calling it quits and returning home to ohio on his last day in the city he persuades his three oldest friends to help him retrace their greatest adventure together a walk down the entire length of manhattan but their attempt to reclaim the glory of their early 20s doesnt go quite as planned over the course of the day buried conflicts emerge as jake becomes embroiled with his exgirlfriend and his friends dip into their own crises of manhood growing up and other lies is an anticomingofage comedyc eone'
p459
sa(dp460
g2
(lp461
VDrama
p462
aVAction & Adventure
p463
asg7
S'akira kurosawas seminal classic seven samurai gets the remake treatment with this modern retelling from the weinstein co scott mann directs from a script by john fusco  jeremy wheeler rovi'
p464
sa(dp465
g2
(lp466
VDocumentary
p467
asg7
S'for those who dont believe that aliens from outer space have invaded our planet this amazing documentary reveals the facts they dont want you to know join ufo researcher bill knell in this cult classic presentation covering suppressed and hidden information about the strangest and most fantastic ufo incidents in recent history you will be amazed and bewildered by countless ufo sightings by credible witnesses that defy explanation ufos are real and they are here whether we like it or not and their technology far exceeds ours if they decided to take over the human race there would be little our government and military factions could do about it this fascinating dvd includes ufo crash retrievals a zoo full of animals is strangely mutilated after ufos are seen astronaut edgar mitchell confirms that the us government is hiding information about ufos and aliens new and shocking ufo crash cases howard hughes views a crashed saucer and its occupants president franklin roosevelt and ufos shocking worldwide ufo encounters and provocative actions new cases of mysterious lights explosions and ufo landings in the usa and much more four hours of information interviews and more'
p468
sa(dp469
g2
(lp470
VWestern
p471
aVAction & Adventure
p472
aVScience Fiction & Fantasy
p473
asg7
S'1875 new mexico territory a stranger craig with no memory of his past stumbles into the hard desert town of absolution what he discovers is that the people of absolution dont welcome strangers and nobody makes a move on its streets unless ordered to do so by the ironfisted colonel dolarhyde ford its a town that lives in fear but absolution is about to experience fear it can scarcely comprehend as the desolate city is attacked by marauders from the sky now the stranger they rejected is their only hope for salvation as this gunslinger slowly starts to remember who he is and where hes been he realizes he holds a secret that could give the town a fighting chance against the alien force  c official site'
p474
sa(dp475
g2
(lp476
VAnimation
p477
aVKids & Family
p478
asg7
S'join everybodys favorite feuding house pets as they take a magical journey with dorothy toto the scarecrow the tin man and the cowardly lion in this funfilled take on l frank baums timeless fantasy classic'
p479
sa(dp480
g2
(lp481
VAction & Adventure
p482
aVAnimation
p483
asg7
S'it is ten years after an aging batman has retired and gotham city has sunk deeper into decadence and lawlessness now when his city needs him most the dark knight returns in a blaze of glory joined by carrie kelly a teenage female robin batman takes to the streets to end the threat of the mutant gangs that have overrun the city and after facing off against his two greatest enemies the joker and twoface for the final time batman finds himself in mortal combat with his former ally superman in a battle that only one of them will survive'
p484
sa(dp485
g2
(lp486
VDrama
p487
aVAction & Adventure
p488
asg7
S'a cop assembles a special task force to battle criminals and corrupt cops inside the infamous kowloon walled city'
p489
sa(dp490
g2
(lp491
VArt House & International
p492
aVDrama
p493
asg7
S'kevin lewis never had a chance growing up on a povertystricken london council estate beaten and starved by his parents bullied at school and abandoned by social services his life was never his own even after he was put into care he found himself out on the streets caught up in a criminal underworld that knew him as the kid yet kevin survived to make a better life for himself this international bestseller published in 2003 is his heartbreaking and inspiring story'
p494
sa(dp495
g2
(lp496
VHorror
p497
asg7
S'johnny depp stars as carl kolchak the intrepid reporter whose unconfirmed encounters with supernatural beings has made everyone including his editor a skeptic in this remake of the kolchak the night stalker tv series starring darren mcgavin cult director edgar wright handles direction duties  jeremy wheeler rovi'
p498
sa(dp499
g2
(lp500
VComedy
p501
asg7
S'meet the weiss family who are making their way in hollywood rife with money fame envy and relentless hauntings stafford weiss john cusack is a famed tv selfhelp therapist with an alist celebrity clientele meanwhile cristina weiss olivia williams has her work cut out managing the career of their disaffected childstar son benjie evan bird a fresh graduate of rehab at age 13 yet unbeknownst to them another member of the weiss family has arrived in town  mysteriously scarred and tormented agatha mia wasikowska just released from a psych ward and ready to start again she soon works her way into a friendship with a limo driver robert pattinson and becomes personal assistant to unraveling actress havana segrand julianne moore who is beset by the ghost of her legendary mother clarice sarah gadon but agatha is on a quest for redemption  and even in this realm of the artificial and the unearthly shes determined to find it no matter what it takes c focus'
p502
sa(dp503
g2
(lp504
VComedy
p505
asg7
S'in this action comedy based on true events directed by jared hess napoleon dynamite nacho libre david ghantt zach galifianakis discovers the true meaning of adventure far beyond his wildest dreams he is an uncomplicated man stuck in a monotonous life day in and day out he drives an armored vehicle transporting millions of other peoples money with no escape in sight the only glimmer of excitement is his flirtatious work crush kelly campbell kristen wiig who soon lures him into the scheme of a lifetime along with a group of halfbrained criminals led by steve chambers owen wilson and an absurdly faulted heist plan david manages the impossible and makes off with 17 million in cashonly problem is he foolishly hands the money over to this wild group of double crossers and has been set up to take the fall with the bandits blowing the millions on lavish and ridiculous luxuries they leave behind a glaring trail of evidence now on the lam and in over his head david must dodge the authorities evade a hilarious hit man mike mckinney jason sudeikis and try to turn the tables on the ones he trusted most c relativity'
p506
sa(dp507
g2
(lp508
VComedy
p509
aVKids & Family
p510
asg7
S'after six years of keeping our malls safe paul blart has earned a welldeserved vacation he heads to vegas with his teenage daughter before she heads off to college but safety never takes a holiday and when duty calls blart answers c sony'
p511
sa(dp512
g2
(lp513
VAction & Adventure
p514
asg7
S'an old firm leader returns to green street for revenge after receiving a call that his little brother was killed but is he able to cope with a new type of hooliganism and can he find his killer'
p515
sa(dp516
g2
(lp517
VDrama
p518
aVAction & Adventure
p519
aVScience Fiction & Fantasy
p520
asg7
S'gareth edwards takes the helm for this star wars film'
p521
sa(dp522
g2
(lp523
VDocumentary
p524
aVMusical & Performing Arts
p525
aVSpecial Interest
p526
asg7
S'a portrait of the legendary canadian rock band rush from their early days in toronto through each of their landmark albums to the present day'
p527
sa(dp528
g2
(lp529
VArt House & International
p530
aVDrama
p531
asg7
S'towards the end of colonial india sahid khan loots the british trains impersonating the legendary sultana daku now outcast shahid becomes a worker at ramadhir singhs colliery only to spur a revenge battle that passes on to generations at the turn of the decade shahids son the philandering sardar khan vows to get his fathers honor back becoming the most feared man of wasseypur staying true to its real life influences the film explores this revenge saga through the sociopolitical dynamic in erstwhile bihar north india in the coal and scrap trade mafia of wasseypur through the imprudence of a place obsessed with mainstream bollywood cinema c official site'
p532
sa(dp533
g2
(lp534
VDrama
p535
asg7
S'several narrative strands  some based in fact some entirely fictional  wrap around one another in this experimental drama from writer and director lodge kerrigan in paris production is under way on a film called return of the dogs which is in turn about the making of another film somebody to love which concerns the life of jefferson airplane singer grace slick kerrigan plays the director of both films and geraldine pailhas stars in somebody to love as slick meanwhile rebecca h follows rebecca also played by pailhas a struggling rock singer who carefully studies somebody to love in hopes of learning more about one of her favorite vocalists however rebecca is also going through a personal crisis shes going to have a baby but the father is not her long time boyfriend and shes looking for a way to keep her childs paternity a secret produced in part by steven soderbergh rebecca h return to the dogs was an official selection at the 2010 cannes film festival  mark deming rovi'
p536
sa(dp537
g2
(lp538
VDrama
p539
asg7
S'in his followup to the fourtime academy award rnominated blockbuster the help tate taylor directs 42s chadwick boseman as james brown in get on up based on the incredible life story of the godfather of soul the film will give a fearless look inside the music moves and moods of brown taking audiences on the journey from his impoverished childhood to his evolution into one of the most influential figures of the 20th century boseman is joined in the drama by viola davis octavia spencer nelsan ellis lennie james tika sumpter jill scott and dan aykroyd'
p540
sa(dp541
g2
(lp542
VDrama
p543
aVArt House & International
p544
aVComedy
p545
asg7
S'from the director of back to 1942 feng xiaogang comes personal tailor one of the most unique films youll see in this upcoming holiday season imagine a team that will sacrifice themselves for your dream at any cost  but only if that dream makes you a better person and only if that dream lasts a single day what would your dream be where would you go what would you do and after that single day what would happen to youc china lion'
p546
sa(dp547
g2
(lp548
VWestern
p549
aVDrama
p550
asg7
S'set in the south two years before the civil war django unchained stars jamie foxx as django a slave whose brutal history with his former owners lands him facetoface with germanborn bounty hunter dr king schultz christoph waltz schultz is on the trail of the murderous brittle brothers and only django can lead him to his bounty honing vital hunting skills django remains focused on one goal finding and rescuing broomhilda kerry washington the wife he lost to the slave trade long ago django and schultzs search ultimately leads them to calvin candie leonardo dicaprio the proprietor of candyland an infamous plantation exploring the compound under false pretenses django and schultz arouse the suspicion of stephen samuel l jackson candies trusted house slave  c weinstein'
p551
sa(dp552
g2
(lp553
VAction & Adventure
p554
aVHorror
p555
asg7
S'filmmaker george miller gears up for another postapocalyptic action adventure with fury road the fourth outing in the mad max film series charlize theron stars alongside tom hardy bronson with zoe kravitz adelaide clemens and rosie huntington whiteley heading up the supporting cast  jeremy wheeler rovi'
p556
sa(dp557
g2
(lp558
VDrama
p559
aVRomance
p560
aVComedy
p561
asg7
S'stupid is as stupid does says forrest gump played by tom hanks in an oscarwinning performance as he discusses his relative level of intelligence with a stranger while waiting for a bus despite his subnormal iq gump leads a truly charmed life with a ringside seat for many of the most memorable events of the second half of the 20th century entirely without trying forrest teaches elvis presley to dance becomes a football star meets john f kennedy serves with honor in vietnam meets lyndon johnson speaks at an antiwar rally at the washington monument hangs out with the yippies defeats the chinese national team in table tennis meets richard nixon discovers the breakin at the watergate opens a profitable shrimping business becomes an original investor in apple computers and decides to run back and forth across the country for several years meanwhile as the remarkable parade of his life goes by forrest never forgets jenny robin wright penn the girl he loved as a boy who makes her own journey through the turbulence of the 1960s and 1970s that is far more troubled than the path forrest happens upon featured alongside tom hanks are sally field as forrests mother gary sinise as his commanding officer in vietnam mykelti williamson as his illfated army buddy who is familiar with every recipe that involves shrimp and the special effects artists whose digital magic place forrest amidst a remarkable array of historical events and people  mark deming rovi'
p562
sa(dp563
g2
(lp564
VAction & Adventure
p565
aVHorror
p566
aVArt House & International
p567
aVMystery & Suspense
p568
asg7
S'an undercover cop investigating the disappearance of three small town high school girls makes a shocking discovery while posing as an unassuming transfer student three belmont high students have vanished without a trace and the pressure is on the police to capture the culprits responsible scouring the school hallways in search of clues detective maggie rawdon jessica sonneborn makes a few new friends and gets invited to a private rave in the country just as the group begins to suspect that theyve taken a wrong turn however the trap is sprung and maggie finds out firsthand what fate has befallen the missing girls deep in the country a group of depraved fight fans are forcing teenage girls to fight to the death and maggie is about to become the next unwilling contender meanwhile maggies loyal boyfriend michael mclafferty senses that something has gone terribly awry with the investigation and races to find her before the next bout begins  jason buchanan rovi'
p569
sa(dp570
g2
(lp571
VRomance
p572
aVMystery & Suspense
p573
aVScience Fiction & Fantasy
p574
asg7
S'when jeremiah is caught in the middle of an illfated plot to kidnap crystal his boss romans beautiful young girlfriend roman unleashes the psychopath bill to hunt jeremiah down but when crystal refuses jeremiahs offer to return her to roman jeremiah and crystal begin adangerous love affair on the run and with every hour theyre together a darker deeper secret burns within crystalsomething even more sinister than the killer who is after them c official site'
p575
sa(dp576
g2
(lp577
VComedy
p578
asg7
S'thirty years after graduating from high school five former basketball teammates gather at the lake house where they celebrated their biggest victory to mourn the passing of their late coach over the course of the fourth of july weekend the five friends realize that just because theyve all grown up and started families doesnt mean that theyve lost that old spark adulthood is what you make of it and no one at the lake house is eager to be the grownup of the gang adam sandler chris rock kevin james david spade and rob schneider star in a film written by sandler and fred wolf and directed by dennis dugan i now pronounce you chuck  larry you dont mess with the zohan maria bello salma hayek and maya rudolph costar  jason buchanan rovi'
p579
sa(dp580
g2
(lp581
VDrama
p582
aVRomance
p583
aVMusical & Performing Arts
p584
aVComedy
p585
asg7
S'in god help the girl writerdirector stuart murdoch creates a poignant comingofage story that doubles as a sublime indiepop musical from one of indie pops biggest songwriters the project began as a suite of songs written while murdoch was between records and tours as lead singer of belle  sebastian he nurtured it for nearly a decade into a fully formed film set in the bohemian fantasia of glasgows west end which is populated by mods rockers and emo kids who have no qualms about breaking into song and dance c amplify'
p586
sa(dp587
g2
(lp588
VAnimation
p589
aVKids & Family
p590
aVScience Fiction & Fantasy
p591
aVComedy
p592
asg7
S'toy story 3 welcomes woody buzz and the whole gang back to the big screen as andy prepares to depart for college and his loyal toys find themselves in daycare these untamed tots with their sticky little fingers do not play nice so its all for one and one for all as plans for the great escape get underway a few new facessome plastic some plushjoin the adventure including iconic swinging bachelor and barbies counterpart ken a thespian hedgehog named mr pricklepants and a pink strawberryscented teddy bear called lotsohuggin bear'
p593
sa(dp594
g2
(lp595
VAction & Adventure
p596
asg7
S'two documentary cameramen embedded in an army unit in the most hostile place on earth an outpost surrounded by the last remaining alien fighters heavies of an invading attack force the world may have forgotten about the outposts but the heavies are planning the second invasion of earth and the soldiers are the only ones who can stop it c ifc midnight'
p597
sa(dp598
g2
(lp599
VMusical & Performing Arts
p600
asg7
S'rush time machine 2011 live in cleveland is an evening with rush performing their classic hits and features the legendary moving pictures album live in its entirety released in 1981 moving pictures was their most successful album to date certified 4x platinum and features some of rushs most well known songs and perennial radio favorites including tom sawyer limelight and the grammy rnominated instrumental yyz'
p601
sa(dp602
g2
(lp603
VAnimation
p604
asg7
S'jay baruchel returns to head up the cast of dreamworks animations third film in the how to train your dragon film series'
p605
sa(dp606
g2
(lp607
VDrama
p608
asg7
S'a comely alien lands on earth to study human mating habits'
p609
sa(dp610
g2
(lp611
VSpecial Interest
p612
asg7
S'this classic presentation is sure to delight audiences nationwide as it did when it was originally released in 1962 an inordinately complex man who has been labeled everything from hero to charlatan to sadist thomas edward lawrence blazed his way to glory in the arabian desert then sought anonymity as a common soldier under an assumed name the story opens with the death of lawrence in a motorcycle accident in dorset at the age of 46 then flashbacks to recount his adventures as a young intelligence officer in cairo in 1916 he is given leave to investigate the progress of the arab revolt against the turks in world war i in the desert he organizes a guerrilla army andfor two yearsleads the arabs in harassing the turks with desert raids trainwrecking and camel attacks eventually he leads his army northward and helps a british general destroy the power of the ottoman empire dont miss this specatular epic on thursday october 4 2012 in select movie theatres nationwide visit fathomeventscom for more information and tickets today'
p613
sa(dp614
g2
(lp615
VDrama
p616
aVAction & Adventure
p617
aVAnimation
p618
aVComedy
p619
asg7
S'in this sword and sandal epic a slave saves an enslaved princess from roman invaders'
p620
sa(dp621
g2
(lp622
VDrama
p623
asg7
S'filmed over 12 years with the same cast richard linklaters boyhood is a groundbreaking story of growing up as seen through the eyes of a child named mason a breakthrough performance by ellar coltrane who literally grows up on screen before our eyes starring ethan hawke and patricia arquette as masons parents and newcomer lorelei linklater as his sister samantha boyhood charts the rocky terrain of childhood like no other film has before snapshots of adolescence from road trips and family dinners to birthdays and graduations and all the moments in between become transcendent set to a soundtrack spanning the years from coldplays yellow to arcade fires deep blue boyhood is both a nostalgic time capsule of the recent past and an ode to growing up and parenting its impossible to watch mason and his family without thinking about our own journey c sundance film fest'
p624
sa(dp625
g2
(lp626
VAction & Adventure
p627
asg7
S'two strangers set out on individual quests for revenge and when they cross paths they discover that revenge lies with the same man joining forces it will take more than an army to keep them from unleashing the ultimate punishment even if it means sacrificing their own lives'
p628
sa(dp629
g2
(lp630
VAction & Adventure
p631
aVScience Fiction & Fantasy
p632
asg7
S'after several villagers are murdered rumors spread about a vicious beast lurking in the woods but after the beast saves belle estella warren a wandering peasant girl from being eaten by a wolf she vows to help him stop the real villain a malevolent troll controlled by a powerhungry witch'
p633
sa(dp634
g2
(lp635
VSpecial Interest
p636
asg7
S'fathom events and paramount pictures are pleased to bring this cinematic masterpiece back to the big screen for a special one night event on april 7 beyond the world of interstellar gives audiences the opportunity to explore the global blockbuster like never before from behindthescenes footage about the making of the film to a special introduction by sir michael caine and an exclusive musical performance at the royal albert hall in london this is an experience you dont want to miss'
p637
sa(dp638
g2
(lp639
VDocumentary
p640
asg7
S'casablanca calling is the story of a quiet social revolution in morocco in a country where 60 of women have never been to school a new generation of women have started work as official muslim leaders or morchidat the morchidat work in some of the poorest communities in morocco to separate the true teachings of islam from prejudice and misunderstanding support girls education campaign against early marriage and encourage young people to build a better morocco rather than dreaming of life in the west casablanca calling is an intimate portrait of three morchidat and the story of a society in transition and a mission to educate a nation'
p641
sa(dp642
g2
(lp643
VDrama
p644
aVAction & Adventure
p645
asg7
S'twotime academy award r winner ron howard a beautiful mind frostnixon teams once again with twotime academy award rnominated writer peter morgan frostnixon the queen on rush a spectacular bigscreen recreation of the merciless and legendary 1970s formula 1 rivalry between gifted english playboy james hunt chris hemsworth of the avengers thor and his disciplined austrian opponent niki lauda daniel bruhl of inglourious basterds the bourne ultimatum c official site'
p646
sa(dp647
g2
(lp648
VSpecial Interest
p649
asg7
S'fathom events turner classic movies and warner bros home entertainment are coming together again to present gone with the wind the 75th anniversary celebration in select movie theatres nationwide on sunday september 28 and wednesday october 1 celebrate 75 years of this quintessential hollywood classic by experiencing the story behind the story and understanding how this 10time academy award r winning masterpiece came to be and its historical significance fully remastered and with a specially produced introduction by tcm host robert osborne this event is one you will not want to miss'
p650
sa(dp651
g2
(lp652
VMusical & Performing Arts
p653
aVSpecial Interest
p654
asg7
S'the magic of beauty and the beast returns to movie theaters for a twoday cinema event on sept 29 at 630 pm local time and oct 2 at 12 noon local time prior to the feature presentation jordin sparks will take audiences through an exclusive behindthescenes look at the newly restored highdefinition animated classic and the making of her allnew beauty and the beast music video audiences will also be invited to sing along to everyones favorite songs only at the cinema event can you see belle in all of her bigscreen glory plus commentary from producer don hahn interviews with the cast and an inside look at how the animation was created this true hd presentation is made possible by ncm fathom and disney home entertainment'
p655
sa(dp656
g2
(lp657
VDocumentary
p658
aVSpecial Interest
p659
asg7
S'veteran character actor and tony award winner mary louise wilson age 79 teaches her first acting class to skeptical members of the youtube generation smashing their red carpet illusions and challenging them to bring emotional honesty into their acting features interviews with frances mcdormand melissa leo tyne daly estelle parsons valerie harper and playwright doug wright discussing what it means to be a character actor whether acting can be taught what constitutes talent and whether the profession is harder for women'
p660
sa(dp661
g2
(lp662
VAnimation
p663
aVKids & Family
p664
aVComedy
p665
asg7
S'the story of universal pictures and illumination entertainments minions begins at the dawn of time starting as singlecelled yellow organisms minions evolve through the ages perpetually serving the most despicable of masters continuously unsuccessful at keeping these mastersfrom t rex to napoleonthe minions find themselves without someone to serve and fall into a deep depression but one minion named kevin has a plan and healongside teenage rebel stuart and lovable little bobventures out into the world to find a new evil boss for his brethren to follow the trio embarks upon a thrilling journey that ultimately leads them to their next potential master scarlet overkill academy award r winner sandra bullock the worlds firstever female supervillain they travel from frigid antarctica to 1960s new york city ending in mod london where they must face their biggest challenge to date saving all of minionkindfrom annihilation c universal'
p666
sa(dp667
g2
(lp668
VAction & Adventure
p669
aVComedy
p670
asg7
S'when a gang of terrorists invade a campus building its up to english professor joe mccann to save the day'
p671
sa(dp672
g2
(lp673
VDrama
p674
aVComedy
p675
asg7
S'the grand budapest hotel recounts the adventures of gustave h a legendary concierge at a famous european hotel between the wars and zero moustafa the lobby boy who becomes his most trusted friend the story involves the theft and recovery of a priceless renaissance painting and the battle for an enormous family fortune  all against the backdrop ofa suddenly and dramatically changing continent c fox searchlight'
p676
sa(dp677
g2
(lp678
VSpecial Interest
p679
asg7
S'back by popular demand ncm fathom turner classic movies and warner bros bring casablanca back to select movie theaters nationwide for a final one night showing on thursday april 26th at 700 pm local time in a 70th anniversary encore event casablanca is a classic tale of unrequited love and is a project that defined the golden age of hollywood and allowed audiences to fall in love with cinema all over again turner classic movies presents casablanca 70th anniversary encore event is the final opportunity to see this stunning digital presentation grace the silver screen on thursday april 26th at 700pm local time'
p680
sa(dp681
g2
(lp682
VMusical & Performing Arts
p683
aVComedy
p684
aVSpecial Interest
p685
asg7
S'ncm fathom turner classic movies and warner bros come together again to present turner classic movies presents singin in the rain 60th anniversary event in select movie theaters nationwide on thursday july 12 at 700 pm local time the event begins with a turner classic movies original production featuring tcm host robert osborne in an exclusive specially produced interview with star debbie reynolds in this interview audiences are taken behind the scenes of one of the greatest musicals of all time as ms reynolds shares memories of working with the late great gene kelly and donald oconnor dont miss this timeless classic on the big screen for only one night on july 12th and celebrate the release of the bluray on july 17th'
p686
sa(dp687
g2
(lp688
VHorror
p689
aVComedy
p690
asg7
S'a wild beach party becomes a nightmare bloodbath when a homicidal maniac shows up with time to kill in this splatter comedy with boobs galore its spring break and sexy coed rebecca has just returned home to have some fun in the sun with her old friends from the cheerleading squad as the girls settle in to their posh manatee creek beach house a video crew specializing in candid footage of naked coeds comes under attack from a psycho wielding a warhammer in nearby daytona beach meanwhile rebecca and her friends throw the ultimate summer bash but as the beats start bumping and the booze begins to flow the same maniac who just carved up half of daytona beach shows up with a serious axe to grind jerry lawler ron jeremy katie peterson linnea quigley sal the stockbroker and beetlejuice star'
p691
sa(dp692
g2
(lp693
VAnimation
p694
asg7
S'strange magic a new animated film from lucasfilm ltd is a madcap fairy tale musical inspired by a midsummer nights dream popular songs from the past six decades help tell the tale of a colorful cast of goblins elves fairies and imps and their hilarious misadventures sparked by the battle over a powerful potion lucasfilm animation singapore and industrial light  magic bring to life the fanciful forest turned upside down with worldclass animation and visual effects c disney'
p695
sa(dp696
g2
(lp697
VSpecial Interest
p698
asg7
S'ncm fathom events turner classic movies and universal pictures presents the third event in the tcm event series by celebrating the 50th anniversary of to kill a mockingbird starring academy award r winning actor gregory peck and the 100th anniversary of universal in movie theaters nationwide on thursday november 15th at 700 pm local time the event begins with a turner classic movies original production featuring tcm host robert osborne providing historical commentary devoted to exploring the racially divided towns in the 1930s and all of the tensions that existed amongst members of society during this era'
p699
sa(dp700
g2
(lp701
VAction & Adventure
p702
aVScience Fiction & Fantasy
p703
asg7
S'a toughtalking junkyard owner offers 100000 to anyone who can kill the murderous extraterrestrial that landed on her property leading to an all out bloodbath as every triggerhappy alien hunter in the state comes gunning for the big cash reward  jason buchanan rovi'
p704
sa(dp705
g2
(lp706
VMystery & Suspense
p707
aVDrama
p708
asg7
S'gone girl  directed by david fincher and based upon the global bestseller by gillian flynn  unearths the secrets at the heart of a modern marriage on the occasion of his fifth wedding anniversary nick dunne ben affleck reports that his beautiful wife amy rosamund pike has gone missing under pressure from the police and a growing media frenzy nicks portrait of a blissful union begins to crumble soon his lies deceits and strange behavior have everyone asking the same dark question did nick dunne kill his wife c fox'
p709
sa(dp710
g2
(lp711
VDrama
p712
aVAnimation
p713
aVKids & Family
p714
aVArt House & International
p715
asg7
S'in the suburbs of tokyo some time ago there lived a clumsy boy about 10 years old there appeared in front of him named sewashi nobitas descendant of four generations later from the 22nd century and doraemon a 22nd century cattype caretaker robot who helps people with its secret gadgets sewashi claims that his family is suffering from the debts nobita made even to his generation so in order to change this disastrous future he brought along doraemon as nobitas caretaker to bring happiness to his future although doraemon is not happy about this and so sewashi installed an accomplishment program into doraemon forcing him to take care of nobita unless he makes nobita happy doraemon can no longer go back to the 22nd century this is how the life of doraemon and nobita begins will doraemon succeed this mission and return to the 22nd century'
p716
sa(dp717
g2
(lp718
VDrama
p719
aVKids & Family
p720
asg7
S'harrison burke loses his job as trader at a prestigious wall street investment bank so he moves back in with his parents  he eventually settles in takes a job at his fathers icecream truck business and rediscovers home'
p721
sa(dp722
g2
(lp723
VAction & Adventure
p724
aVScience Fiction & Fantasy
p725
asg7
S'the star wars saga continues with this seventh entry  the first under the walt disney co umbrella the film will act as the start of a new trilogy set after the events of return of the jedi jj abrams directs from a script by michael arndt  jeremy wheeler rovi'
p726
sa(dp727
g2
(lp728
VDrama
p729
asg7
S'julian assange is one of the most significant figures of the twenty first century but before he was famous before wikileaks before the internet even existed he was a teenage computer hacker in melbourne this is his story'
p730
sa(dp731
g2
(lp732
VDrama
p733
aVAction & Adventure
p734
aVScience Fiction & Fantasy
p735
asg7
S'the worldwide phenomenon of the hunger games continues to set the world on fire with the hunger games mockingjay  part 1 which finds katniss everdeen jennifer lawrence in district 13 after she literally shatters the games forever under the leadership of president coin julianne moore and the advice of her trusted friends katniss spreads her wings as she fights to save peeta josh hutcherson and a nation moved by her courage the hunger games mockingjay  part 1 is directed by francis lawrence from a screenplay by danny strong and peter craig and produced by nina jacobsons color force in tandem with producer jon kilik the novel on which the film is based is the third in a trilogy written by suzanne collins that has over 65 million copies in print in the us alone c lionsgate'
p736
sa(dp737
g2
(lp738
VDrama
p739
asg7
S'19yearold eric jack oconnell star of the upcoming unbroken arrogant and ultraviolent is prematurely transferred to the same adult prison facility as his estranged father ben mendelsohn the dark knight rises as his explosive temper quickly finds him enemies in both prison authorities and fellow inmates  and his already volatile relationship with his father is pushed past breaking point  eric is approached by a volunteer psychotherapist rupert friend homeland who runs an anger management group for prisoners torn between gang politics prison corruption and a glimmer of something better eric finds himself in a fight for his own life unsure if his own father is there to protect him or join in punishing him written by prison system therapist jonathan asser starred up is a merciless uncompromising portrayal of a dehumanizing life behind bars and the most accomplished film of david mackenzies career as father and son mendelsohn and oconnell give extraordinary performances charting a path that resembles greek tragedy c tribeca films'
p740
sa(dp741
g2
(lp742
VDocumentary
p743
asg7
S'this mouthwateringly entertaining film travels the globe to unravel a captivating culinary mystery general tsos chicken is a staple of chineseamerican cooking and a ubiquitous presence on restaurant menus across the country but just who was general tso and how did his chicken become emblematic of an entire national cuisine director ian cheney king corn journeys from shanghai to new york to the american midwest and beyond to uncover the origins of this iconic dish turning up surprising revelations and a host of humorous characters along the way told with the verve of a good detective storythe search for general tso is as much about food as it is a tale of the american immigrant experience c ifc films'
p744
sa(dp745
g2
(lp746
VHorror
p747
asg7
S'seven friends from sacramento california all decide to go on a documented trip to las vegas all seems fun until they hit a detourroad block a couple hours of lost driving later both of the back tires on the truck are blown out after some moments of confusion and arguing the gang comes up with the plan that all the girls will stay inside the truck while all the guys walk down the road to find help a couple miles down the road the guys find a little gas station dinermotel run by the most friendly polite and helpful people it appears that their problems are solved but boy are they wrong when convinced by the helpers to stay overnight the friends all wake up in their rooms to a new kind of gruesome and bloody terror c official site'
p748
sa(dp749
g2
(lp750
VArt House & International
p751
aVDrama
p752
asg7
S'in the city of cochin a series of incidents connects the lives of a tamil laborer couple an actress a builder a criminal and the wife of a businessman'
p753
sa(dp754
g2
(lp755
VAction & Adventure
p756
aVScience Fiction & Fantasy
p757
asg7
S'with our time on earth coming to an end a team of explorers undertakes the most important mission in human history traveling beyond this galaxy to discover whether mankind has a future among the stars c paramount'
p758
sa(dp759
g2
(lp760
VArt House & International
p761
aVDrama
p762
asg7
S'winner of the grand jury prize at this years cannes film festival and a golden globe nominee for best foreign language film the deeply moving new film by the dardenne brothers delves into the emotional life of troubled 11yearold cyril thomas doret when his father jeremie renier abandons him cyril obsessively searches for his bicycle  placing his last bit of hope in this symbol of their relationship almost by accident he becomes the ward of a kind hairdresser cecile de france who seems surprised to find herself so determined to help him with his wild unpredictable behavior and his disastrous search for father figures cyril risks losing her  though she refuses to give up without a fight  c ifc'
p763
sa(dp764
g2
(lp765
VMystery & Suspense
p766
aVSpecial Interest
p767
asg7
S'spy through the rear window from the best seat in the house as tcm presents rear window arrives in select cinemas as a special twoday event on march 22 and 25 presented by fathom events turner classic movies and universal pictures home entertainment this classic 1954 alfred hitchcock film stars hollywood legends james stewart and grace kelly and is digitally remastered for premium picture and sound quality in addition to the film movie buffs will also be treated to a specially produced introduction by tcm host ben mankiewicz'
p768
sa(dp769
g2
(lp770
VAnimation
p771
aVKids & Family
p772
asg7
S'the king of the jungle lets his power go to his head in this animated adventure that will entertain while teaching youngsters important lessons about sharing and understanding everyone knows that leo the lion is the top cat but when the feline bully begins pushing his jungledwelling friends around he fails to notice that a group of sinister hunters are kidnapping animals from the jungle and selling them to the zoo its not until the hunters make off with a beautiful lioness and her son tooey comes to leo for help that the selfabsorbed lion realizes that something is amiss and though leo vows to return tooeys mother to her rightful home his plan hits a snag when the resentful animals leo had previously taken for granted refuse to pitch in and help in order to ensure that tooey and his mother are reunited leo must mend his selfish ways and only then will the other animals of the jungle agree to take part in the ingenious plan that will bring tooeys mother back home  jason buchanan rovi'
p773
sa(dp774
g2
(lp775
VSports & Fitness
p776
aVDocumentary
p777
aVMusical & Performing Arts
p778
asg7
S'global surfing adventures take director taylor steele sipping jetstreams to iceland peru india and africa in a whirlwind tour of coastlines and majestic waves featured surfers include dane reynolds rob machado dave rastovich and jordy smith'
p779
sa(dp780
g2
(lp781
VAction & Adventure
p782
aVComedy
p783
asg7
S'all of the gangsters except for guido have been brutally shot down in a hail of gunfire and when the evil ones attempt to prevent their spirits from crossing over into the afterlife the specters elude their diabolical pursuers by seeking shelter in a pair of pink panties later faith receives a package in the mail containing the haunted panties and slips them on to give her boyfriend judd a private show just then the evil ones overpower judd and abduct faith now in order to get his girlfriend back judd will have to faceoff against the evil ones but he wont be alone in the fight because guido is still kicking and hes ready for a little retribution'
p784
sa(dp785
g2
(lp786
VDrama
p787
aVAction & Adventure
p788
asg7
S'ken watanabe stars in this samurai spin on clint eastwoods unforgiven chronicling an aging swordsman who is lured back into action to perform one final job lee sangil directs with koichi sato and akira emoto costarring  jeremy wheeler rovi'
p789
sa(dp790
g2
(lp791
VArt House & International
p792
aVMystery & Suspense
p793
asg7
S'a middleaged lawyer michael is stunned to find an intruder jack in his apartment as michael tries to figure out who this intruder is and why he is there jack reveals breadcrumbs michael left behind exposing michaels dark secret'
p794
sa(dp795
g2
(lp796
VAction & Adventure
p797
aVScience Fiction & Fantasy
p798
asg7
S'rian johnson brick looper writes and directs this installment of the star wars saga for disney and lucasfilm  jason buchanan rovi'
p799
sa(dp800
g2
(lp801
VSpecial Interest
p802
asg7
S'yipeekiyay die hard movie fans  the celebrated action movie series is returning to the big screen for one day only on wednesday february 13th attendees can catch the first four movies in the franchise  die hard die hard 2 die hard with a vengeance and live free or die hard  plus a special advance showing of the newest chapter a good day to die hard  all for one low price'
p803
sa(dp804
g2
(lp805
VDocumentary
p806
asg7
S'this documentary follows viktor bout a russian entrepeneur a war profiteer an aviation magnate an arms smuggler and strangest of all an amateur filmmaker until three days prior to his 2008 arrest on charges of conspiring to kill americans bout kept the camera running documenting a life spent in the grey areas of international law dubbed the merchant of death and portrayed by nicolas cage in hollywoods lord of war viktor bout can justifiably be called the worlds most famous arms dealer with unprecedented access to bouts home movies and dea surveillance material gathered during the sting operation to bring him down this film is a portrait of a life much mythologised but little understood'
p807
sa(dp808
g2
(lp809
VAnimation
p810
aVKids & Family
p811
aVScience Fiction & Fantasy
p812
asg7
S'john boorman adapts l frank baums classic wizard of oz novel with this computeranimated picture the first for the veteran director the 25milliondollar production will focus more on the book and less on being a straightup remake of the beloved 1939 musical'
p813
sa(dp814
g2
(lp815
VDrama
p816
asg7
S'this film explores the last quarter century of the great if eccentric british painter jmw turner 17751851 profoundly affected by the death of his father loved by a housekeeper he takes for granted and occasionally exploits sexually he forms a close relationship with a seaside landlady with whom he eventually lives incognito in chelsea where he dies throughout this he travels paints stays with the country aristocracy visits brothels is a popular if anarchic member of the royal academy of arts has himself strapped to the mast of a ship so that he can paint a snowstorm and is both celebrated and reviled by the public and by royalty'
p817
sa(dp818
g2
(lp819
VDrama
p820
asg7
S'wei teshengs epic film warriors of the rainbow seediq bale reclaims an extraordinary episode from 20thcentury history which is littleknown even in taiwan between 1895 and 1945 the island was a japanese colony inhabited not only by the majority han chinese immigrants but also by the remnants of the aboriginal tribes who first settled the mountainous land in 1930 mouna rudo the leader of the seediq tribe settled on and around mount chilai forged a coalition with other seediq tribal leaders and plotted a rebellion against their japanese colonial masters the initial uprising took the japanese by surprise and was almost entirely successful but the japanese soon sent in their army to crush the rebellion using aircraft and poison gas  c official site'
p821
sa(dp822
g2
(lp823
VScience Fiction & Fantasy
p824
asg7
S'the fight between mankind and his most powerful creation leads to a revelation with the power to alter the course of human history 300 years ago mankind created a new breed of being though genetic engineering but we abused our creation and in time it gained the will to fight back after centuries of struggle the descendents of that genetically engineered race now known as the ghen have gained the upper hand over their human adversaries as mankind is forced into slavery on the surface of the earth the ghen live comfortably in sprawling underground cities and though a small pocket of human resistance fighters refuse to admit defeat ambitious ghen crecilius pryme politician pushes for the complete annihilation of the human race when pryme reveals a secret thats been buried for centuries its powerful implications shake both races to their very core'
p825
sa(dp826
g2
(lp827
VDrama
p828
aVRomance
p829
aVMusical & Performing Arts
p830
asg7
S'in the next exciting chapter of the international phenomenon step up allstars from previous installments come together in glittering las vegas battling for a victory that could define their dreams and their careers c lionsgate'
p831
sa(dp832
g2
(lp833
VAction & Adventure
p834
aVScience Fiction & Fantasy
p835
asg7
S'the romans occupy britannia and hadrians wall divides the land built to keep back the warrior tribes of caledonia and something far more dangerous savage wolflike creatures which roam the lowlands'
p836
sa(dp837
g2
(lp838
VMystery & Suspense
p839
aVDrama
p840
asg7
S'prisoners from oscar rnominated director denis villeneuve stars oscar r nominees hugh jackman and jake gyllenhaal in a story that poses the question how far would you go to protect your child keller dover jackman is facing every parents worst nightmare his sixyearold daughter anna is missing together with her young friend joy and as minutes turn to hours panic sets in the only lead is a dilapidated rv that had earlier been parked on their street heading the investigation detective loki gyllenhaal arrests its driver alex jones paul dano but a lack of evidence forces the only suspects release knowing his childs life is at stake the frantic dover decides he has no choice but to take matters into his own hands but just how far will this desperate father go to protect his family c wb'
p841
sa(dp842
g2
(lp843
VDocumentary
p844
aVDrama
p845
aVSpecial Interest
p846
asg7
S'rocky mountain express propels audiences on a steam train journey through the breathtaking vistas of the canadian rockies and relates the epic adventure of building the nations first transcontinental railway  c official site'
p847
sa(dp848
g2
(lp849
VKids & Family
p850
asg7
S'its time for everyone to lend a helping hand in these four delightful stories first strawberry takes care of a berry special baby berrykin then teamwork is key when lemon and raspberry design a playground next orange and lemon become fashion elves to help raspberry and orange adopts a very homesick tadpole join in the sparkly fun as the girls learn that helping out is a berry big deal'
p851
sa(dp852
g2
(lp853
VAction & Adventure
p854
aVAnimation
p855
aVKids & Family
p856
aVScience Fiction & Fantasy
p857
asg7
S'the thrilling second chapter of the epic how to train your dragon trilogy returns to the fantastical world of the heroic viking hiccup and his faithful dragon toothless the inseparable duo must protect the peace  and save the future of men and dragons from the powerhungry drago'
p858
sa(dp859
g2
(lp860
VDrama
p861
asg7
S'director denis villeneuve adapts wajdi mouawads play concerning a pair of twins who make a lifealtering discovery following the death of their mother upon learning that their absentee father is still very much alive and they also have a brother they have never met the pair travels to the middle east on a mission to uncover the truth about their mysteryshrouded past  jason buchanan rovi'
p862
sa(dp863
g2
(lp864
VSpecial Interest
p865
asg7
S'1992 quentin tarantino burst onto the scene and redefined modern cinema with the groundbreaking debut of reservoir dogs twenty years later ncm fathom events miramax and ign are celebrating a milestone anniversary of this careerlaunching crimethriller by bringing reservoir dogs 20th anniversary event to the big screen in addition to bringing the criticallyacclaimed classic back to the big screen reservoir dogs 20th anniversary event will feature trailers handpicked by quentin tarantino which influenced his work and exclusive new interviews join us in celebrating 20 years of a legendary career as reservoir dogs comes back to movie theaters across the country'
p866
sa(dp867
g2
(lp868
VAction & Adventure
p869
aVSpecial Interest
p870
asg7
S'watch christopher nolans visionary tale in its entirety starting with batman begins and the dark knight leading up to the midnight premiere of the dark knight rises'
p871
sa(dp872
g2
(lp873
VAction & Adventure
p874
aVSpecial Interest
p875
asg7
S'watch christopher nolans visionary tale in its entirety starting with batman begins and the dark knight leading up to the midnight premiere of the dark knight rises'
p876
sa(dp877
g2
(lp878
VMystery & Suspense
p879
aVDrama
p880
asg7
S'a boston man kidnaps the person he suspects is behind the disappearance of his young daughter and her best friend'
p881
sa(dp882
g2
(lp883
VAnimation
p884
aVKids & Family
p885
aVScience Fiction & Fantasy
p886
asg7
S'the son of a viking chief must capture a dragon in order to mark his passage into manhood and prove his worthiness to the tribe in directors chris sanders and dean deblois adaptation of cressida cowells popular childrens book gerard butler america ferrera jonah hill jay baruchel and christopher mintzplasse provide voices for the dreamworks animation production  jason buchanan rovi'
p887
sa(dp888
g2
(lp889
VDrama
p890
aVRomance
p891
aVArt House & International
p892
aVMystery & Suspense
p893
asg7
S'benjamin esposito has spent his entire working life as a criminal court employee recently retired and with time on his hands he decides to write a novel he does not decide to make up a story there is no need to he can draw on his own past as a civil servant for a true moving and tragic story in which he was once very directly involved in 1974 his court was assigned an investigation into the rape and murder of a beautiful young woman  c sony classics'
p894
sa(dp895
g2
(lp896
VDrama
p897
aVAction & Adventure
p898
asg7
S'a town in northern thailand recruits seven blackwatertype paramilitary contractors from around the world to defend against an imminent attack'
p899
sa(dp900
g2
(lp901
VComedy
p902
asg7
S'hot tub time machine director steve pink returns to the helm for this sequel set 10 years in the future and starring rob corddry adam scott clark duke and craig robinson  jason buchanan rovi'
p903
sa(dp904
g2
(lp905
VAction & Adventure
p906
aVDocumentary
p907
aVSpecial Interest
p908
asg7
S'72 min documentary about the young airplane thief who evaded the fbi for years'
p909
sa(dp910
g2
(lp911
VComedy
p912
asg7
S'star wars hunt for the holocron is an original film from director martin spitznagel that honors george lucas star wars legacy with an original trilogystyled adventure made by a dedicated group of young people entirely with practical effects the film is a 30minute love letter to star wars complete with an original orchestral score hunt for the holocron is the story of bando mark august spitznagel sagaftra and sahn dan clavey jinkuru young men thrown into a dangerous world when they find a holocron a record of jedi secrets pursued by dark jedi dregr jarrat martin spitznagel whose thirst for the holocron has reached obsession the boys are aided by jedi edin kyle david turka and smuggler ariah duen jennifer moreau old business partners of their father as dregr closes in the brothers struggle to survive both their present and their past the film originally shot in pittsburgh pa from 20032005 is the culmination of a childhood dream for director martin spitznagel create a star wars film in the spirit of the original trilogy along with a dedicated allvolunteer cast and crew martin spent countless stolen nights and weekends over ten years to write film edit and bring this creation to life with the most limited of resources aside from an original screenplay the film boasts original characters models costumes visual effects and orchestral score worked on in locations from washington dc to houston tx the notforprofit project was funded through the generosity of family and friends and worked on without pay by a 20person team hailing everywhere from texas to brazil literally thousands of hours were invested by the cast and crew to write scout build storyboard film act record cut edit equalize compose accompany add special effects colortime and finalize hunt for the holocron in time for its premiere on april 20th 2013  complete with a red carpet meetandgreet hour presentation directors note and castandcrew qa  at dormonts hollywood theater the beautiful standalone theater located in the heart of the dormont business district spitzfire productions is very proud to now present this film to the worldwide audience of star wars fans and big dreamers everywhere'
p913
sa(dp914
g2
(lp915
VDocumentary
p916
aVDrama
p917
aVComedy
p918
aVSpecial Interest
p919
asg7
S'in 1979 the us customs service reported that 87 of all marijuana seizures in the us were made in the south florida area due to the regions 5000 miles of coast and coastal waterways and close proximity to the caribbean and latin america south florida was a pot smugglers paradise in sharp contrast to the brazenly violent cocaine cowboys of the 1980s miamis marijuana smugglers were cooler calmer and for the most part nonviolent square grouper paints a vivid portrait of miamis pot smuggling culture in the 1970s and 1980s through three of the citys most colorful storiesc official site'
p920
sa(dp921
g2
(lp922
VRomance
p923
aVArt House & International
p924
aVComedy
p925
aVDocumentary
p926
aVDrama
p927
asg7
S'the african metropolis project includes six short films set in six major african metropolitan centers the african metropolis short film project is an initiative of the goetheinstitut south africa and south african executive producer steven markovitz with support from guaranty trust bank plc and the hubert bals fund of international film festival rotterdam the short fiction films are set in lagos director folasakin iwajomo abidjan philippe lacote dakar marie ka johannesburg vincent moloi cairo ahmed ghoneimy and nairobi jim chuchu these films show the face of a modern and cosmopolitan africa and challenges longstanding cliches about the continent'
p928
sa(dp929
g2
(lp930
VComedy
p931
asg7
S'what happens when a highly intellectual analytical but low selfesteemed man meets an over ambitious overbearing woman the result is a roller coaster ride of laughter romance and dramatic twists between two unconventional characters a bar retaker who holds office under an umbrella and a class a fixer whose expertise is social climbing'
p932
sa(dp933
g2
(lp934
VDrama
p935
asg7
S'losing his dad and mom at an early age kunchako asif ali lives with his relatives who dislikes him fed up with the life there kunchako leaves his home after stealing their bicycle'
p936
sa(dp937
g2
(lp938
VAction & Adventure
p939
aVScience Fiction & Fantasy
p940
asg7
S'the amazing spiderman is the story of peter parker garfield an outcast high schooler who was abandoned by his parents as a boy leaving him to be raised by his uncle ben sheen and aunt may field like most teenagers peter is trying to figure out who he is and how he got to be the person he is today as peter discovers a mysterious briefcase that belonged to his father he begins a quest to understand his parents disappearance  leading him directly to oscorp and the lab of dr curt connors ifans his fathers former partner as spiderman is set on a collision course with connors alterego the lizard peter will make lifealtering choices to use his powers and shape his destiny to become a hero  c sony'
p941
sa(dp942
g2
(lp943
VAction & Adventure
p944
aVHorror
p945
asg7
S'a group of ambitious explorers go on the adventure of a lifetime as they embark on a dangerous unauthorized mission deep beneath the egyptian pyramids feelings of excitement soon turn to fear as an evil egyptian spirit reawakens inside the dark tunnels the team must frantically try to survive as the ancient spirit is out for violent revenge'
p946
sa(dp947
g2
(lp948
VAction & Adventure
p949
aVScience Fiction & Fantasy
p950
asg7
S'the ultimate xmen ensemble fights a war for the survival of the species across two time periods in xmen days of future past the beloved characters from the original xmen film trilogy join forces with their younger selves from the past xmen first class in order to change a major historical event and fight in an epic battle that could save our future c fox'
p951
sa(dp952
g2
(lp953
VComedy
p954
asg7
S'uptight fbi special agent sarah ashburn sandra bullock and foulmouthed boston cop shannon mullins melissa mccarthy couldnt be more incompatible but when they join forces to bring down a ruthless drug lord they become the last thing anyone expected buddies from paul feig director of bridesmaids c fox'
p955
sa(dp956
g2
(lp957
VDocumentary
p958
aVTelevision
p959
asg7
S'this short film tells the story of the most important cinema trend that italy has ever produced  neo realism born after the second world war this veritable cultural revolution rapidly became a boundless source of inspiration for moviemakers throughout the entire world even today it influences those wanting to produce quality movies characterized and identified as italian products able to be exported as well it is precisely one of the masters of this unique current rich in different personalities who introduces the story  carlo lizzani  whose lesson reconstructs the birth and development of neorealism in italy it combined innovative movie techniques with a new view based on a true interpretation of reality due to its high cultural value this short film was given the highest reknown of the presidency of the republic of italy'
p960
sa(dp961
g2
(lp962
VDrama
p963
aVMusical & Performing Arts
p964
aVArt House & International
p965
asg7
S'the story based on two letters written by mahatma gandhi to adolf hitler in 1940 to prevent world war ii'
p966
sa(dp967
g2
(lp968
VDocumentary
p969
asg7
S'the award winning movie the kings speech has taken the film world by storm the true story of king george vis struggle to speak in public to the british nation during the crisis of his brothers abdication and the onset of war with hitlers germany has captivated the filmgoing public king george vi the man behind the kings speech is a brand new documentary produced to coincide with the award ceremonies and home entertainment release of the kings speech using archive footage of king george vi and new interviews with the grandson of lionel logue the kings speech therapist this unique documentary charts the life and story of the man who never wished to be king of england and how he overcame his personal limitations for the sake of a nation the programme is brought right up to date with interviews and insights from the stars of the kings speech such as colin firth ending with the films well deserved success at the academy awards'
p970
sa(dp971
g2
(lp972
VWestern
p973
aVDrama
p974
aVAction & Adventure
p975
aVCult Movies
p976
asg7
S'when the life of her outlaw lover comes to a violent end a mysterious woman lizzy caplan embarks on a quest to bring his body home and give him a proper burial costarring peter dinklage dwight yoakam and kris kristofferson'
p977
sa(dp978
g2
(lp979
VAction & Adventure
p980
aVAnimation
p981
aVKids & Family
p982
asg7
S'rango is a sheltered chameleon living as an ordinary family pet while facing a major identity crisis after all how high can you aim when your whole purpose in life is to blend in when rango accidentally winds up in the gritty gunslinging town of dirt  a lawless outpost populated by the deserts most wily and whimsical creatures  the lessthancourageous lizard suddenly finds he stands out welcomed as the last hope the town has been waiting for new sheriff rango is forced to play his new role to the hilt  c paramount'
p983
sa(dp984
g2
(lp985
VDrama
p986
aVAction & Adventure
p987
aVKids & Family
p988
aVMystery & Suspense
p989
aVScience Fiction & Fantasy
p990
asg7
S'harry potter and the deathly hallows  part 2 is the final adventure in the harry potter film series the muchanticipated motion picture event is the second of two fulllength parts in the epic finale the battle between the good and evil forces of the wizarding world escalates into an allout war the stakes have never been higher and no one is safe but it is harry potter who may be called upon to make the ultimate sacrifice as he draws closer to the climactic showdown with lord voldemort it all ends here  c warner bros'
p991
sa(dp992
g2
(lp993
VDrama
p994
aVAction & Adventure
p995
asg7
S'haunted by a tragic past exmarine tommy conlon hardy returns home for the first time in fourteen years to enlist the help of his father nick nolte to train for sparta the biggest winnertakesall event in mixed martial arts history a former wrestling prodigy tommy blazes a path toward the championship while his brother brendan edgerton an exfighterturned teacher returns to the ring in a desperate bid to save his family from financial ruin but when brendans unlikely underdog rise sets him on a collision course with the unstoppable tommy the two brothers must finally confront each other and the forces that pulled them apart facing off in the most soaring soul stirring and unforgettable climax that must be seen to be believed  c lionsgate'
p996
sa(dp997
g2
(lp998
VDrama
p999
asg7
S'the social network explores the moment at which facebook the most revolutionary social phenomena of the new century was invented  through the warring perspectives of the supersmart young men who each claimed to be there at its inception the result is a drama rife with both creation and destruction one that audaciously avoids a singular pov but instead by tracking dueling narratives mirrors the clashing truths and constantly morphing social relationships that define our time drawn from multiple sources the film captures the visceral thrill of the heady early days of a culturechanging phenomenon in the making  and the way it both pulled a group of young revolutionaries together and then split them apart'
p1000
sa(dp1001
g2
(lp1002
VDrama
p1003
aVAction & Adventure
p1004
aVScience Fiction & Fantasy
p1005
asg7
S'with its dizzying depiction of a futuristic cityscape and alluring female robot metropolis is among the most famous of all german films and the mother of scifi cinema directed by the legendary fritz lang its jawdropping production values iconic imagery and modernist grandeur remain as powerful as ever drawing on  and defining  classic scifi themes metropolis depicts a dystopian future in which society is thoroughly divided in two while anonymous workers conduct their endless drudgery below ground their rulers enjoy a decadent life of leisure and luxury when freder ventures into the depths in search of the beautiful maria plans of rebellion are revealed and a mariareplica robot is programmed by mad inventor rotwang and master of metropolis joh fredersen to incite the workers into a selfdestructive riot metropolis is presented here in a newly reconstructed and restored version as lavish and spectacular as ever thanks to the painstaking archival work of the friedrichwilhelmmurnaustiftung and the discovery of 25 minutes of footage previously thought lost to the world langs enduring epic can finally be seen  for the first time in 83 years  as the director originally intended and as seen by german cinemagoers in 1927'
p1006
sa(dp1007
g2
(lp1008
VDrama
p1009
aVAction & Adventure
p1010
aVMystery & Suspense
p1011
asg7
S'it has been eight years since batman vanished into the night turning in that instant from hero to fugitive assuming the blame for the death of da harvey dent the dark knight sacrificed everything for what he and commissioner gordon both hoped was the greater good for a time the lie worked as criminal activity in gotham city was crushed under the weight of the anticrime dent act but everything will change with the arrival of a cunning cat burglar with a mysterious agenda far more dangerous however is the emergence of bane a masked terrorist whose ruthless plans for gotham drive bruce out of his selfimposed exile but even if he dons the cape and cowl again batman may be no match for bane  c warner bros'
p1012
sa(dp1013
g2
(lp1014
VAction & Adventure
p1015
asg7
S'john mcclane bruce willis heads to russia in this fifth installment of the die hard film series skip woods the ateam provides the script with max paynes john moore directing  jeremy wheeler rovi'
p1016
sa(dp1017
g2
(lp1018
VDocumentary
p1019
aVSpecial Interest
p1020
asg7
S'issued as an unofficial companion piece to the kings speech this documentary tells the reallife story of british monarch george vi 18951952 as the brother of king edward viii george was terribly shy as a young man and suffered from a crippling stutter which made him an unlikely monarch but upon edwards abdication he automatically ascended to the british throne  and found it necessary to overcome a debilitating fear of speaking in public especially as mass media grew prevalent throughout the world fortunately the unconventional australian speech therapist lionel logue stepped in to assist george and save the day laurence fox narrates this program which draws heavily on archival footage of georges speeches and interviews with some of logues other patients  nathan southern rovi'
p1021
sa(dp1022
g2
(lp1023
VDocumentary
p1024
aVSpecial Interest
p1025
asg7
S'dive into the world of fantastic cinema in this documentary exploring some of the most imaginative movies ever made'
p1026
sa(dp1027
g2
(lp1028
VDocumentary
p1029
asg7
S'king of chinatown takes an indepth look at the culture of video games an industry that has evolved into a worldwide multibillion dollar phenomenon filmmaker calvin theobald follows justin wong a videogame prodigy sharpening his skills as he battles challengers in the cutthroat competitive world of street fighter iv but as justin fights his way through the ranks he finds himself up against a formidable offscreen challenge  his allegiance to the empire a videogaming collective run by the charismatic and potentially destructive leader triforce culminating in an epic battle at evo the largest videogaming competition in the world king of chinatown shows us the entertaining ontheground trials of a street fighter iv sensation'
p1030
sa(dp1031
g2
(lp1032
VAction & Adventure
p1033
aVAnimation
p1034
asg7
S'the dark knight along with new sidekick robin have finally reclaimed gotham city and allowed a ray of hope to penetrate the reign of terror cast by the mutants with batman back in the spotlight the extended media coverage has awoken a far worse evil at arkham asylum the joker a global catastrophe races towards gotham and with it comes a familiar face the man of steel though this time he has batman in his sights witness as the aging dark knight wages a tireless war against crime while proving that courage and will are indeed timeless'
p1035
sa(dp1036
g2
(lp1037
VDrama
p1038
asg7
S'after the death of his father king george v michael gambon and the scandalous abdication of king edward viii guy pearce bertie colin firth who has suffered from a debilitating speech impediment all his life is suddenly crowned king george vi of england with his country on the brink of war and in desperate need of a leader his wife elizabeth helena bonham carter the future queen mother arranges for her husband to see an eccentric speech therapist lionel logue geoffrey rush after a rough start the two delve into an unorthodox course of treatment and eventually form an unbreakable bond with the support of logue his family his government and winston churchill timothy spall the king will overcome his stammer and deliver a radioaddress that inspires his people and unites them in battle based on the true story of king george vi the kings speech follows the royal monarchs quest to find his voice  c weinstein'
p1039
sa(dp1040
g2
(lp1041
VDrama
p1042
aVMystery & Suspense
p1043
aVScience Fiction & Fantasy
p1044
asg7
S'alex garland writer of 28 days later and sunshine makes his directorial debut with the stylish and cerebral thriller ex machina caleb smith domhnall gleeson a programmer at an internetsearch giant wins a competition to spend a week at the private mountain estate of the companys brilliant and reclusive ceo nathan bateman oscar isaac upon his arrival caleb learns that nathan has chosen him to be the human component in a turing testcharging him with evaluating the capabilities and ultimately the consciousness of nathans latest experiment in artificial intelligence that experiment is ava alicia vikander a breathtaking ai whose emotional intelligence proves more sophisticatedand more deceptivethan the two men could have imagined c a24'
p1045
sa(dp1046
g2
(lp1047
VDrama
p1048
aVComedy
p1049
asg7
S'val al pacino is released from prison after serving twentyeight years for refusing to give up one of his close criminal associates his best friend doc christopher walken is there to pick him up and the two soon reteam with another old pal hirsch alan arkin their bond is as strong as ever and the three reflect on freedom lost and gained loyalties ebbed and flowed and days of glory gone by but one of the friends is keeping a dangerous secret hes been put in an impossible quandary by a former mob boss and his time to find an acceptable alternative is running out as the sun rises on the guys legendary reunion their position becomes more and more desperate and they finally confront their past once and for all  c lionsgate'
p1050
sa(dp1051
g2
(lp1052
VDrama
p1053
aVHorror
p1054
aVMystery & Suspense
p1055
asg7
S'a writer struggling with her second novel is terrorised by a homicidal pa'
p1056
sa(dp1057
g2
(lp1058
VDrama
p1059
aVAction & Adventure
p1060
asg7
S'michaels wilbert berthaud jr life is turned upside down when his parents die in a mysterious fire at the age of seventeen he is forced to take care of his two younger brothers lee berthaud  michael berthaud he tries to find legitimate work but the constant rejections due to his lack of education and experience along with the death of his parents leave him feeling disillusioned through an incidental encounter with two thugs don foley and rob young michael learns of an underground organization where people fight for money ignoring his friend jasons mike harb advice michael meets with the head of the underground a brief audition piques monros emanuel ward interest as he is impressed by michaels raw talent despite jasons warnings and constant pleas to stop michael is lured in by the promise of fortune and is willing to do whatever it takes to support his family'
p1061
sa(dp1062
g2
(lp1063
VAnimation
p1064
asg7
S'leafie the hen escapes an egg production line survives an encounter with a weasel and becomes a ducklings guardian'
p1065
sa(dp1066
g2
(lp1067
VDocumentary
p1068
aVSpecial Interest
p1069
asg7
S'this portrait of washington super lobbyist jack abramoff  from his early years as a gungho member of the gop political machine to his final reckoning as a disgraced imprisoned pariah  confirms the adage that truth is indeed stranger than fiction oscarwinning filmmaker alex gibney once again wields the tools of his trade with the skill of a master following the ongoing indictments of federal officials and exposing favor trading in our nations capital gibney illuminates the way our politicians desperate need to get elected  and the millions of dollars it costs  may be undermining the basic principles of american democracy'
p1070
sa(dp1071
g2
(lp1072
VDrama
p1073
aVComedy
p1074
asg7
S'the son of a samesex couple seeks out the sperm donor who made his birth possible in this comedy from writerdirector lisa cholodenko the committed parents of two teenage children nic annette bening and jules julianne moore are about to send their daughter joni mia wasikowska off to college when her younger brother laser josh hutcherson asks for her help in tracking down his biological father reluctantly inquiring with the sperm bank joni leaves her number so the office can pass it along to lasers father enthusiastic at the thought of meeting his long lost offspring paul mark ruffalo musters the courage to reach out and the family tree grows a new branch'
p1075
sa(dp1076
g2
(lp1077
VDrama
p1078
aVAction & Adventure
p1079
aVMystery & Suspense
p1080
aVScience Fiction & Fantasy
p1081
asg7
S'visionary filmmaker christopher nolan memento the dark knight writes and directs this psychological scifi action film about a thief who possesses the power to enter into the dreams of others dom cobb leonardo dicaprio doesnt steal things he steals ideas by projecting himself deep into the subconscious of his targets he can glean information that even the best computer hackers cant get to in the world of corporate espionage cobb is the ultimate weapon but even weapons have their weakness and when cobb loses everything hes forced to embark on one final mission in a desperate quest for redemption this time cobb wont be harvesting an idea but sowing one should he and his team of specialists succeed they will have discovered a new frontier in the art of psychic espionage theyve planned everything to perfection and they have all the tools to get the job done their mission is complicated however by the sudden appearance of a malevolent foe that seems to know exactly what theyre up to and precisely how to stop them  jason buchanan rovi'
p1082
sa(dp1083
g2
(lp1084
VMystery & Suspense
p1085
aVAction & Adventure
p1086
asg7
S'robert rodriguez and frank miller reunite weaving together millers classic stories with new tales sin citys hardboiled citizens once again cross paths with more reviled inhabitants'
p1087
sa(dp1088
g2
(lp1089
VDrama
p1090
aVSpecial Interest
p1091
asg7
S'chiwetel ejiofor stars as solomon northup the new york state citizen who was kidnapped and made to work on a plantation in new orleans in the 1800s steve mcqueen hunger directs from a script he cowrote with john ridley based in part by northups memoir michael fassbender brad pitt benedict cumberbatch sarah paulson and paul giamatti costar  jeremy wheeler rovi'
p1092
sa(dp1093
g2
(lp1094
VDrama
p1095
asg7
S'from disney comes mcfarland the true againstallodds story of the 1987 mcfarland high school cross country team in an economically challenged community c disney'
p1096
sa(dp1097
g2
(lp1098
VAction & Adventure
p1099
asg7
S'juggling some angry russians the british mi5 his impossibly leggy wife and an international terrorist debonair art dealer and part time rogue charlie mortdecai johnny depp must traverse the globe armed only with his good looks and special charm in a race to recover a stolen painting rumored to contain the code to a lost bank account filled with nazi gold c lionsgate'
p1100
sa(dp1101
g2
(lp1102
VAction & Adventure
p1103
asg7
S'ethan hunt tom cruise returns for yet another topsecret assignment as hot property screenwriter drew pearce iron man 3 pacific rim takes over writing duties for the fifth installment of the phenomenally successful spy franchise  rovi'
p1104
sa(dp1105
g2
(lp1106
VWestern
p1107
aVAction & Adventure
p1108
aVKids & Family
p1109
asg7
S'from producer jerry bruckheimer and director gore verbinski the filmmaking team behind the blockbuster pirates of the caribbean franchise comes disney jerry bruckheimer films the lone ranger a thrilling adventure infused with action and humor in which the famed masked hero is brought to life through new eyes native american spirit warrior tonto johnny depp recounts the untold tales that transformed john reid armie hammer a man of the law into a legend of justicetaking the audience on a runaway train of epic surprises and humorous friction as the two unlikely heroes must learn to work together and fight against greed and corruption c disney'
p1110
sa(dp1111
g2
(lp1112
VDocumentary
p1113
aVArt House & International
p1114
asg7
S'argentine film historians find a complete print of metropolis and take it to germany for restoration the story includes the discovery itself the history of the 35mm print later converted to 16mm a showing in 1959 what historians knew about the missing scenes and the oftenfrustrated search fernando martin pena and paula felixdider carry the narration enno patalas verifies the discovery and scholars at the murnau institut and the deutsche kinemathek are on camera when they see the print the story concludes with evidence of multiple takes available for distributors to construct their own prints which varied greatly from country to country'
p1115
sa(dp1116
g2
(lp1117
VDrama
p1118
asg7
S'forty years ago artist alex carver morgan freeman bought a rundown apartment in a sketchy part of brooklyn with his wife schoolteacher ruth diane keaton today their neighborhood is now very hip and their apartment worth a small fortune the now retired ruth and alex havent changed  they are still as much in love as ever but they have let ruths niece lily cynthia nixon a real estate agent list their property to see what the market might bear on the eve of their open house the brooklyn bridge is rumored to be under a terrorist attack sending the media into a frenzy and peoples attitudes about living in new york closer to home dorothy the carvers beloved dog is suddenly having trouble walking while dorothy is having expensive treatment at the vet ruth convinces alex to go apartment hunting in manhattan where they miraculously come across an ideal place they might actually be able to afford as the world around them seems to mirror their own chaos and confusion ruth and alex realize the same bond of love that has kept them together all these years will allow them to see their way through this crazy weekend as wellc focus'
p1119
sa(dp1120
g2
(lp1121
VComedy
p1122
asg7
S'now that the best exotic marigold hotel is full up with its longterm residents comanagers muriel donnelly maggie smith and sonny kapoor dev patel have a dream of expansion and theyve found just the place the second best exotic marigold hotel with plans underway evelyn and douglas judi dench and bill nighy venture into the jaipur workforce wondering where their regular breakfast dates will lead meanwhile norman and carol ronald pickup and diana hardcastle navigate the swirling waters of an exclusive relationship as madge celia imrie juggles two very eligible suitors and recent arrival guy chambers richard gere finds a muse in sonnys mother mrs kapoor lillete dubey for his next novel as his marriage to sunaina tina desai the love of his life quickly approaches sonny finds his plans for the new hotel making more claims on his time than he has available perhaps the only one who may know the answers is muriel the keeper of everyones secrets as the big day nears family and guests alike find themselves swept up in the irresistible intoxication of an indian wedding8203  c fox searchlight'
p1123
sa(dp1124
g2
(lp1125
VKids & Family
p1126
asg7
S'having fun is getting it done especially when bob the builder and his best friends are here to help watch and learn as bob rescues his pal scruffy repairs an old theater builds a stage and throws a surprise birthday party for his best friend wendy get the help you need from bob the builder in these heartwarming tales of teamwork and adventure'
p1127
sa(dp1128
g2
(lp1129
VArt House & International
p1130
aVAction & Adventure
p1131
asg7
S'yuhang to stars as famed martial arts master ip man in this biographical drama from director herman yau the untold story taxi hunter growing up ip man his adopted sibling ip tinchi and their friend ng chungsok studied wing chun under famed master chan wahshun later continuing his lessons with ng chungsok ip man ultimately set his sights on hong kong while developing an innovative new form of the popular martial art under leung bik later after enduring many great hardships ip man returns to his hometown and falls in love with cheung wingshing  the daughter of a prominent foshan politician  leaving lovelorn lee meiwai open to marry ip tinchi ip mans perceived integrity takes a big hit however when he is arrested for murdering lee meiwais godfather and must fight to prove his innocence  jason buchanan rovi'
p1132
sa(dp1133
g2
(lp1134
VAnimation
p1135
aVKids & Family
p1136
asg7
S'during a postchristmas play date the gang find themselves in uncharted territory when the coolest set of action figures ever turn out to be dangerously delusional its all up to trixie the triceratops if the gang hopes to return to bonnies room in this toy story that time forgot c disney'
p1137
sa.