(dp0
S'770677094'
p1
(VBrian Webster
p2
V83/100
p3
V
p4
tp5
sS'771371883'
p6
(VTravis Hopson
p7
V3.5/5
p8
VWill have audiences cheering and begging for an encore.
p9
tp10
sS'770709575'
p11
(VEmanuel Levy
p12
V2/5
p13
g4
tp14
sS'770687057'
p15
(VRobin Clifford
p16
V3/5
p17
g4
tp18
sS'10699'
p19
(VScott Weinberg
p20
V5/5
p21
g4
tp22
sS'771205854'
p23
(VRoger Ebert
p24
V3.5/4
p25
VI'm very weary of routine chase movies. There's nothing routine about "Premium Rush."
p26
tp27
sS'770784662'
p28
(VDennis Schwartz
p29
VB+
p30
VErrol Flynn's last Western is an enjoyable old-fashioned one.
p31
tp32
sS'770742026'
p33
(VScott Weinberg
p34
V1/5
p35
g4
tp36
sS'190814969'
p37
(VUri Lessing
p38
V3/5
p39
VI found it pretty compelling stuff, but whether or not Rank grips you depends solely on whether or not bull riding grabs you by the horns.
p40
tp41
sS'771365842'
p42
(VEmily Ashby
p43
V5/5
p44
VHorror film-themed TV special is sweet treat for families.
p45
tp46
sS'11605'
p47
(g4
VB
p48
g4
tp49
sS'770785728'
p50
(VJoshua Rothkopf
p51
V1/5
p52
g4
tp53
sS'11450'
p54
(VWalter Chaw
p55
V4/5
p56
g4
tp57
sS'13489'
p58
(VMatthew Turner
p59
V4/5
p60
g4
tp61
sS'377006903'
p62
(VStella Papamichael
p63
V3/5
p64
VThe settings are mundane, but the exchanges are emotionally raw and so neatly convey both the drama and the grinding daily routine of having to cope with tragedy.
p65
tp66
sS'770781791'
p67
(VDave White
p68
V5/5
p69
g4
tp70
sS'12172'
p71
(VJeffrey Westhoff
p72
V2/5
p73
g4
tp74
sS'16280'
p75
(g4
V2/5
p76
g4
tp77
sS'351332031'
p78
(g4
V5/5
p79
g4
tp80
sS'771312088'
p81
(VEmily Breen
p82
V4/5
p83
VMockingjay Part 1 is a powerful, moving, penultimate chapter.
p84
tp85
sS'149092327'
p86
(g4
V3/5
p87
g4
tp88
sS'10286'
p89
(VBrian J. Arthurs
p90
V4/5
p91
g4
tp92
sS'406923403'
p93
(VBen Walters
p94
V4/5
p95
VThe Simpsons Movie does not feel at sea on the big screen and, crucially, it is very funny.
p96
tp97
sS'98721872'
p98
(VScott A. Mantz
p99
V6/5
p100
g4
tp101
sS'12705'
p102
(VScott Weinberg
p103
V5/5
p104
g4
tp105
sS'341817599'
p106
(VRob Vaux
p107
V5/5
p108
g4
tp109
sS'533693794'
p110
(VCarol Cling
p111
V3/5
p112
g4
tp113
sS'13900'
p114
(g4
V5/5
p115
g4
tp116
sS'10196'
p117
(VScott Weinberg
p118
V5/5
p119
g4
tp120
sS'771305721'
p121
(VEric Henderson
p122
V2/4
p123
VMartin Scorsese's keyed-up, irreverent tone frequently fails to distinguish itself from the grunting arias sung by the oily paragons of commerce his film evidently intended to deflate.
p124
tp125
sS'13153'
p126
(g4
V3.5/4
p127
g4
tp128
sS'770882997'
p129
(VEmanuel Levy
p130
V2/5
p131
g4
tp132
sS'534309146'
p133
(VCarol Cling
p134
V4/5
p135
g4
tp136
sS'13092'
p137
(VJonathan Foreman
p138
V4/4
p139
g4
tp140
sS'10611'
p141
(VScott Weinberg
p142
V4/5
p143
g4
tp144
sS'771383086'
p145
(VStefan Pape
p146
V5/5
p147
VMulti-faceted and nuanced, each with so many subtleties and complexities Ex_Machina is a film bursting with ideas.
p148
tp149
sS'298651475'
p150
(VMark R. Leeper
p151
Vhigh +1 out of -4..+4
p152
g4
tp153
sS'13492'
p154
(VJeffrey Westhoff
p155
V4/5
p156
g4
tp157
sS'771391074'
p158
(VEd Gonzalez
p159
V1.5/4
p160
VThe film splits its time evenly between half-heartedly pretending it's an allegory for our current war on terror and pretending that it's not.
p161
tp162
sS'17027'
p163
(VNicolas Lacroix
p164
V4/5
p165
g4
tp166
sS'19205'
p167
(VPhilip Martin
p168
V4/5
p169
g4
tp170
sS'771372271'
p171
(VMichael Nordine
p172
VB-
p173
VAs these pieces fall into place, Turing becomes ever more sympathetic while still feeling beyond anyone's ability to help or even understand.
p174
tp175
sS'10026'
p176
(VJules Brenner
p177
V3.5/5
p178
VHilary Swank knocks us out.
p179
tp180
sS'12983'
p181
(VScott A. Mantz
p182
V7/5
p183
g4
tp184
sS'771372774'
p185
(VSimon Kinnear
p186
V4/5
p187
VA darkly comic and illuminating portrait of moral bankruptcy emerges.
p188
tp189
sS'20146'
p190
(VDennis Schwartz
p191
VB
p192
VEnjoyable as populist entertainment.
p193
tp194
sS'13113'
p195
(VScott Weinberg
p196
V5/5
p197
g4
tp198
sS'771220961'
p199
(VJennie Kermode
p200
V4/5
p201
g4
tp202
sS'16789'
p203
(VJeffrey Westhoff
p204
V4/5
p205
g4
tp206
sS'17258'
p207
(VEric D. Snider
p208
VA-
p209
g4
tp210
sS'12886'
p211
(VCory Cheney
p212
V4/5
p213
g4
tp214
sS'770926930'
p215
(VDennis Schwartz
p216
VC+
p217
VTedious and preposterous melodrama.
p218
tp219
sS'770790933'
p220
(g4
V3.5/4
p221
g4
tp222
sS'18189'
p223
(VScott Weinberg
p224
V5/5
p225
g4
tp226
sS'17236'
p227
(VBill Chambers
p228
V4/5
p229
g4
tp230
sS'770949447'
p231
(VEmanuel Levy
p232
V2/5
p233
g4
tp234
sS'13863'
p235
(VMarjorie Baumgarten
p236
V5.5/5
p237
VRarely have I left a movie theatre more thrilled or invigorated as I did after leaving Pulp Fiction.
p238
tp239
sS'12644'
p240
(VNicolas Lacroix
p241
V3/5
p242
g4
tp243
sS'13052'
p244
(VSusan Stark
p245
V3/4
p246
g4
tp247
sS'20432'
p248
(VJules Brenner
p249
V3/4
p250
g4
tp251
sS'18062'
p252
(VJosh Gilchrist
p253
V3/5
p254
g4
tp255
sS'11087'
p256
(g4
VC
p257
g4
tp258
sS'371352714'
p259
(g4
VA+
p260
g4
tp261
sS'12990'
p262
(VPhilip Martin
p263
V2/5
p264
g4
tp265
sS'770670907'
p266
(VCarol Cling
p267
V3/5
p268
g4
tp269
sS'771249704'
p270
(VDennis Schwartz
p271
VB-
p272
VThe ambitious plot line is as satisfying as drinking Coca-Cola in the desert to quench one's thirst.
p273
tp274
sS'771308692'
p275
(VSimon Reynolds
p276
V4/5
p277
VA powerful cocktail of nostalgia and new frontier - quite simply it's the grandest, most ambitious X-Men movie yet.
p278
tp279
sS'771007403'
p280
(VDennis Schwartz
p281
VB+
p282
VA good Red Scare thriller from the 1950s.
p283
tp284
sS'9414'
p285
(VRobert Denerstein
p286
VA
p287
g4
tp288
sS'771255187'
p289
(VLinda Cook
p290
V4/4
p291
V'Rocky Mountain Express' not only shows the Canadian Rockies in all their glory, but it also demonstrates what it's like to ride on The Empress, aka the Canadian Pacific 2816, a restored train from the 1930s.
p292
tp293
sS'11292'
p294
(VVincent Canby
p295
V4/5
p296
VIt's fun and funny.
p297
tp298
sS'12994'
p299
(VJeffrey Westhoff
p300
V3/5
p301
g4
tp302
sS'10866'
p303
(VDaniel M. Kimmel
p304
V5/5
p305
g4
tp306
sS'312735059'
p307
(g4
VB-
p308
g4
tp309
sS'18215'
p310
(VPhilip Martin
p311
V4/5
p312
g4
tp313
sS'771318590'
p314
(VRodrigo Perez
p315
VB+
p316
VFar from the feel-good movie of the year, Prisoners is dark, disturbing, white-knuckle stuff with an unnerving shade of dread blanketed over almost every frame.
p317
tp318
sS'770671948'
p319
(VKeith Uhlich
p320
V2/5
p321
g4
tp322
sS'17287'
p323
(VPaul Sherman
p324
V2/4
p325
g4
tp326
sS'12965'
p327
(VRobert Roten
p328
V5/5
p329
g4
tp330
sS'14978'
p331
(VLinda Cook
p332
V5/5
p333
g4
tp334
sS'771400864'
p335
(VJim Lane
p336
V1/5
p337
VThings are so cheap they didn't even spring for uniforms for the so-called cops; everybody seems to be wearing their street clothes.
p338
tp339
sS'16921'
p340
(VScott Weinberg
p341
V3/5
p342
g4
tp343
sS'20036'
p344
(VMick LaSalle
p345
V1/4
p346
g4
tp347
sS'13049'
p348
(VScott A. Mantz
p349
V4/5
p350
g4
tp351
sS'771349839'
p352
(g4
V2/5
p353
g4
tp354
sS'770816664'
p355
(VChris Bumbray
p356
V9/10
p357
VInspiring, and wholly entertaining, THE KING'S SPEECH is an example of the type of film that isn't made enough anymore.
p358
tp359
sS'770679360'
p360
(VDavid Nusair
p361
V.5/4
p362
VA complete and utter waste of time...
p363
tp364
sS'12860'
p365
(VJeremiah Kipp
p366
V3.5/4
p367
VMichel Gondry's Eternal Sunshine of the Spotless Mind is a comedy that has the bracing fright of an identity-crisis horror film.
p368
tp369
sS'771020556'
p370
(VJennie Kermode
p371
V4/5
p372
g4
tp373
sS'10156'
p374
(VJohn Griffin
p375
V4.5/5
p376
g4
tp377
sS'17355'
p378
(VIan Waldron-Mantgani
p379
V8/10
p380
g4
tp381
sS'12903'
p382
(VRob Vaux
p383
V5/5
p384
g4
tp385
sS'16107'
p386
(VDavid Nusair
p387
V1/4
p388
V...if a movie like this is missing the gore, what's the point?
p389
tp390
sS'18329'
p391
(VPhilip Martin
p392
V5/5
p393
g4
tp394
sS'17052'
p395
(VNell Minow
p396
V5/5
p397
g4
tp398
sS'16424'
p399
(VNicolas Lacroix
p400
V4/5
p401
g4
tp402
sS'10246'
p403
(VMatt Easterbrook
p404
V10/10
p405
g4
tp406
sS'14246'
p407
(VCory Cheney
p408
V3/5
p409
g4
tp410
sS'771323079'
p411
(VDavid Parkinson
p412
V4/5
p413
VAsquith's subterranean melodrama is a fascinating journey back in time.
p414
tp415
sS'10097'
p416
(VBob Bloom
p417
V4/4
p418
g4
tp419
sS'13456'
p420
(VSusan Stark
p421
V3/4
p422
g4
tp423
sS'771390491'
p424
(VNick Rogers
p425
V5/5
p426
VA tale of haunting introspection, unremitting power and potent symbolism. "America" ruminates on the corrosive effects of greed, violence, objectification and pain, and forces us to face despicable acts of a stand-in for our nation's worst impulses.
p427
tp428
sS'13889'
p429
(g4
VB+
p430
g4
tp431
sS'10714'
p432
(VPhilip Martin
p433
V1/5
p434
g4
tp435
sS'770863875'
p436
(VJennie Kermode
p437
V2.5/5
p438
g4
tp439
sS'17892'
p440
(VDoris Toumarkine
p441
V1/4
p442
g4
tp443
sS'15577'
p444
(VRob Vaux
p445
V4/5
p446
g4
tp447
sS'425838881'
p448
(VPhil Hall
p449
V3/5
p450
VArt Carney and Bea Arthur versus Darth Vader? This galaxy isn't far, far away enough!
p451
tp452
sS'23532'
p453
(VPhilip Martin
p454
V3/5
p455
g4
tp456
sS'770698400'
p457
(VDave White
p458
V2.5/5
p459
g4
tp460
sS'112770454'
p461
(VRobin Clifford
p462
VB+
p463
g4
tp464
sS'770819676'
p465
(VRay Greene
p466
V3/5
p467
VA crowd-pleasing, feel-good comedy for an era in which the very definition of "family" is fluid and in flux.
p468
tp469
sS'13799'
p470
(VMark Palermo
p471
V3/5
p472
g4
tp473
sS'10008'
p474
(VJason Gorber
p475
V9/10
p476
g4
tp477
sS'14369'
p478
(VElias Savada
p479
V4/5
p480
g4
tp481
sS'9713'
p482
(VNina Patel
p483
V3/5
p484
g4
tp485
sS'11520'
p486
(VRob Vaux
p487
V3/5
p488
g4
tp489
sS'287865052'
p490
(VDave White
p491
VA
p492
g4
tp493
sS'21952'
p494
(VDennis Schwartz
p495
VC-
p496
VTerrible version of The Wizard of Oz, that's filmed as a heavy-handed slapstick comedy.
p497
tp498
sS'12947'
p499
(VJoe Lozito
p500
V2/4
p501
g4
tp502
sS'771362216'
p503
(VEugene Novikov
p504
VB-
p505
VThis isn't Mackenzie's most interesting work, but you could do much worse for an issue movie.
p506
tp507
sS'9559'
p508
(VPhilip Martin
p509
V4/5
p510
g4
tp511
sS'9818'
p512
(VPhilip Martin
p513
V3/5
p514
g4
tp515
sS'155655042'
p516
(VDave White
p517
VD
p518
g4
tp519
sS'14884'
p520
(VChristopher Smith
p521
V5/5
p522
g4
tp523
sS'770670125'
p524
(VCarol Cling
p525
V4/5
p526
g4
tp527
sS'23529'
p528
(VNell Minow
p529
V5/5
p530
g4
tp531
sS'770740154'
p532
(VMatthew Pejkovic
p533
V4.5/5
p534
VAn action spectacular with a witty script to match its big visuals, The Avengers takes the superhero movie to unprecedented heights and establishes Joss Whedon as a blockbuster filmmaker to cherish.
p535
tp536
sS'9'
p537
(VVic Holtreman
p538
V4/5
p539
g4
tp540
sS'770799949'
p541
(g4
V3.5/4
p542
g4
tp543
sS'11645'
p544
(VJames Kendrick
p545
V1.5/4
p546
g4
tp547
sS'202590447'
p548
(VPhil Hall
p549
V5/5
p550
VJaw-droppingly insane...a film that makes criticism moot.
p551
tp552
sS'10075'
p553
(g4
V3.5/5
p554
g4
tp555
sS'771365002'
p556
(VStella Papamichael
p557
V2/5
p558
VMortdecai, the film, is neither satire nor spoof, instead getting caught uncomfortably in a place where the butt of the joke is difficult to pinpoint.
p559
tp560
sS'14901'
p561
(VJonathan Rosenbaum
p562
V1/4
p563
g4
tp564
sS'414930158'
p565
(VDave White
p566
VD
p567
g4
tp568
sS'770859269'
p569
(VDavid Nusair
p570
V2/4
p571
g4
tp572
sS'10462'
p573
(VDesson Thomson
p574
V1/5
p575
g4
tp576
sS'11991'
p577
(VScott A. Mantz
p578
V7/5
p579
g4
tp580
sS'99924418'
p581
(VEd Gonzalez
p582
V2/4
p583
VIt seemingly exists to buff its predecessors' rough spots but only tarnishes their memories.
p584
tp585
sS'770694901'
p586
(VMichael Szymanski
p587
V2/5
p588
g4
tp589
sS'15371'
p590
(VJeremiah Kipp
p591
V3/5
p592
g4
tp593
sS'13139'
p594
(VSusan Stark
p595
V1/4
p596
g4
tp597
sS'771373229'
p598
(VDave Calhoun
p599
V5/5
p600
VTimothy Spall - a veteran of Mike Leigh's films - plays this eccentric, determined London bohemian like a bronchial, cantankerous, randy old toad with backache.
p601
tp602
sS'11717'
p603
(VRobert Roten
p604
V2/5
p605
g4
tp606
sS'770903939'
p607
(VDennis Schwartz
p608
VB
p609
VMighty routine oater, but well-acted.
p610
tp611
sS'771378844'
p612
(VElias Savada
p613
V4.5/5
p614
VThe only problem I had with The Search for General Tso, and it's something many of us experience eating Chinese-American food, was that an hour after watching it I was hungry to view it again.
p615
tp616
sS'18787'
p617
(VFrank Swietek
p618
V2/5
p619
g4
tp620
sS'9924'
p621
(VChristopher Smith
p622
V5/5
p623
g4
tp624
s.
