(dp0
Vyellow
p1
F0.3245513141842011
sVfour
p2
F0.25656594756414336
sVwoods
p3
F0.3278296102870718
sVhanging
p4
F0.45675862374182036
sVwoody
p5
F0.4008152947695229
sVcomically
p6
F0.4089534687986153
sVconjure
p7
F0.40486393411062915
sVeligible
p8
F0.3698501866941401
sVlord
p9
F0.4323360422599845
sVtantalizing
p10
F0.3588652662991374
sVbringing
p11
F0.31491181560161613
sVprize
p12
F0.6023654040394152
sVclientele
p13
F0.4214715966919633
sVwednesday
p14
F0.3517238474997846
sVstraight
p15
F0.43002917732064416
sVasian
p16
F0.798131721624983
sVpumbaa
p17
F0.4089534687986153
sVspecially
p18
F0.3661516848271987
sVmiller
p19
F0.25756855871190165
sVtires
p20
F0.44766912712935814
sVsecond
p21
F0.15740458659047601
sVruthless
p22
F0.2524429443935348
sVcooking
p23
F0.4214715966919633
sVfingers
p24
F0.4008152947695229
sVhero
p25
F0.16551654416050693
sVreporter
p26
F0.38502157290257755
sVhere
p27
F0.24741932980010348
sVreported
p28
F0.2708425379834268
sVchina
p29
F0.7875470757604905
sVcult
p30
F0.2964832232007497
sVkids
p31
F0.4237325550190108
sVuplifting
p32
F0.798131721624983
sVk
p33
F0.3928390704036094
sVreports
p34
F0.38502157290257755
sVmilitary
p35
F0.22376160688190533
sVgolden
p36
F0.7340453391618339
sVdivide
p37
F0.35527661363614604
sVbrought
p38
F0.4240716936576076
sVcocaine
p39
F0.38891067969957327
sVunit
p40
F0.38891067969957327
sVdna
p41
F0.46137234721396
sVsinglecelled
p42
F0.38502157290257755
sVmonros
p43
F0.40486393411062915
sVmusic
p44
F0.14093034777023172
sVhighflying
p45
F0.45675862374182036
sVuntil
p46
F0.45070119218401083
sVplayboy
p47
F0.3588652662991374
sVsuccessful
p48
F0.1395210442925294
sVbrings
p49
F0.45920887714419734
sVjmw
p50
F0.4008152947695229
sVboorman
p51
F0.44766912712935814
sVarndt
p52
F0.46603267395349496
sVfamed
p53
F0.4592548026244596
sVblade
p54
F0.43437290638448905
sVdragons
p55
F0.41308431191779327
sVwant
p56
F0.2819525952261938
sVorganizes
p57
F0.43437290638448905
sVtravel
p58
F0.35527661363614604
sVfeature
p59
F0.2819525952261938
sVmachine
p60
F0.18301617063661463
sVhow
p61
F0.13758816534882284
sVhot
p62
F0.44556991428413756
sVmachina
p63
F0.3811713571735518
sVhop
p64
F0.44766912712935814
sVsignificance
p65
F0.45219103750440215
sVbeauty
p66
F0.3517238474997846
sVmufasa
p67
F0.33448587928484014
sVmisunderstanding
p68
F0.43437290638448905
sVwrong
p69
F0.6208039006939254
sVwins
p70
F0.3811713571735518
sVrevolt
p71
F0.43437290638448905
sVdeutsche
p72
F0.798131721624983
sVfictional
p73
F0.45219103750440215
sVkeeps
p74
F0.3811713571735518
sVwing
p75
F0.544278378462963
sVbackdrop
p76
F0.3735860471657981
sVwelcomed
p77
F0.4257288855474377
sVjordy
p78
F0.3117626974456
sVwelcomes
p79
F0.4008152947695229
sVreprises
p80
F0.6943450426582044
sVabominations
p81
F0.3588652662991374
sVhidden
p82
F0.30555861976643256
sVeffects
p83
F0.20441008721127468
sVsilver
p84
F0.40486393411062915
sVdebut
p85
F0.3278296102870718
sVmultibillion
p86
F0.4257288855474377
sVcluzet
p87
F0.798131721624983
sVloyalties
p88
F0.46137234721396
sVburial
p89
F0.4089534687986153
sVfinancial
p90
F0.3661516848271987
sVseries
p91
F0.20278124911028741
sV17751851
p92
F0.4008152947695229
sVxmen
p93
F0.28767737498846424
sVrv
p94
F0.38891067969957327
sVoprah
p95
F0.37735964360181623
sVmason
p96
F0.35527661363614604
sVencourage
p97
F0.43437290638448905
sVfugitive
p98
F0.44766912712935814
sVcrowned
p99
F0.45219103750440215
sVenormous
p100
F0.43437290638448905
sVexposing
p101
F0.6527974722334957
sVsahn
p102
F0.4257288855474377
sVmcqueen
p103
F0.4214715966919633
sVups
p104
F0.4257288855474377
sVmusicians
p105
F0.4214715966919633
sVcoeds
p106
F0.41308431191779327
sV1970s
p107
F0.2149445067619468
sVfarmhouse
p108
F0.41308431191779327
sVadditions
p109
F0.46137234721396
sVeverdeen
p110
F0.4387605114994839
sVmillers
p111
F0.33448587928484014
sVseizures
p112
F0.38891067969957327
sVbasketball
p113
F0.43437290638448905
sVservice
p114
F0.2964832232007497
sVengagement
p115
F0.46603267395349496
sVmaster
p116
F0.19742859405633945
sVsinglegear
p117
F0.44319243585806456
sVmutilated
p118
F0.38502157290257755
sVsudeikis
p119
F0.44319243585806456
sVpositively
p120
F0.41308431191779327
sVahmed
p121
F0.798131721624983
sVoutlaw
p122
F0.4089534687986153
sVtree
p123
F0.4089534687986153
sVnations
p124
F0.34820660902478673
sVproject
p125
F1.4529386439645908
sVsheen
p126
F0.45219103750440215
sVfeeling
p127
F0.28767737498846424
sVnobitas
p128
F1.0865185850378685
sVrunner
p129
F0.43437290638448905
sVboston
p130
F0.34820660902478673
sVspent
p131
F0.539320789278496
sVaffairs
p132
F0.38891067969957327
sV60th
p133
F0.45675862374182036
sVresponsible
p134
F0.5393207892784961
sVinstructs
p135
F0.4089534687986153
sVdoors
p136
F0.44319243585806456
sVobject
p137
F0.4387605114994839
sVlooming
p138
F0.45219103750440215
sVtheatres
p139
F0.3928390704036094
sVletter
p140
F0.4257288855474377
sVorganization
p141
F0.2524429443935348
sVthriller
p142
F0.23061098370904776
sVsinger
p143
F0.2935183909687422
sVepisode
p144
F0.32130580104235906
sVcops
p145
F0.33448587928484014
sVprofessor
p146
F0.37735964360181623
sVcamp
p147
F0.7003773648482821
sVtech
p148
F0.3811713571735518
sVberthaud
p149
F0.2654527714775566
sVmating
p150
F0.3698501866941401
sVbateman
p151
F0.3811713571735518
sVcame
p152
F0.45219103750440215
sVmarvel
p153
F0.18673214022713464
sVbomb
p154
F0.43002917732064416
sVlethal
p155
F0.798131721624983
sVrediscovers
p156
F0.41308431191779327
sVlessons
p157
F0.5298585046454011
sVorleans
p158
F0.4214715966919633
sVtouches
p159
F0.44766912712935814
sVlouise
p160
F0.3624901679789267
sVmintzplasse
p161
F0.3588652662991374
sVrick
p162
F0.40486393411062915
sVrich
p163
F0.38891067969957327
sVfoolishly
p164
F0.44319243585806456
sVrice
p165
F0.4089534687986153
sVpocket
p166
F0.4089534687986153
sVontheground
p167
F0.4257288855474377
sVmythologised
p168
F0.39680714182182764
sVrelease
p169
F0.2654527714775566
sVtraverse
p170
F0.3588652662991374
sVdisaster
p171
F0.40486393411062915
sVresult
p172
F0.31491181560161613
sVhammer
p173
F0.4172568807250437
sVbest
p174
F0.17336036620314976
sVabdication
p175
F0.3412772975051935
sVambitions
p176
F0.35527661363614604
sVscore
p177
F0.2964832232007497
sVhumankind
p178
F0.46137234721396
sVmelissa
p179
F0.2681341126035925
sVnever
p180
F0.1862378994196657
sVnationwide
p181
F0.20647483556694413
sVborntheyre
p182
F0.4089534687986153
sVaccident
p183
F1.106806916147186
sVsacrificing
p184
F0.46137234721396
sVcountry
p185
F0.6182945011273585
sVadventurer
p186
F0.4387605114994839
sVadventures
p187
F0.2149445067619468
sVedgar
p188
F0.2964832232007497
sVplanned
p189
F0.4172568807250437
sVquests
p190
F0.46137234721396
sVinstallments
p191
F0.4214715966919633
sVadapted
p192
F0.41308431191779327
sVasked
p193
F0.4214715966919633
sVretelling
p194
F0.3811713571735518
sVunion
p195
F0.38502157290257755
sVmuch
p196
F0.1381258338496041
sVlife
p197
F0.012174983770118922
sVarkin
p198
F0.46137234721396
sVworker
p199
F0.798131721624983
sVfilmmaker
p200
F0.11297407776699364
sVfacetoface
p201
F0.33114102049199173
sVdave
p202
F0.3117626974456
sVchild
p203
F0.2193087509049554
sVworked
p204
F0.3245513141842011
sVspin
p205
F0.39680714182182764
sVgritty
p206
F0.4257288855474377
sVpresidency
p207
F0.38891067969957327
sVvikander
p208
F0.3811713571735518
sVcastro
p209
F0.40486393411062915
sVviii
p210
F0.3661516848271987
sVnolans
p211
F0.43437290638448905
sVharvesting
p212
F0.45219103750440215
sVelaborate
p213
F0.43002917732064416
sVa24
p214
F0.3624901679789267
sVplayed
p215
F0.34820660902478673
sVtrusted
p216
F0.262798243762781
sVhong
p217
F1.457595727843314
sVothersand
p218
F0.4214715966919633
sVthings
p219
F0.38502157290257755
sVrebellion
p220
F0.16222276493171284
sVsimin
p221
F2.0336851044504645
sVfeuding
p222
F0.43002917732064416
sVsplit
p223
F0.4214715966919633
sVeuropean
p224
F0.43437290638448905
sVworkforce
p225
F0.3698501866941401
sVgraduations
p226
F0.4214715966919633
sVtune
p227
F0.3811713571735518
sVlucas
p228
F0.4257288855474377
sV30minute
p229
F0.4257288855474377
sVcorporate
p230
F0.3588652662991374
sVboyhood
p231
F0.29947800323308055
sVmasons
p232
F0.4214715966919633
sVbeset
p233
F0.4214715966919633
sVplight
p234
F0.41308431191779327
sVlefevre
p235
F0.40486393411062915
sVportrayed
p236
F0.39680714182182764
sVprevious
p237
F0.34472454293453886
sVenters
p238
F0.43437290638448905
sVhan
p239
F0.22830487387195728
sVhad
p240
F0.3793839660833063
sVgotham
p241
F0.2791330692739319
sVbeloved
p242
F0.23061098370904776
sVprison
p243
F0.09427842258368857
sVeast
p244
F0.4933691109013042
sVhightower
p245
F0.4089534687986153
sVsurvival
p246
F0.46603267395349496
sVpossible
p247
F0.2848006012385796
sVpossibly
p248
F0.37735964360181623
sVbirth
p249
F0.24249568513708142
sVposes
p250
F0.3412772975051935
sVpsychological
p251
F0.3624901679789267
sVseaside
p252
F0.4008152947695229
sValice
p253
F0.37735964360181623
sVpavement
p254
F0.44319243585806456
sVsebastian
p255
F0.3588652662991374
sVmoloi
p256
F0.798131721624983
sVbattlefield
p257
F0.4089534687986153
sVattorney
p258
F0.43002917732064416
sVright
p259
F0.43002917732064416
sVold
p260
F0.2894520831198372
sVcreek
p261
F0.41308431191779327
sVpeople
p262
F0.2506317926057988
sVvideolike
p263
F0.46137234721396
sVwarring
p264
F0.4214715966919633
sVhemsworth
p265
F0.3588652662991374
sVenemies
p266
F0.2935183909687422
sVattendees
p267
F0.44766912712935814
sVfor
p268
F1.0216639510932965e-07
sVfox
p269
F0.07947135459989377
sVfoe
p270
F0.3698501866941401
sVstandwith
p271
F0.4387605114994839
sVyorks
p272
F0.44319243585806456
sVstarring
p273
F0.14379180468343203
sVstylish
p274
F0.3811713571735518
sVlosing
p275
F0.5180693982909742
sVbrokerage
p276
F0.39680714182182764
sVdollars
p277
F0.4089534687986153
sVcitizens
p278
F0.4644972242411986
sVdespair
p279
F0.44766912712935814
sVnixon
p280
F0.3245513141842011
sVraised
p281
F0.45219103750440215
sVfacility
p282
F0.38502157290257755
sVscythes
p283
F0.46137234721396
sVson
p284
F0.22723430524255073
sVundermining
p285
F0.4089534687986153
sVbeings
p286
F0.38502157290257755
sVwrap
p287
F0.45219103750440215
sVsupport
p288
F0.5767233773408743
sVconstantly
p289
F0.4214715966919633
sVwaite
p290
F0.4008152947695229
sVjoseph
p291
F0.44319243585806456
sVhothead
p292
F0.43002917732064416
sVshadowlands
p293
F0.45675862374182036
sVjane
p294
F0.37735964360181623
sVhappy
p295
F0.8886710885307982
sVoffer
p296
F0.31809274303193547
sVeastwoods
p297
F0.39680714182182764
sVtalents
p298
F0.41308431191779327
sVduen
p299
F0.4257288855474377
sVinside
p300
F0.22152399081308627
sVtheobald
p301
F0.4257288855474377
sVcomplications
p302
F0.798131721624983
sVlays
p303
F0.40486393411062915
sVlater
p304
F0.9483079287372994
sVmisfitsrocket
p305
F0.4387605114994839
sVcrumble
p306
F0.38502157290257755
sVproves
p307
F0.4035300186023546
sVexist
p308
F0.3588652662991374
sVdealer
p309
F0.2848006012385796
sVlees
p310
F0.2848006012385796
sVattitudes
p311
F0.4214715966919633
sVactor
p312
F0.20647483556694413
sVrole
p313
F0.4787155549384248
sVambitious
p314
F0.19439195903711348
sVroll
p315
F0.4214715966919633
sVmodels
p316
F0.4257288855474377
sVcomely
p317
F0.3698501866941401
sVinvested
p318
F0.4257288855474377
sVexplosions
p319
F0.38502157290257755
sVrockers
p320
F0.3588652662991374
sVcoastlines
p321
F0.3117626974456
sVtime
p322
F0.0006928706289742561
sVpush
p323
F0.41308431191779327
sVchilds
p324
F0.3517238474997846
sVtheaters
p325
F0.2260218251332377
sVbandits
p326
F0.3117626974456
sVvet
p327
F0.4214715966919633
sVinhabited
p328
F0.32130580104235906
sVobsessively
p329
F0.798131721624983
sVcarpenters
p330
F0.44766912712935814
sVchoice
p331
F0.20856043996661022
sVembark
p332
F0.41308431191779327
sVmourn
p333
F0.43437290638448905
sVstays
p334
F0.4008152947695229
sVminute
p335
F0.46137234721396
sVepic
p336
F0.04392250459507421
sVleave
p337
F0.6901222194589849
sVsolved
p338
F0.4214715966919633
sVsettle
p339
F0.41308431191779327
sVreclusive
p340
F0.3811713571735518
sVteam
p341
F0.11472739416529779
sVprevent
p342
F0.6933735911997995
sVaccomplishment
p343
F0.737061254251595
sVminion
p344
F0.38502157290257755
sVkittisiriprasert
p345
F0.798131721624983
sVlacote
p346
F0.798131721624983
sVeducate
p347
F0.43437290638448905
sVelton
p348
F0.4089534687986153
sVcelebrated
p349
F0.3117626974456
sVcurrent
p350
F0.25499287312478264
sVextraterrestrial
p351
F0.38891067969957327
sVfalling
p352
F0.45675862374182036
sVcolortime
p353
F0.4257288855474377
sVjury
p354
F0.798131721624983
sVhonour
p355
F0.3117626974456
sVunderstanding
p356
F0.35527661363614604
sValone
p357
F0.3811713571735518
sValong
p358
F0.19756684936877345
sVbenson
p359
F0.4214715966919633
sVredemption
p360
F0.2791330692739319
sVbrilliant
p361
F0.2654527714775566
sVstudied
p362
F0.6285815091742153
sVfunded
p363
F0.4257288855474377
sVcusack
p364
F0.4214715966919633
sVaccomplished
p365
F0.38502157290257755
sVstudies
p366
F0.3698501866941401
sVreclaim
p367
F0.33786452453014154
sVlove
p368
F0.08089865463337183
sVbloody
p369
F0.44766912712935814
sVips
p370
F0.6943450426582044
sVsky
p371
F0.41308431191779327
sVworking
p372
F1.1638469995175764
sVhomesick
p373
F0.39680714182182764
sVangry
p374
F0.3588652662991374
sVcharlies
p375
F0.43437290638448905
sVwondering
p376
F0.3698501866941401
sVfilms
p377
F0.3593319980891321
sVprosecutor
p378
F0.43002917732064416
sVintroducing
p379
F0.4214715966919633
sVafford
p380
F0.4214715966919633
sVvisual
p381
F0.33786452453014154
sVeverywhere
p382
F0.3624901679789267
sVriders
p383
F0.44319243585806456
sVanything
p384
F0.2964832232007497
sVoriginally
p385
F0.29058320705905477
sVvalues
p386
F0.3928390704036094
sVbelieved
p387
F0.3661516848271987
sVgunfire
p388
F0.43437290638448905
sVmirrors
p389
F0.4214715966919633
sVallowed
p390
F0.39680714182182764
sVoffense
p391
F0.34820660902478673
sVstockbroker
p392
F0.3278296102870718
sVwinter
p393
F0.27634173858119254
sVdivided
p394
F0.35527661363614604
sVelephant
p395
F1.2740284901281183
sVdivides
p396
F0.3624901679789267
sVexplores
p397
F0.3396769778867758
sVspot
p398
F0.46137234721396
sVdate
p399
F0.2654527714775566
sVsuch
p400
F0.45461678837275543
sVlessthancourageous
p401
F0.4257288855474377
sVrevealed
p402
F0.3928390704036094
sVsy
p403
F0.798131721624983
sVsurfing
p404
F0.3117626974456
sVbiographical
p405
F0.6285815091742153
sVinhabiting
p406
F0.3588652662991374
sVso
p407
F0.503814500161615
sVtruce
p408
F0.4387605114994839
sVpulled
p409
F0.308645070471144
sVprohibitionera
p410
F0.4172568807250437
sVkong
p411
F1.457595727843314
sVcourse
p412
F0.1963555141789025
sVfolasakin
p413
F0.798131721624983
sVtorn
p414
F0.38502157290257755
sVtroubles
p415
F0.6943450426582044
sVsuspicion
p416
F0.31809274303193547
sVconstitutes
p417
F0.3624901679789267
sVtroubled
p418
F0.6145958616869857
sVdecades
p419
F0.31809274303193547
sVtwohour
p420
F0.44766912712935814
sVreveal
p421
F0.46137234721396
sVnation
p422
F0.2708425379834268
sVrecords
p423
F0.7955020967277681
sVsingleminded
p424
F0.41308431191779327
sVarriving
p425
F0.35527661363614604
sVscorsese
p426
F0.33448587928484014
sVreckoning
p427
F0.4089534687986153
sVtwilight
p428
F0.40486393411062915
sVrereleased
p429
F0.4089534687986153
sVquarter
p430
F0.33448587928484014
sVquartet
p431
F0.4387605114994839
sVsquare
p432
F0.38891067969957327
sVdinermotel
p433
F0.44766912712935814
sVbreakthrough
p434
F0.4214715966919633
sVsexually
p435
F0.4008152947695229
sVcumberbatch
p436
F0.2400707282857106
sVtroll
p437
F0.3928390704036094
sVjoker
p438
F0.3811713571735518
sVreveled
p439
F0.41308431191779327
sVswordsman
p440
F0.39680714182182764
sVboundless
p441
F0.38891067969957327
sVinvestigation
p442
F0.9909665721046936
sVcobb
p443
F0.33448587928484014
sVinternet
p444
F0.47074007470049994
sVformula
p445
F0.3588652662991374
sVworthiness
p446
F0.3588652662991374
sVhairdresser
p447
F0.798131721624983
sVmillion
p448
F0.2601702613251532
sVseventh
p449
F0.46603267395349496
sVpossibility
p450
F0.798131721624983
sVquite
p451
F0.34820660902478673
sVdisrespect
p452
F0.4089534687986153
sVallstar
p453
F0.46137234721396
sVcomplicated
p454
F0.31491181560161613
sVemblematic
p455
F0.4214715966919633
sVquits
p456
F0.46137234721396
sVscarred
p457
F0.4214715966919633
sVfraudulent
p458
F0.40486393411062915
sVtraining
p459
F0.2601702613251532
sVdunne
p460
F0.2964832232007497
sValcon
p461
F0.43437290638448905
sVjarrat
p462
F0.4257288855474377
sVgordon
p463
F0.3698501866941401
sVsaving
p464
F0.38502157290257755
sVpotter
p465
F0.3928390704036094
sVone
p466
F0.0003339759474941733
sVopen
p467
F0.46965856266781386
sVcity
p468
F0.2129333948761831
sVwrath
p469
F0.35527661363614604
sVgyllenhaal
p470
F0.30250303356876823
sVtwenties
p471
F0.39680714182182764
sVrealization
p472
F0.4257288855474377
sVwilliams
p473
F0.29947800323308055
sVproving
p474
F0.45675862374182036
sVreclaims
p475
F0.32130580104235906
sVridiculous
p476
F0.44319243585806456
sVspecialists
p477
F0.45219103750440215
sVinventor
p478
F0.3928390704036094
sVwaylaid
p479
F0.4089534687986153
sVrza
p480
F0.798131721624983
sVrival
p481
F0.2376700210028535
sVstammer
p482
F0.45219103750440215
sVrehab
p483
F0.4214715966919633
sVfuture
p484
F0.2555672391796672
sVwandering
p485
F0.3928390704036094
sVdamned
p486
F0.3588652662991374
sVsal
p487
F0.41308431191779327
sVgeneration
p488
F0.39130990537961946
sVjinkuru
p489
F0.4257288855474377
sVturned
p490
F0.31491181560161613
sVlocations
p491
F0.39680714182182764
sVprestigious
p492
F0.41308431191779327
sVburied
p493
F0.33786452453014154
sVlurking
p494
F0.2964832232007497
sVturner
p495
F0.1313562936251141
sVzoe
p496
F0.3245513141842011
sVwarriors
p497
F0.32130580104235906
sVaside
p498
F0.4257288855474377
sVzoo
p499
F0.3517238474997846
sVnote
p500
F0.4257288855474377
sVjefferson
p501
F0.45219103750440215
sVtake
p502
F0.07054441509613159
sVroadside
p503
F0.3588652662991374
sVdestroy
p504
F0.41308431191779327
sVcoincide
p505
F0.46603267395349496
sVgibney
p506
F0.33448587928484014
sValtered
p507
F0.798131721624983
sVknew
p508
F1.1068069161471847
sVtartarus
p509
F0.46137234721396
sVdrive
p510
F0.44766912712935814
sVmanaging
p511
F0.4214715966919633
sVwind
p512
F0.3698501866941401
sVaxe
p513
F0.41308431191779327
sVlandlady
p514
F0.4008152947695229
sVwalking
p515
F0.4214715966919633
sVfriction
p516
F0.4172568807250437
sVbright
p517
F0.4214715966919633
sVaggressive
p518
F0.44319243585806456
sVimagined
p519
F0.3811713571735518
sVcloak
p520
F0.4089534687986153
sVgoing
p521
F0.29058320705905477
sVcarolina
p522
F0.39680714182182764
sVremastered
p523
F0.4008152947695229
sVatticus
p524
F0.37735964360181623
sVnovels
p525
F0.2848006012385796
sVimps
p526
F0.43002917732064416
sVassistant
p527
F0.4214715966919633
sVartist
p528
F0.38891067969957327
sVhinges
p529
F0.46137234721396
sVabsurdly
p530
F0.44319243585806456
sVpriest
p531
F0.4089534687986153
sVtika
p532
F0.44319243585806456
sVwhere
p533
F0.056771549948180414
sVvision
p534
F0.4214715966919633
sVlynchs
p535
F0.4172568807250437
sVsubversives
p536
F0.4214715966919633
sVaudaciously
p537
F0.4214715966919633
sVgangster
p538
F0.308645070471144
sVwielding
p539
F0.41308431191779327
sVharvey
p540
F0.30555861976643256
sVdormitory
p541
F0.46137234721396
sVscreen
p542
F0.11999623979206718
sVfaded
p543
F0.44766912712935814
sVawards
p544
F0.3517238474997846
sVspark
p545
F0.43437290638448905
sVsuppressed
p546
F0.38502157290257755
sVblame
p547
F0.44766912712935814
sVmans
p548
F0.3370882903229102
sVmany
p549
F0.2621944722165001
sVmillionaire
p550
F0.798131721624983
sVmadcap
p551
F0.43002917732064416
sVjeremie
p552
F0.798131721624983
sVresidency
p553
F0.798131721624983
sVblackwatertype
p554
F0.37735964360181623
sVmann
p555
F0.3811713571735518
sVhomosexuality
p556
F0.34820660902478673
sVbetter
p557
F0.8522890795088827
sVteddy
p558
F0.20236598633916195
sVwest
p559
F0.43294176691420405
sVvacation
p560
F0.40486393411062915
sVcarini
p561
F0.3811713571735518
sVcombined
p562
F0.38891067969957327
sVwants
p563
F0.7796716050028858
sVchan
p564
F0.44664061994742665
sVthousand
p565
F0.41308431191779327
sVformed
p566
F0.3588652662991374
sVphotos
p567
F0.37735964360181623
sVformer
p568
F0.12874230338197434
sVtribal
p569
F0.262798243762781
sVvoldemort
p570
F0.46137234721396
sVbroomhilda
p571
F0.38891067969957327
sVhayek
p572
F0.43437290638448905
sVsituation
p573
F0.4214715966919633
sVspotlight
p574
F0.45675862374182036
sVtwists
p575
F0.3735860471657981
sVreviled
p576
F0.2681341126035925
sVbros
p577
F0.2964832232007497
sVquiet
p578
F0.43437290638448905
sVtechnology
p579
F0.9713434716669774
sVfame
p580
F0.35527661363614604
sVdebilitating
p581
F0.3661516848271987
sVthreatens
p582
F0.34820660902478673
sVperpetually
p583
F0.38502157290257755
sVsurveillance
p584
F0.39680714182182764
sVverifies
p585
F0.798131721624983
sVsingapore
p586
F0.43002917732064416
sVdefy
p587
F0.38502157290257755
sVintrepid
p588
F0.38502157290257755
sVexmarine
p589
F0.3661516848271987
sVtracking
p590
F0.34472454293453886
sVpacino
p591
F0.46137234721396
sVcosts
p592
F0.4089534687986153
sVcomes
p593
F0.1807064475690024
sVtrains
p594
F0.798131721624983
sVsummer
p595
F0.41308431191779327
sVbeing
p596
F0.20647483556694413
sVelysian
p597
F0.40486393411062915
sVrest
p598
F0.3928390704036094
sVcolor
p599
F0.4387605114994839
sVhungers
p600
F0.41308431191779327
sVaround
p601
F0.24265332601203504
sVdark
p602
F0.0450547129434652
sVtraffic
p603
F0.44319243585806456
sVworld
p604
F0.025477819685999638
sVpostal
p605
F0.37735964360181623
sVnimchuk
p606
F0.40486393411062915
sVstranger
p607
F0.3431080584714906
sVshutter
p608
F0.29947800323308055
sVpotion
p609
F0.43002917732064416
sVcristina
p610
F0.4214715966919633
sVwrongly
p611
F0.45219103750440215
sVmemories
p612
F0.3735860471657981
sVnoon
p613
F0.45675862374182036
sVtoto
p614
F0.43002917732064416
sVtots
p615
F0.4008152947695229
sVfrancois
p616
F0.798131721624983
sVrestoring
p617
F1.2614143466615033
sVavengersthe
p618
F0.40486393411062915
sVscientific
p619
F0.44766912712935814
sVpower
p620
F0.10743722385303976
sVintimate
p621
F0.3624901679789267
sViconic
p622
F0.2984913054335413
sVconfides
p623
F0.35527661363614604
sVleadership
p624
F0.4387605114994839
sVthrowback
p625
F0.6943450426582044
sVthailand
p626
F0.6023654040394153
sVstone
p627
F0.35527661363614604
sVhostagetaking
p628
F0.4172568807250437
sVorigins
p629
F0.38891067969957327
sVpackage
p630
F0.38502157290257755
sVindustry
p631
F0.3412772975051935
sVfavorite
p632
F0.23529332079282497
sVact
p633
F0.35527661363614604
sVmean
p634
F0.4008152947695229
sVclarice
p635
F0.4214715966919633
sVimage
p636
F0.3588652662991374
sVcrossers
p637
F0.44319243585806456
sVlively
p638
F0.4089534687986153
sVparties
p639
F0.798131721624983
sVportrayal
p640
F0.24741932980010348
sVhypnotist
p641
F0.4008152947695229
sVburglar
p642
F0.44766912712935814
sVher
p643
F0.002902102975222885
sVhes
p644
F0.4780457886184614
sVglean
p645
F0.45219103750440215
sVhey
p646
F0.37735964360181623
sVdesert
p647
F0.2708425379834268
sVhen
p648
F0.34820660902478673
sVtireless
p649
F0.45675862374182036
sVlang
p650
F0.3928390704036094
sVemergence
p651
F0.44766912712935814
sVcomplete
p652
F0.42373255501901086
sVwits
p653
F0.4089534687986153
sVsocietal
p654
F0.4257288855474377
sVdestinies
p655
F0.4172568807250437
sVsurvived
p656
F0.798131721624983
sVfighter
p657
F0.3624901679789267
sVwith
p658
F7.015610751883953e-12
sVescalates
p659
F0.46137234721396
sVhandsome
p660
F0.4089534687986153
sVabused
p661
F0.4089534687986153
sVpull
p662
F0.40486393411062915
sVrush
p663
F0.12243264951746473
sVoctober
p664
F0.3928390704036094
sVrescuing
p665
F0.38891067969957327
sVagree
p666
F0.45675862374182036
sVdarker
p667
F0.3928390704036094
sVgone
p668
F0.36443472407759947
sVcarver
p669
F0.4214715966919633
sVcitizenship
p670
F0.798131721624983
sVjohnny
p671
F0.23061098370904776
sVai
p672
F0.3811713571735518
sVstealing
p673
F0.2791330692739319
sVam
p674
F0.4008152947695229
sVal
p675
F0.4257288855474377
sVan
p676
F3.527092610674416e-07
sVas
p677
F1.736853328143773e-10
sVat
p678
F0.0016375747891222198
sVgraduate
p679
F0.4214715966919633
sVforgot
p680
F0.46137234721396
sVplanners
p681
F0.46137234721396
sVmimis
p682
F0.4008152947695229
sVlapaglia
p683
F0.4214715966919633
sVmask
p684
F0.44766912712935814
sVhaving
p685
F0.5026822190923337
sVmimic
p686
F0.44766912712935814
sVmast
p687
F0.4008152947695229
sVmass
p688
F0.40486393411062915
sVadam
p689
F0.23061098370904776
sVsensibility
p690
F0.4089534687986153
sVoriginal
p691
F0.25950759597463535
sVtours
p692
F0.3588652662991374
sVnumber
p693
F0.4089534687986153
sVhunting
p694
F0.3278296102870718
sVtv
p695
F0.15272951296415227
sVcheney
p696
F0.4214715966919633
sVchampions
p697
F0.34820660902478673
sVto
p698
F5.365279815761025e-21
sVmidwest
p699
F0.4214715966919633
sVreturned
p700
F0.308645070471144
sVcandie
p701
F0.38891067969957327
sVcandid
p702
F0.41308431191779327
sVmafrouza
p703
F0.43437290638448905
sVshowings
p704
F0.46603267395349496
sVlinguists
p705
F0.34820660902478673
sV17th
p706
F0.45675862374182036
sVheist
p707
F0.44319243585806456
sVlaying
p708
F0.4089534687986153
sVjoined
p709
F0.41308431191779327
sVswirling
p710
F0.3698501866941401
sVharry
p711
F0.262798243762781
sVsmall
p712
F0.7404225690920669
sVmaggie
p713
F1.5043176311161908
sVpretenses
p714
F0.38891067969957327
sVpast
p715
F0.07989767376909676
sVpass
p716
F0.4089534687986153
sVinvestment
p717
F0.41308431191779327
sVrichard
p718
F0.14671136076260793
sVclock
p719
F0.4214715966919633
sVcontrast
p720
F0.38891067969957327
sVfull
p721
F0.41949522946882073
sVescaping
p722
F0.6943450426582044
sVlobbyist
p723
F0.4089534687986153
sVhours
p724
F0.22830487387195728
sVnovember
p725
F0.3811713571735518
sVlegend
p726
F0.5187952397116922
sVharrelson
p727
F0.43437290638448905
sVexperience
p728
F0.135377129755997
sVprior
p729
F0.3624901679789267
sVsocial
p730
F0.23418998189480839
sVaction
p731
F0.11472739416529751
sVmurdering
p732
F0.6285815091742153
sVfollowed
p733
F0.35527661363614604
sVreclaimed
p734
F0.45675862374182036
sVvis
p735
F0.46603267395349496
sVselect
p736
F0.21711566339590585
sVbritannia
p737
F0.3624901679789267
sV6
p738
F0.3928390704036094
sVfirth
p739
F0.4214715966919633
sVmore
p740
F0.0024431304709916462
sVcompany
p741
F0.3928390704036094
sVwaterways
p742
F0.38891067969957327
sVpursuers
p743
F0.43437290638448905
sVchunnam
p744
F0.6943450426582044
sVnonviolent
p745
F0.38891067969957327
sVcunning
p746
F0.44766912712935814
sVkeeping
p747
F0.28767737498846424
sVresources
p748
F0.4257288855474377
sVmorgan
p749
F0.30250303356876823
sVlearn
p750
F0.24741932980010348
sVmale
p751
F0.46137234721396
sVbeautiful
p752
F0.22390706916289368
sVrodriguez
p753
F0.33448587928484014
sVdislikes
p754
F0.37735964360181623
sVstates
p755
F0.41308431191779327
sVstation
p756
F0.44766912712935814
sVlizzani
p757
F0.38891067969957327
sVscar
p758
F0.33448587928484014
sVinformation
p759
F0.1274548803481546
sVclint
p760
F0.39680714182182764
sVimminent
p761
F0.37735964360181623
sVhugh
p762
F0.38891067969957327
sVscifi
p763
F0.23529332079282497
sVcreature
p764
F0.46137234721396
sVplans
p765
F0.15427223531732553
sVdisgraced
p766
F0.4089534687986153
sVsoundtrack
p767
F0.4214715966919633
sVplane
p768
F0.46137234721396
sVwilee
p769
F0.3928390704036094
sVappealed
p770
F0.4089534687986153
sVauthentic
p771
F1.2614143466615033
sVmalevolent
p772
F0.3278296102870718
sVrefuse
p773
F0.3735860471657981
sVimagery
p774
F0.33114102049199173
sVdjango
p775
F0.11072589361943047
sVgreats
p776
F0.41308431191779327
sVtrade
p777
F0.5077598172649839
sVresorts
p778
F0.40486393411062915
sVscott
p779
F0.17758040735253652
sVbroadway
p780
F0.4089534687986153
sVits
p781
F0.012423431740962325
sVrapidly
p782
F0.30250303356876823
sVtermeh
p783
F1.2740284901281183
sVdeeds
p784
F0.4089534687986153
sVisaac
p785
F0.3811713571735518
sVally
p786
F0.33114102049199173
sVwry
p787
F0.46137234721396
sVabandons
p788
F0.798131721624983
sVmotley
p789
F0.34820660902478673
sVolivia
p790
F0.4214715966919633
sVskipper
p791
F0.4089534687986153
sVreticent
p792
F0.46137234721396
sVtruths
p793
F0.4214715966919633
sViwajomo
p794
F0.798131721624983
sVfound
p795
F0.4780457886184614
sVshocking
p796
F0.33628020810790793
sVengland
p797
F0.4214715966919633
sVzohan
p798
F0.43437290638448905
sVbrunetti
p799
F0.40486393411062915
sVclockwork
p800
F0.35527661363614604
sVoperation
p801
F0.39680714182182764
sVernie
p802
F0.4089534687986153
sVbonham
p803
F0.45219103750440215
sVbihar
p804
F0.798131721624983
sVsalute
p805
F0.46137234721396
sVjeremiah
p806
F0.24249568513708142
sVsparked
p807
F0.43002917732064416
sVimagine
p808
F0.798131721624983
sVrises
p809
F0.308645070471144
sVdirector
p810
F0.02472728844250129
sVowners
p811
F0.38891067969957327
sVworkingmiddle
p812
F0.45219103750440215
sVcastle
p813
F0.4214715966919633
sVmajor
p814
F1.0110872075346342
sVrooted
p815
F0.798131721624983
sVcontender
p816
F0.798131721624983
sVbrutally
p817
F0.43437290638448905
sVanonymity
p818
F0.43437290638448905
sVexecutioners
p819
F0.45675862374182036
sVheads
p820
F0.17758040735253652
sValterego
p821
F0.45219103750440215
sVintroduction
p822
F0.3735860471657981
sVthreatening
p823
F0.46137234721396
sVheady
p824
F0.4214715966919633
sVbigscreen
p825
F0.3278296102870718
sVrelationship
p826
F0.26957250147585515
sVsatirical
p827
F0.45219103750440215
sVrain
p828
F0.45675862374182036
sVendlessly
p829
F0.798131721624983
sVgrace
p830
F0.34820660902478673
sVbruckheimer
p831
F0.34820660902478673
sVannihilation
p832
F0.31491181560161613
sVdetermined
p833
F0.48287453395804164
sVmarriage
p834
F0.6304385503474731
sVtoybox
p835
F0.47549502494999996
sVfights
p836
F0.36129586239641925
sVantarctica
p837
F0.38502157290257755
sVballerina
p838
F0.4008152947695229
sValso
p839
F0.13474231848018897
sVteshengs
p840
F0.32130580104235906
sVplay
p841
F0.2708425379834268
sVfirsthand
p842
F0.798131721624983
sVvirus
p843
F0.4089534687986153
sVplan
p844
F0.6497363702811952
sVmarrese
p845
F0.798131721624983
sVsometimes
p846
F0.4257288855474377
sV16mm
p847
F0.798131721624983
sVgold
p848
F0.3588652662991374
sVsangil
p849
F0.39680714182182764
sVdicaprio
p850
F0.24991851494959946
sVoccupation
p851
F0.6943450426582044
sVwrites
p852
F0.33448587928484014
sVwriter
p853
F0.19833890321101263
sVfailed
p854
F0.6593913860944395
sVwayne
p855
F0.3661516848271987
sVcondon
p856
F0.40486393411062915
sVabilityand
p857
F0.41308431191779327
sVquizzes
p858
F0.4214715966919633
sVsunny
p859
F0.798131721624983
sVactress
p860
F0.6727797021675742
sVreporters
p861
F1.2614143466615033
sVenemy
p862
F0.3412772975051935
sVadapts
p863
F0.38502157290257755
sVlavish
p864
F0.34820660902478673
sVharassing
p865
F0.43437290638448905
sVinductees
p866
F0.4214715966919633
sVriver
p867
F0.4214715966919633
sVrumored
p868
F0.30250303356876823
sVinsane
p869
F0.4214715966919633
sVnacho
p870
F0.44319243585806456
sVset
p871
F0.4316231684298931
sVsee
p872
F0.331356287663339
sVsea
p873
F0.3588652662991374
sVspirits
p874
F0.43437290638448905
sVmovie
p875
F0.08746159307794299
sVpickup
p876
F0.3698501866941401
sVmonsters
p877
F0.33114102049199173
sV15th
p878
F0.45219103750440215
sVavailable
p879
F0.5903783324990312
sVlast
p880
F0.10693342855714044
sVinfluential
p881
F0.4926788429323966
sVthor
p882
F0.25499287312478264
sVconnection
p883
F0.46137234721396
sVwhole
p884
F0.2193087509049554
sVblaze
p885
F0.46603267395349496
sVbell
p886
F0.40486393411062915
sVsmashing
p887
F0.3624901679789267
sVallegiance
p888
F0.4257288855474377
sVcommunity
p889
F0.4008152947695229
sVcoincidence
p890
F0.46137234721396
sVagents
p891
F0.46137234721396
sVadaptation
p892
F0.30250303356876823
sVtonto
p893
F0.4172568807250437
sVdevil
p894
F0.4089534687986153
sVacceptance
p895
F0.4089534687986153
sVconvicted
p896
F0.41308431191779327
sVsuburbs
p897
F0.737061254251595
sVproprietor
p898
F0.38891067969957327
sVfirm
p899
F0.3735860471657981
sVfire
p900
F0.35527661363614604
sVmind
p901
F0.5128887043080643
sVwheeler
p902
F0.10217173087311976
sVsentimentality
p903
F0.4089534687986153
sVfund
p904
F0.798131721624983
sVfritz
p905
F0.3928390704036094
sVraces
p906
F0.5963417499990212
sVtowns
p907
F0.45219103750440215
sVuncertain
p908
F0.38891067969957327
sVmid20thcentury
p909
F0.3245513141842011
sVadmire
p910
F0.46603267395349496
sVevaluating
p911
F0.3811713571735518
sVrobin
p912
F0.2935183909687422
sVkingdom
p913
F0.4089534687986153
sVvon
p914
F0.4214715966919633
sVowen
p915
F0.44319243585806456
sVbelmont
p916
F0.798131721624983
sVfelixdider
p917
F0.798131721624983
sVchase
p918
F0.44319243585806456
sVrenounced
p919
F0.4089534687986153
sVcuisine
p920
F0.4214715966919633
sVshorten
p921
F0.34820660902478673
sVyetc
p922
F0.3588652662991374
sVdefeat
p923
F0.5339275813857114
sVlevels
p924
F0.3698501866941401
sVinfamous
p925
F0.2601702613251532
sVrecent
p926
F0.20236598633916195
sVamy
p927
F0.38502157290257755
sVmakes
p928
F0.4861692734356435
sVpicks
p929
F0.44319243585806456
sVperson
p930
F0.6795754567349235
sVapproached
p931
F0.38502157290257755
sVcannes
p932
F0.7218160225335513
sVkelly
p933
F0.2708425379834268
sVrudolph
p934
F0.43437290638448905
sVbuchanan
p935
F0.20203230743742628
sVarrests
p936
F0.38891067969957327
sVplagued
p937
F0.41308431191779327
sVusing
p938
F0.41114727440239124
sVforrest
p939
F0.135377129755997
sVsandal
p940
F0.4172568807250437
sVreaders
p941
F1.2614143466615033
sVsurprises
p942
F0.38502157290257755
sVeager
p943
F0.43437290638448905
sVparents
p944
F0.3026996838426112
sVhomeland
p945
F0.38502157290257755
sVsurprised
p946
F0.798131721624983
sVniece
p947
F0.4214715966919633
sVvictims
p948
F0.4089534687986153
sVformat
p949
F0.4089534687986153
sVcouple
p950
F0.5233024225161356
sVsuffering
p951
F0.737061254251595
sVquest
p952
F0.23529332079282497
sVentrenched
p953
F0.40486393411062915
sVabduct
p954
F0.43437290638448905
sV75th
p955
F0.45219103750440215
sVindividuals
p956
F0.798131721624983
sVtribes
p957
F0.2329403875848967
sVcollective
p958
F0.30555861976643256
sVspins
p959
F0.40486393411062915
sVmethods
p960
F0.41308431191779327
sVspring
p961
F0.3811713571735518
sVlovitz
p962
F0.40486393411062915
sVsight
p963
F0.44319243585806456
sVirresistible
p964
F0.3698501866941401
sVsanity
p965
F0.41308431191779327
sVpryme
p966
F0.33448587928484014
sVbe
p967
F0.0019105132082869033
sVfeelings
p968
F0.3245513141842011
sVcinematic
p969
F0.4089534687986153
sVmeiwais
p970
F0.6285815091742153
sVcarol
p971
F0.3698501866941401
sVby
p972
F5.814176714279988e-08
sVdeserved
p973
F0.46603267395349496
sVhatchet
p974
F0.3588652662991374
sVmelbourne
p975
F0.47074007470049994
sVambush
p976
F0.4089534687986153
sVstuart
p977
F0.27634173858119254
sVhatched
p978
F0.4089534687986153
sVterrorists
p979
F0.45219103750440215
sVhometown
p980
F0.8729049096034581
sVinto
p981
F0.0020145044167799
sVfilmgoing
p982
F0.46603267395349496
sVkatie
p983
F0.3588652662991374
sVarcade
p984
F0.4214715966919633
sVmythic
p985
F0.4089534687986153
sVoccupy
p986
F0.3624901679789267
sVwellc
p987
F0.4214715966919633
sVbridesmaids
p988
F0.3698501866941401
sVopens
p989
F0.24494513650210245
sVjewish
p990
F0.3588652662991374
sVatop
p991
F0.6943450426582044
sVpacific
p992
F0.34820660902478673
sVline
p993
F0.49267884293239644
sVcharmed
p994
F0.38502157290257755
sVnieces
p995
F0.798131721624983
sVup
p996
F0.0023637012363016243
sVus
p997
F0.2378483096553612
sVmaturity
p998
F0.2964832232007497
sVuk
p999
F0.41308431191779327
sVcharmer
p1000
F0.40486393411062915
sVcontinuously
p1001
F0.38502157290257755
sVchad
p1002
F0.40486393411062915
sVdefined
p1003
F0.43437290638448905
sVinfluence
p1004
F0.2819525952261938
sVthugs
p1005
F0.40486393411062915
sVcodes
p1006
F0.34820660902478673
sVretrace
p1007
F0.46137234721396
sVedwards
p1008
F0.30250303356876823
sVelements
p1009
F0.4089534687986153
sVfansc
p1010
F0.798131721624983
sVenergetic
p1011
F0.44766912712935814
sVago
p1012
F0.3043692025487271
sVlane
p1013
F0.4089534687986153
sVland
p1014
F0.20856043996661022
sVwalken
p1015
F0.4008152947695229
sVpedestrians
p1016
F0.44319243585806456
sVgeraldine
p1017
F0.45219103750440215
sVsawyer
p1018
F0.4008152947695229
sVsummit
p1019
F0.43002917732064416
sVfresh
p1020
F0.4214715966919633
sVmenace
p1021
F0.4387605114994839
sVrescues
p1022
F0.44319243585806456
sVhampton
p1023
F0.43437290638448905
sVcode
p1024
F0.30250303356876823
sVamiss
p1025
F0.45675862374182036
sVcenters
p1026
F0.6864398552878015
sVluxuries
p1027
F0.44319243585806456
sVlongstanding
p1028
F0.798131721624983
sVyoung
p1029
F0.035258941961041734
sVsend
p1030
F0.4089534687986153
sVsent
p1031
F0.3571824730684552
sVcontinues
p1032
F0.33786452453014154
sVcontinued
p1033
F0.41308431191779327
sVmagic
p1034
F0.2400707282857106
sVevo
p1035
F0.4257288855474377
sVexperiencing
p1036
F0.45219103750440215
sVmarry
p1037
F0.6285815091742153
sVeve
p1038
F0.38891067969957327
sVtry
p1039
F0.40486393411062915
sVrace
p1040
F0.15740458659047601
sVleonardo
p1041
F0.24991851494959946
sVthespian
p1042
F0.4008152947695229
sVvisuals
p1043
F0.4089534687986153
sVrecruitment
p1044
F0.40486393411062915
sVvideo
p1045
F0.32130580104235906
sVode
p1046
F0.4214715966919633
sVgraduating
p1047
F0.43437290638448905
sVlaurence
p1048
F0.40486393411062915
sVindian
p1049
F0.3698501866941401
sVtwins
p1050
F0.4008152947695229
sVbird
p1051
F0.4214715966919633
sVled
p1052
F0.4329417669142036
sVlee
p1053
F0.2669034668077771
sVgathered
p1054
F0.39680714182182764
sVleo
p1055
F0.23061098370904776
sVlet
p1056
F0.32130580104235906
sVinvented
p1057
F0.4214715966919633
sVgreat
p1058
F0.3018080413887699
sVengage
p1059
F0.43002917732064416
sVinvolved
p1060
F0.942399349855076
sVcasino
p1061
F0.2654527714775566
sVderby
p1062
F0.4008152947695229
sVresidents
p1063
F0.3698501866941401
sVstephanie
p1064
F0.43437290638448905
sVinvolves
p1065
F0.33448587928484014
sVthats
p1066
F0.5679096274763905
sVdreamgirls
p1067
F0.40486393411062915
sVsgt
p1068
F0.4172568807250437
sVtools
p1069
F0.3698501866941401
sVfrancis
p1070
F0.4387605114994839
sVrico
p1071
F0.4089534687986153
sVillegal
p1072
F0.3661516848271987
sVnext
p1073
F0.38527186658344903
sVzimmer
p1074
F0.4089534687986153
sVmend
p1075
F0.45675862374182036
sVbaby
p1076
F0.3588652662991374
sVdepiction
p1077
F0.3928390704036094
sVanimals
p1078
F0.2935183909687422
sVthis
p1079
F2.5629202974222e-05
sVasenath
p1080
F0.4008152947695229
sVchallenge
p1081
F0.2964832232007497
sVinsists
p1082
F0.3588652662991374
sVbent
p1083
F0.40486393411062915
sVhigh
p1084
F0.21725680530168695
sVnears
p1085
F0.3698501866941401
sVmartys
p1086
F0.43437290638448905
sVreynolds
p1087
F0.2601702613251532
sVdestroying
p1088
F0.4089534687986153
sVanimal
p1089
F0.4089534687986153
sVkravitz
p1090
F0.38502157290257755
sVcomedy
p1091
F0.0996689432909983
sVratha
p1092
F0.798131721624983
sVsingular
p1093
F0.4214715966919633
sVdaring
p1094
F0.40486393411062915
sVclarkson
p1095
F0.4214715966919633
sV22nd
p1096
F2.3610452712653816
sVrobot
p1097
F0.45498064552006656
sVrealizes
p1098
F0.602365404039415
sVallow
p1099
F0.5852934275686057
sVpyramids
p1100
F0.45675862374182036
sVhouston
p1101
F0.4257288855474377
sVholds
p1102
F0.308645070471144
sVproducer
p1103
F0.37559012642247314
sVproduces
p1104
F0.3811713571735518
sVmove
p1105
F0.41308431191779327
sVproduced
p1106
F0.17058303075702122
sVdirects
p1107
F0.09056347656298513
sVrogans
p1108
F0.3811713571735518
sVwarren
p1109
F0.31809274303193547
sVperfect
p1110
F0.798131721624983
sVdecay
p1111
F0.47549502494999996
sVchosen
p1112
F0.3811713571735518
sVshola
p1113
F0.4172568807250437
sVthieves
p1114
F0.3735860471657981
sVlawlessness
p1115
F0.46603267395349496
sV2011
p1116
F0.3278296102870718
sV2010
p1117
F0.45219103750440215
sV2013
p1118
F0.3588652662991374
sV2012
p1119
F0.43437290638448905
sVdisrupted
p1120
F0.41308431191779327
sVsnake
p1121
F0.40486393411062915
sVlegendary
p1122
F0.1202424766817844
sVcage
p1123
F0.39680714182182764
sVrealize
p1124
F0.2601702613251532
sVliberia
p1125
F0.33448587928484014
sVinstallment
p1126
F0.22376160688190533
sVdelightful
p1127
F0.39680714182182764
sVtruth
p1128
F0.15583054072457125
sVbeneath
p1129
F0.38502157290257755
sVglasses
p1130
F0.37735964360181623
sVenigmatic
p1131
F0.3517238474997846
sVsuitors
p1132
F0.3698501866941401
sVsociety
p1133
F0.308645070471144
sVshannon
p1134
F0.3698501866941401
sVmakoto
p1135
F0.3624901679789267
sVconnors
p1136
F0.4089534687986153
sVmafias
p1137
F0.3811713571735518
sVhilarious
p1138
F0.2376700210028535
sVburke
p1139
F0.41308431191779327
sVmendax
p1140
F0.4214715966919633
sVdubbed
p1141
F0.39680714182182764
sVlinnea
p1142
F0.41308431191779327
sVcould
p1143
F0.13268312487385264
sVscars
p1144
F0.4089534687986153
sVdavid
p1145
F0.10217173087311976
sVlength
p1146
F0.3698501866941401
sVserenity
p1147
F0.35527661363614604
sVdavis
p1148
F0.2260218251332377
sVblown
p1149
F0.44766912712935814
sVscene
p1150
F0.6864398552878016
sVowner
p1151
F0.6933735911997998
sVblows
p1152
F0.798131721624983
sVying
p1153
F0.179374148840946
sVyippies
p1154
F0.38502157290257755
sVerstwhile
p1155
F0.798131721624983
sVstart
p1156
F0.20856043996661022
sVfestival
p1157
F0.9423993498550751
sVsystem
p1158
F0.38502157290257755
sVsergeant
p1159
F0.798131721624983
sVexhilarating
p1160
F0.44766912712935814
sVsongwriters
p1161
F0.3588652662991374
sVadopts
p1162
F0.33448587928484014
sVaccompany
p1163
F0.4257288855474377
sVrockwell
p1164
F0.43437290638448905
sVelite
p1165
F0.33786452453014154
sVsteel
p1166
F0.4089534687986153
sVroberts
p1167
F0.4214715966919633
sVcollecting
p1168
F0.798131721624983
sVfalse
p1169
F0.38891067969957327
sVtonight
p1170
F0.4089534687986153
sVplushjoin
p1171
F0.4008152947695229
sVblockbuster
p1172
F0.30250303356876823
sVdocuments
p1173
F0.4214715966919633
sVdoraemon
p1174
F7.563190631455659
sVashore
p1175
F0.3588652662991374
sVlinda
p1176
F0.798131721624983
sVlily
p1177
F0.4214715966919633
sVworldwide
p1178
F0.116432231474003
sVdoug
p1179
F0.3624901679789267
sVreignite
p1180
F0.3811713571735518
sVface
p1181
F0.36079037683682336
sVpainting
p1182
F0.3117626974456
sVfact
p1183
F0.45219103750440215
sVbring
p1184
F0.09581821699611054
sVbrine
p1185
F0.4089534687986153
sVcammila
p1186
F0.3698501866941401
sVmarkovitz
p1187
F0.798131721624983
sVasylum
p1188
F0.3517238474997846
sVbrink
p1189
F0.30250303356876823
sVdecade
p1190
F0.5728435056454773
sVjay
p1191
F0.33114102049199173
sVshould
p1192
F0.45219103750440215
sVjam
p1193
F0.44766912712935814
sVhighstakes
p1194
F0.44766912712935814
sVhope
p1195
F0.41114727440239124
sVjaa
p1196
F0.798131721624983
sVmeans
p1197
F0.21279506169432733
sVfamiliar
p1198
F0.3517238474997846
sVcranky
p1199
F0.44319243585806456
sVsmash
p1200
F0.43002917732064416
sVh
p1201
F0.35527661363614604
sVreid
p1202
F0.4172568807250437
sVkerrigan
p1203
F0.4089534687986153
sVohio
p1204
F0.46137234721396
sVmotorcycle
p1205
F0.43437290638448905
sVmysteries
p1206
F0.37735964360181623
sVwire
p1207
F0.3245513141842011
sVdestiny
p1208
F0.5903783324990309
sVposse
p1209
F0.4089534687986153
sVunravel
p1210
F0.35527661363614604
sVnominees
p1211
F0.38891067969957327
sVyoull
p1212
F0.798131721624983
sVends
p1213
F0.46137234721396
sVexplosive
p1214
F0.38502157290257755
sVifans
p1215
F0.45219103750440215
sVhistorians
p1216
F1.2740284901281183
sVabsentee
p1217
F0.43002917732064416
sVmarty
p1218
F0.3278296102870718
sVchallengers
p1219
F0.4257288855474377
sVinvited
p1220
F0.7291070934682333
sVgalore
p1221
F0.41308431191779327
sVfollowup
p1222
F0.44319243585806456
sVfigures
p1223
F0.6145958616869859
sVglory
p1224
F0.31491181560161613
sVco
p1225
F0.35527661363614604
sVoutsider
p1226
F0.35527661363614604
sVdazzling
p1227
F0.6943450426582044
sVgenetic
p1228
F0.4089534687986153
sVroller
p1229
F0.3735860471657981
sVpsychotherapist
p1230
F0.38502157290257755
sVrecounts
p1231
F0.3624901679789267
sVbaums
p1232
F0.38502157290257755
sVtheyve
p1233
F0.4029654436417834
sVtoothless
p1234
F0.41308431191779327
sVarchival
p1235
F0.31809274303193547
sVsalma
p1236
F0.43437290638448905
sVvi
p1237
F0.28767737498846424
sVsite
p1238
F0.14557140675050637
sVpitt
p1239
F0.4214715966919633
sVmockingbird
p1240
F0.3412772975051935
sVsits
p1241
F0.43002917732064416
sVterrorist
p1242
F0.3909969670001793
sVmoviemakers
p1243
F0.38891067969957327
sVromance
p1244
F0.2654527714775566
sVmatthew
p1245
F0.3117626974456
sVpainstaking
p1246
F0.3928390704036094
sVdigging
p1247
F0.3588652662991374
sVchronicling
p1248
F0.39680714182182764
sVterrorism
p1249
F0.43002917732064416
sVglaring
p1250
F0.44319243585806456
sVtwoday
p1251
F0.40486393411062915
sVinfinity
p1252
F0.3811713571735518
sVbale
p1253
F0.32130580104235906
sVupon
p1254
F0.0417698648366026
sVbals
p1255
F0.798131721624983
sVidentity
p1256
F0.4257288855474377
sVofa
p1257
F0.43437290638448905
sVoff
p1258
F0.10961863468323617
sVneorealism
p1259
F0.38891067969957327
sVdrawing
p1260
F0.24494513650210245
sVnewest
p1261
F0.44766912712935814
sVless
p1262
F0.44766912712935814
sVmoments
p1263
F0.34820660902478673
sVrooms
p1264
F0.44766912712935814
sVpaul
p1265
F0.1606005372823957
sVwei
p1266
F0.32130580104235906
sVarrest
p1267
F0.2848006012385796
sVvillagers
p1268
F0.3928390704036094
sVgovernment
p1269
F0.19052355905227492
sVfamously
p1270
F0.34820660902478673
sVfairies
p1271
F0.43002917732064416
sVfive
p1272
F0.37735964360181623
sVdescendant
p1273
F0.737061254251595
sVemma
p1274
F0.4257288855474377
sVparasite
p1275
F0.44766912712935814
sVbecome
p1276
F0.17674769620588135
sVpoor
p1277
F0.43002917732064416
sVguaranty
p1278
F0.798131721624983
sVfootage
p1279
F0.1963555141789025
sVthief
p1280
F0.33448587928484014
sVscatters
p1281
F0.4089534687986153
sVhallways
p1282
F0.798131721624983
sVdoes
p1283
F0.8534831796012124
sVpassion
p1284
F0.41308431191779327
sVpilfer
p1285
F0.45675862374182036
sVblowing
p1286
F0.39680714182182764
sVpressure
p1287
F0.4280126818373845
sVsingin
p1288
F0.45675862374182036
sVr
p1289
F0.17580460327901115
sVhiding
p1290
F0.38502157290257755
sVgained
p1291
F0.308645070471144
sVsister
p1292
F0.31809274303193547
sVlifestyle
p1293
F0.38891067969957327
sVputs
p1294
F0.4257288855474377
sVangeles
p1295
F0.46137234721396
sVdocumentary
p1296
F0.19955246247529343
sValliance
p1297
F0.4257288855474377
sVletters
p1298
F0.6023654040394152
sVdisaffected
p1299
F0.4214715966919633
sVhubert
p1300
F0.798131721624983
sVausten
p1301
F0.37735964360181623
sVhousing
p1302
F0.4214715966919633
sVpairing
p1303
F0.46137234721396
sVannette
p1304
F0.4089534687986153
sVflynn
p1305
F0.38502157290257755
sVrhythmic
p1306
F0.4089534687986153
sVcosmopolitan
p1307
F0.798131721624983
sVinterest
p1308
F0.40486393411062915
sVdelivery
p1309
F0.44319243585806456
sVserafino
p1310
F0.40486393411062915
sVaweinspiring
p1311
F0.40486393411062915
sVofficial
p1312
F0.09354587490966895
sVexcitement
p1313
F0.40486393411062915
sVmonument
p1314
F0.38502157290257755
sVproblem
p1315
F0.44319243585806456
sVyuki
p1316
F0.46137234721396
sVsibling
p1317
F0.6285815091742153
sVprogrammer
p1318
F0.3811713571735518
sVrenowned
p1319
F0.3811713571735518
sVvariety
p1320
F0.6943450426582044
sVdeadly
p1321
F0.20647483556694413
sVwitness
p1322
F0.4089534687986153
sVnobita
p1323
F2.3610452712653816
sVprofiteer
p1324
F0.39680714182182764
sVmonday
p1325
F0.4214715966919633
sVelitists
p1326
F0.4089534687986153
sVtreelike
p1327
F0.4387605114994839
sVchance
p1328
F0.6593913860944396
sVlauda
p1329
F0.3588652662991374
sVinspiration
p1330
F0.2935183909687422
sVsearches
p1331
F0.798131721624983
sVrule
p1332
F0.9642300765280474
sVvillainous
p1333
F0.4089534687986153
sVrural
p1334
F0.41308431191779327
sVsuicidal
p1335
F0.44319243585806456
sVmagnetic
p1336
F0.3245513141842011
sVsaves
p1337
F0.3278296102870718
sVoldest
p1338
F0.46137234721396
sVintegrity
p1339
F0.6285815091742153
sVebbed
p1340
F0.46137234721396
sVrelationships
p1341
F0.4214715966919633
sVinvaders
p1342
F0.4172568807250437
sVedward
p1343
F0.20441008721127468
sVworth
p1344
F0.4214715966919633
sVblistering
p1345
F0.4089534687986153
sVsuccumbing
p1346
F0.4214715966919633
sVtickets
p1347
F0.43437290638448905
sVbewildered
p1348
F0.38502157290257755
sVsamurai
p1349
F0.2708425379834268
sVundercover
p1350
F0.5614439198831319
sVmonotonous
p1351
F0.44319243585806456
sVmidsummer
p1352
F0.43002917732064416
sVdepraved
p1353
F0.798131721624983
sVmachines
p1354
F0.3245513141842011
sVcoed
p1355
F0.41308431191779327
sVincompatible
p1356
F0.3698501866941401
sVrockies
p1357
F0.4257288855474377
sVtolo
p1358
F0.23529332079282497
sVabove
p1359
F0.3811713571735518
sVconsisting
p1360
F0.4089534687986153
sVcressida
p1361
F0.3588652662991374
sVtold
p1362
F0.38891067969957327
sVfestive
p1363
F0.4214715966919633
sVpursuit
p1364
F0.5393207892784961
sVcelebration
p1365
F0.45219103750440215
sVbalance
p1366
F0.4008152947695229
sVdaughter
p1367
F0.48663145792703627
sVemployees
p1368
F0.38891067969957327
sVcomanagers
p1369
F0.3698501866941401
sVbunker
p1370
F0.37735964360181623
sVglittering
p1371
F0.4214715966919633
sVspooky
p1372
F0.4214715966919633
sVhighly
p1373
F0.4329417669142039
sVromantically
p1374
F0.4008152947695229
sVtotal
p1375
F0.43437290638448905
sVabsolution
p1376
F0.2819525952261938
sVsarah
p1377
F0.262798243762781
sVplot
p1378
F0.2524429443935348
sVinglourious
p1379
F0.3588652662991374
sVhahn
p1380
F0.45675862374182036
sVaward
p1381
F0.07333177081605186
sVmouawads
p1382
F0.43002917732064416
sVoverrun
p1383
F0.46603267395349496
sVpulitzer
p1384
F0.37735964360181623
sV1992
p1385
F0.43002917732064416
sVword
p1386
F0.4089534687986153
sVwork
p1387
F0.07557646747657357
sVrefusing
p1388
F0.46137234721396
sVtheories
p1389
F0.32130580104235906
sVera
p1390
F0.3698501866941401
sValready
p1391
F0.31491181560161613
sVindie
p1392
F0.3588652662991374
sVindia
p1393
F0.7943891174097746
sVfanciful
p1394
F0.43002917732064416
sVrecovery
p1395
F0.43437290638448905
sVinhabitants
p1396
F0.33448587928484014
sVegyptian
p1397
F0.4172568807250437
sVmorbid
p1398
F0.41308431191779327
sVinterview
p1399
F0.31491181560161613
sVordinary
p1400
F0.4257288855474377
sVbeach
p1401
F0.2329403875848967
sVlam
p1402
F0.44319243585806456
sVtransforming
p1403
F0.46137234721396
sVearlier
p1404
F0.38891067969957327
sVlab
p1405
F0.45219103750440215
sVcustoms
p1406
F0.38891067969957327
sVlaw
p1407
F0.2848006012385796
sVlas
p1408
F0.37735964360181623
sVschneider
p1409
F0.43437290638448905
sVmecamorph
p1410
F0.43437290638448905
sVgreek
p1411
F0.38502157290257755
sVgreen
p1412
F0.24249568513708142
sVorder
p1413
F0.27804651613110404
sVgreed
p1414
F0.33114102049199173
sVoffice
p1415
F0.48775205450307263
sVinnovative
p1416
F0.48892412395905527
sVadolescence
p1417
F0.4214715966919633
sVbefallen
p1418
F0.798131721624983
sVdenver
p1419
F0.22152399081308627
sVproduction
p1420
F0.11297407776699364
sVversus
p1421
F0.6943450426582044
sVeventually
p1422
F0.2601702613251532
sVthem
p1423
F0.007642069040744877
sVaffected
p1424
F0.4008152947695229
sVsafe
p1425
F0.3735860471657981
sVcuties
p1426
F0.41308431191779327
sVbane
p1427
F0.4008152947695229
sVband
p1428
F0.23529332079282497
sVrepulsive
p1429
F0.41308431191779327
sVthey
p1430
F0.00038443459822808503
sVbank
p1431
F0.31660114057003247
sVrocky
p1432
F0.20856043996661022
sVclassified
p1433
F0.34472454293453886
sVl
p1434
F0.29947800323308055
sVworldclass
p1435
F0.43002917732064416
sVcostello
p1436
F0.4089534687986153
sVschemes
p1437
F0.40486393411062915
sVevolve
p1438
F0.38502157290257755
sVdesolated
p1439
F0.4089534687986153
sVgatherings
p1440
F0.45219103750440215
sVmaniacs
p1441
F0.41308431191779327
sVjulianne
p1442
F0.30250303356876823
sVnetwork
p1443
F0.19833890321101263
sVcameras
p1444
F0.43002917732064416
sVforty
p1445
F0.31809274303193547
sVtrainers
p1446
F0.45675862374182036
sVstrangers
p1447
F0.34820660902478673
sVdaniel
p1448
F0.23061098370904776
sVmarigold
p1449
F0.2735783211953806
sVforth
p1450
F0.38502157290257755
sVwismitanan
p1451
F0.798131721624983
sVlawless
p1452
F0.4257288855474377
sVcertified
p1453
F0.4008152947695229
sVdelves
p1454
F0.798131721624983
sVmaniac
p1455
F0.3412772975051935
sVcreates
p1456
F0.3588652662991374
sVprogramme
p1457
F0.46603267395349496
sVanother
p1458
F0.248746595500508
sVcomic
p1459
F0.3811713571735518
sVtimothy
p1460
F0.45219103750440215
sVjohn
p1461
F0.03416386223235589
sVdogs
p1462
F0.22376160688190533
sValbert
p1463
F0.29947800323308055
sVrejected
p1464
F0.6593913860944397
sVtoronto
p1465
F0.46603267395349496
sVchases
p1466
F0.3117626974456
sVtarget
p1467
F0.3811713571735518
sVunexplainable
p1468
F0.4008152947695229
sVscenes
p1469
F1.000976335459287
sVhistorical
p1470
F0.2935183909687422
sVpowers
p1471
F0.721816022533551
sVnavigate
p1472
F0.3698501866941401
sVassange
p1473
F0.39680714182182764
sVpricklepants
p1474
F0.4008152947695229
sVenchanted
p1475
F0.4214715966919633
sVmanner
p1476
F0.41308431191779327
sVforced
p1477
F0.6475956673249972
sVrealm
p1478
F0.38502157290257755
sVluxury
p1479
F0.3928390704036094
sVforces
p1480
F0.13674457551110808
sVmutants
p1481
F0.45675862374182036
sVbruce
p1482
F0.33448587928484014
sViceland
p1483
F0.3117626974456
sVgermany
p1484
F0.7439109207919951
sVkhon
p1485
F0.798131721624983
sVgrave
p1486
F0.4089534687986153
sVnewcomers
p1487
F0.6943450426582044
sVaunt
p1488
F0.45219103750440215
sVdeeply
p1489
F0.798131721624983
sVdecidedly
p1490
F0.41308431191779327
sVlewis
p1491
F0.5447684740186828
sVprecarious
p1492
F0.4214715966919633
sVanniversary
p1493
F0.12491852822922633
sVlewin
p1494
F0.40486393411062915
sVjust
p1495
F0.05765262365507597
sVsentence
p1496
F0.41308431191779327
sVbelfort
p1497
F0.24991851494959946
sVindepth
p1498
F0.4257288855474377
sVdo
p1499
F0.2892206024837174
sVde
p1500
F0.798131721624983
sVdc
p1501
F0.3811713571735518
sVleisure
p1502
F0.3928390704036094
sVda
p1503
F0.44766912712935814
sVhaunted
p1504
F0.31809274303193547
sVbarbies
p1505
F0.4008152947695229
sVxiaogang
p1506
F0.798131721624983
sVrebirth
p1507
F0.44766912712935814
sVruns
p1508
F0.6145958616869863
sVgunslinging
p1509
F0.4257288855474377
sVcovering
p1510
F0.38502157290257755
sVemo
p1511
F0.3588652662991374
sVstorythe
p1512
F0.4214715966919633
sVgears
p1513
F0.38502157290257755
sVjourneys
p1514
F0.4214715966919633
sVsteal
p1515
F0.3698501866941401
sVsteam
p1516
F0.4257288855474377
sVtechniques
p1517
F0.38891067969957327
sVdraws
p1518
F0.3735860471657981
sVaway
p1519
F0.4089534687986153
sVcooperation
p1520
F1.2614143466615033
sVdrawn
p1521
F0.6727797021675744
sVencounters
p1522
F0.23529332079282497
sVcastandcrew
p1523
F0.4257288855474377
sVwe
p1524
F0.15899453190957175
sVwb
p1525
F0.38891067969957327
sVclues
p1526
F0.798131721624983
sVcaledonia
p1527
F0.3624901679789267
sVreceived
p1528
F0.43002917732064416
sVlehane
p1529
F0.4214715966919633
sVreceives
p1530
F0.43437290638448905
sVbrad
p1531
F0.4214715966919633
sVexceeds
p1532
F0.38502157290257755
sVpeacefully
p1533
F0.41308431191779327
sVingenious
p1534
F0.45675862374182036
sVroyal
p1535
F0.27634173858119254
sVtony
p1536
F0.49267884293239633
sVspeak
p1537
F0.46603267395349496
sVscarecrow
p1538
F0.43002917732064416
sVwarmth
p1539
F0.3811713571735518
sVduties
p1540
F0.2681341126035925
sVfamilies
p1541
F0.43437290638448905
sVattacked
p1542
F0.3588652662991374
sVconcerning
p1543
F0.43002917732064416
sVfest
p1544
F0.4214715966919633
sVhas
p1545
F0.005499772724074343
sVunbossed
p1546
F0.4172568807250437
sVaim
p1547
F0.4257288855474377
sVproperty
p1548
F0.25499287312478264
sVlaunched
p1549
F0.38891067969957327
sVcylinder
p1550
F0.3245513141842011
sVgermanys
p1551
F0.34820660902478673
sVsting
p1552
F0.39680714182182764
sVexile
p1553
F0.3661516848271987
sVwarthog
p1554
F0.4089534687986153
sVperform
p1555
F0.33448587928484014
sVsyncs
p1556
F0.46137234721396
sVsheltered
p1557
F0.4257288855474377
sVavoids
p1558
F0.4214715966919633
sVmonarch
p1559
F0.3278296102870718
sVindependent
p1560
F0.38891067969957327
sVmobconnected
p1561
F0.40486393411062915
sVnic
p1562
F0.4089534687986153
sVquentin
p1563
F0.3698501866941401
sVlyndon
p1564
F0.38502157290257755
sVhand
p1565
F0.3245513141842011
sVnorwegian
p1566
F0.44766912712935814
sVmountainous
p1567
F0.32130580104235906
sVanimations
p1568
F0.46137234721396
sVhans
p1569
F0.308645070471144
sVkept
p1570
F0.33448587928484014
sV1979
p1571
F0.38891067969957327
sV1975
p1572
F0.46137234721396
sV1974
p1573
F0.798131721624983
sV1973
p1574
F0.46137234721396
sVkyle
p1575
F0.4257288855474377
sVthe
p1576
F2.7892977953236387e-60
sVmusical
p1577
F0.21066711107738406
sVthanks
p1578
F0.3928390704036094
sVvictim
p1579
F0.798131721624983
sVunique
p1580
F0.6638574469817209
sVjosh
p1581
F0.33114102049199173
sVoccupants
p1582
F0.38502157290257755
sVweiss
p1583
F0.2524429443935348
sVwright
p1584
F0.2149445067619468
sVspread
p1585
F0.3928390704036094
sVtransformed
p1586
F0.666051905145899
sVboard
p1587
F0.43002917732064416
sVviking
p1588
F0.3245513141842011
sVmaya
p1589
F0.43437290638448905
sVlcs
p1590
F0.798131721624983
sVarab
p1591
F0.3928390704036094
sVsmashhit
p1592
F0.798131721624983
sVcape
p1593
F0.4008152947695229
sVinsurgent
p1594
F1.0317195453191208
sVcooler
p1595
F0.33448587928484014
sVtheyre
p1596
F0.29058320705905477
sVgandhi
p1597
F0.798131721624983
sVnight
p1598
F0.12618033154467306
sVsecurity
p1599
F0.31491181560161613
sVwebb
p1600
F0.40486393411062915
sVembroiled
p1601
F0.46137234721396
sVhonored
p1602
F0.4089534687986153
sVborn
p1603
F0.38891067969957327
sVproductions
p1604
F0.4257288855474377
sVabramoff
p1605
F0.33114102049199173
sVhumor
p1606
F0.5077598172649841
sVfilming
p1607
F0.798131721624983
sVasking
p1608
F0.38502157290257755
sVpeek
p1609
F0.44319243585806456
sVbiopic
p1610
F0.4214715966919633
sVposh
p1611
F0.41308431191779327
sVpsychopathetic
p1612
F0.43437290638448905
sVplc
p1613
F0.798131721624983
sVindecency
p1614
F0.34820660902478673
sVprisoners
p1615
F0.29947800323308055
sVprofession
p1616
F0.3624901679789267
sVformidable
p1617
F0.4257288855474377
sVstumble
p1618
F0.37735964360181623
sVstrangely
p1619
F0.2935183909687422
sVdeception
p1620
F0.4214715966919633
sVfight
p1621
F0.6913653898765535
sVway
p1622
F0.1137392517147157
sVwax
p1623
F0.3245513141842011
sVwas
p1624
F0.02145810305256092
sVwar
p1625
F0.04985559983386315
sVbecoming
p1626
F0.6084499030701163
sVmysterious
p1627
F0.10320376855870683
sVtrue
p1628
F0.1955618103351882
sVflirtatious
p1629
F0.44319243585806456
sVcrystal
p1630
F0.24249568513708142
sVemotional
p1631
F0.40296544364178327
sVinquiring
p1632
F0.4089534687986153
sVstranded
p1633
F0.4214715966919633
sVragtag
p1634
F0.4387605114994839
sVmoore
p1635
F0.2524429443935348
sVcomputing
p1636
F0.34820660902478673
sVevidence
p1637
F0.7404225690920673
sVexpertise
p1638
F0.3735860471657981
sVoctavius
p1639
F0.4089534687986153
sVenlist
p1640
F0.2964832232007497
sVarchive
p1641
F1.175720601875922
sVsophisticatedand
p1642
F0.3811713571735518
sVstake
p1643
F0.3588652662991374
sVreality
p1644
F0.38891067969957327
sVunwilling
p1645
F0.798131721624983
sVbrothers
p1646
F0.2921420227108257
sVwelcome
p1647
F0.41308431191779327
sVthornes
p1648
F0.32130580104235906
sVpolite
p1649
F0.44766912712935814
sVmullins
p1650
F0.3698501866941401
sVtogether
p1651
F0.04219178266323495
sVloyal
p1652
F0.6398068025360487
sVclassmate
p1653
F0.2524429443935348
sVpaige
p1654
F0.4214715966919633
sVsongs
p1655
F0.15120221783451074
sVdance
p1656
F0.17058303075702122
sVkeep
p1657
F0.2708425379834268
sVglobal
p1658
F0.12943293351021878
sVfoulmouthed
p1659
F0.3698501866941401
sVbattle
p1660
F0.1320609463424331
sVdevoted
p1661
F0.3811713571735518
sVhonoring
p1662
F0.37735964360181623
sVflash
p1663
F0.43002917732064416
sVterror
p1664
F0.33114102049199173
sVbrown
p1665
F0.3117626974456
sVedgerton
p1666
F0.3278296102870718
sVvegas
p1667
F0.30555861976643256
sVanonymous
p1668
F0.3928390704036094
sVtrouble
p1669
F0.4214715966919633
sVperceived
p1670
F0.6285815091742153
sVevaded
p1671
F0.4257288855474377
sVpresented
p1672
F0.43294176691420394
sV12th
p1673
F0.45675862374182036
sVbikes
p1674
F0.44319243585806456
sVguy
p1675
F0.2681341126035925
sVlloyd
p1676
F0.44766912712935814
sVupper
p1677
F0.4089534687986153
sVbrave
p1678
F0.44766912712935814
sVmurnau
p1679
F0.798131721624983
sVdiscover
p1680
F0.2964832232007497
sVaffiliation
p1681
F0.4172568807250437
sVcost
p1682
F0.798131721624983
sVrough
p1683
F0.45219103750440215
sVunravels
p1684
F0.37735964360181623
sVappear
p1685
F0.4257288855474377
sVhavoc
p1686
F0.798131721624983
sVshared
p1687
F0.4214715966919633
sVsupporting
p1688
F0.3245513141842011
sVunsure
p1689
F0.38502157290257755
sVvocalists
p1690
F0.45219103750440215
sVmuslim
p1691
F0.43437290638448905
sVteaches
p1692
F0.19833890321101263
sVteacher
p1693
F0.30250303356876823
sVchange
p1694
F0.47842839740322135
sVbuck
p1695
F0.4089534687986153
sVtrial
p1696
F0.4172568807250437
sVfranklin
p1697
F0.38502157290257755
sVhershell
p1698
F0.41308431191779327
sVplotted
p1699
F0.32130580104235906
sVchurchill
p1700
F0.45219103750440215
sVretired
p1701
F0.6270746471655811
sVtranscend
p1702
F0.4257288855474377
sVlifealtering
p1703
F0.38891067969957327
sVbullock
p1704
F0.2848006012385796
sVmemorable
p1705
F0.38502157290257755
sVillumination
p1706
F0.38502157290257755
sVfbi
p1707
F0.2708425379834268
sVlizzy
p1708
F0.4089534687986153
sVmarket
p1709
F0.4214715966919633
sVangelo
p1710
F0.40486393411062915
sVprove
p1711
F0.2889604080366083
sVangela
p1712
F0.4172568807250437
sVlive
p1713
F0.15740458659047601
sVangels
p1714
F0.35527661363614604
sVcommissioner
p1715
F0.44766912712935814
sVabrams
p1716
F0.46603267395349496
sVimrie
p1717
F0.3698501866941401
sVenvelope
p1718
F0.44319243585806456
sVdefeats
p1719
F0.38502157290257755
sVcat
p1720
F0.4089534687986153
sVsunaina
p1721
F0.3698501866941401
sVlabeled
p1722
F0.43437290638448905
sVincidents
p1723
F0.6145958616869857
sVcan
p1724
F0.04487933300702389
sVheart
p1725
F0.27634173858119254
sVdedicated
p1726
F0.2819525952261938
sV1980s
p1727
F0.30250303356876823
sVposing
p1728
F0.798131721624983
sVchic
p1729
F0.4089534687986153
sVfortunately
p1730
F0.40486393411062915
sVspreads
p1731
F0.4387605114994839
sVspecies
p1732
F0.46603267395349496
sVwrite
p1733
F0.5786298036822998
sVdehumanizing
p1734
F0.38502157290257755
sVnonstop
p1735
F0.44766912712935814
sVsacrifice
p1736
F0.7364718115840748
sVuse
p1737
F0.3698501866941401
sVsouthern
p1738
F0.2791330692739319
sVbrazen
p1739
F0.4172568807250437
sVosborne
p1740
F0.34820660902478673
sVheroes
p1741
F0.30250303356876823
sVflourish
p1742
F0.44766912712935814
sVremember
p1743
F0.41308431191779327
sVgrandson
p1744
F0.46603267395349496
sVundubbed
p1745
F0.6943450426582044
sVmeerkat
p1746
F0.4089534687986153
sVmichel
p1747
F0.38891067969957327
sVserving
p1748
F0.2935183909687422
sVindeed
p1749
F0.3735860471657981
sVended
p1750
F0.34820660902478673
sVnefarious
p1751
F0.4089534687986153
sVstill
p1752
F0.25756855871190165
sVbirds
p1753
F0.4089534687986153
sVno2
p1754
F0.798131721624983
sVculmination
p1755
F0.4257288855474377
sVselves
p1756
F0.46603267395349496
sVbirthdays
p1757
F0.4214715966919633
sVenno
p1758
F0.798131721624983
sVforms
p1759
F0.2935183909687422
sVwindow
p1760
F0.3928390704036094
sVdisparate
p1761
F0.4387605114994839
sValist
p1762
F0.4214715966919633
sV1954
p1763
F0.3735860471657981
sVwealthy
p1764
F0.43002917732064416
sVnot
p1765
F0.034908103808450386
sVnow
p1766
F0.09433971082070175
sV1959
p1767
F0.798131721624983
sVhall
p1768
F0.3928390704036094
sVwont
p1769
F0.3928390704036094
sVlies
p1770
F0.3278296102870718
sVservant
p1771
F0.798131721624983
sVjames
p1772
F0.16222276493171284
sVwong
p1773
F0.2654527714775566
sVentirely
p1774
F0.48065830153109884
sVen
p1775
F0.4089534687986153
sVchallenged
p1776
F0.4008152947695229
sVcairo
p1777
F0.6933735911997998
sVdirecting
p1778
F0.4172568807250437
sVsnapshots
p1779
F0.4214715966919633
sVchallenges
p1780
F0.4976553969014105
sVeverpersistent
p1781
F0.4387605114994839
sVfires
p1782
F0.4214715966919633
sVex
p1783
F0.3811713571735518
sVyear
p1784
F0.48287453395804164
sVhappen
p1785
F0.798131721624983
sVcalling
p1786
F0.34820660902478673
sValbum
p1787
F0.2329403875848967
sVwatanabe
p1788
F0.39680714182182764
sVspace
p1789
F0.33786452453014154
sVantiwar
p1790
F0.38502157290257755
sVthirst
p1791
F0.4257288855474377
sVlooking
p1792
F0.45219103750440215
sVwhiteley
p1793
F0.38502157290257755
sVreceiving
p1794
F0.47074007470049994
sVshows
p1795
F0.29058320705905477
sVundead
p1796
F0.4089534687986153
sVhyung
p1797
F0.3811713571735518
sVcars
p1798
F0.44319243585806456
sVsneak
p1799
F0.44319243585806456
sVrebel
p1800
F0.38502157290257755
sVcarl
p1801
F0.38502157290257755
sVcare
p1802
F0.505783311841653
sVgroot
p1803
F0.4387605114994839
sVtransition
p1804
F0.43437290638448905
sVbritish
p1805
F0.4546849136291829
sVsprawling
p1806
F0.4089534687986153
sVtennis
p1807
F0.38502157290257755
sVimpossibly
p1808
F0.3588652662991374
sVstriking
p1809
F0.4089534687986153
sVyourself
p1810
F0.3811713571735518
sVdirectly
p1811
F0.721816022533551
sVimpossible
p1812
F0.24494513650210245
sVring
p1813
F0.8116540115577677
sVways
p1814
F0.34472454293453886
sVsilent
p1815
F0.4089534687986153
sVcaught
p1816
F0.48287453395804164
sVbreed
p1817
F0.3624901679789267
sVtragic
p1818
F0.47804578861846153
sVspecters
p1819
F0.43437290638448905
sVfo
p1820
F0.6943450426582044
sVfriend
p1821
F0.08679504587852638
sVthat
p1822
F2.6473423931243203e-06
sVpittsburgh
p1823
F0.4257288855474377
sVinmates
p1824
F0.3245513141842011
sVjunkyard
p1825
F0.43437290638448905
sVpeck
p1826
F0.25756855871190165
sVthan
p1827
F0.1048054533288534
sVtelevision
p1828
F0.30250303356876823
sVtransferred
p1829
F0.38502157290257755
sVaccesses
p1830
F0.4214715966919633
sVsublime
p1831
F0.3588652662991374
sVcraig
p1832
F0.29058320705905477
sV13th
p1833
F0.44766912712935814
sVloki
p1834
F0.38891067969957327
sVanger
p1835
F0.38502157290257755
sVbreakfast
p1836
F0.3698501866941401
sVrecover
p1837
F0.3588652662991374
sVveteran
p1838
F0.2735783211953806
sVdecadence
p1839
F0.46603267395349496
sVequipment
p1840
F0.3245513141842011
sVbegin
p1841
F0.3644347240775997
sVprice
p1842
F0.44766912712935814
sVamerica
p1843
F0.16551654416050693
sVmichelle
p1844
F0.4214715966919633
sVforever
p1845
F0.41530027717413237
sVparlays
p1846
F0.40486393411062915
sVegg
p1847
F0.34820660902478673
sVsidekick
p1848
F0.45675862374182036
sVimplications
p1849
F0.4089534687986153
sVmrs
p1850
F0.3698501866941401
sVwingshing
p1851
F0.6285815091742153
sVprofessional
p1852
F0.43002917732064416
sVgerman
p1853
F0.308645070471144
sVclavey
p1854
F0.4257288855474377
sVfifty
p1855
F0.37735964360181623
sVdiscovered
p1856
F0.3698501866941401
sVfletcher
p1857
F0.3412772975051935
sV25milliondollar
p1858
F0.44766912712935814
sVreallife
p1859
F0.4461941802621706
sVfifth
p1860
F0.22376160688190533
sVground
p1861
F0.3928390704036094
sVadolf
p1862
F0.798131721624983
sVtitle
p1863
F0.27634173858119254
sVbreadcrumbs
p1864
F0.798131721624983
sVarquette
p1865
F0.4214715966919633
sVonly
p1866
F0.11086990113250283
sVoftenfrustrated
p1867
F0.798131721624983
sVsamuel
p1868
F0.38891067969957327
sVtruly
p1869
F0.33114102049199173
sV12yearold
p1870
F0.35527661363614604
sVvideogaming
p1871
F0.3624901679789267
sVcelebrate
p1872
F0.34820660902478673
sVhomegrown
p1873
F0.43002917732064416
sVultraviolent
p1874
F0.38502157290257755
sV20person
p1875
F0.4257288855474377
sVhusband
p1876
F0.7218160225335513
sVburst
p1877
F0.43002917732064416
sVphysically
p1878
F0.43002917732064416
sVincarcerated
p1879
F0.4214715966919633
sVanchored
p1880
F0.46137234721396
sVelected
p1881
F0.4089534687986153
sVsuspects
p1882
F0.3661516848271987
sVpaletta
p1883
F0.40486393411062915
sVunapologetically
p1884
F0.41308431191779327
sVincite
p1885
F0.3928390704036094
sVmendelsohn
p1886
F0.2964832232007497
sV3
p1887
F0.23061098370904776
sVbetween
p1888
F0.0629026701431592
sVdeceptivethan
p1889
F0.3811713571735518
sVnotice
p1890
F0.45675862374182036
sVantics
p1891
F0.40486393411062915
sVguntoting
p1892
F0.4387605114994839
sVstyle
p1893
F0.6943450426582044
sVcoolheaded
p1894
F0.40486393411062915
sVperceptions
p1895
F0.4172568807250437
sVtalented
p1896
F0.4214715966919633
sVreluctantly
p1897
F0.25499287312478264
sVevict
p1898
F0.41308431191779327
sVnearby
p1899
F0.41308431191779327
sVmadness
p1900
F0.4214715966919633
sVinexplicable
p1901
F0.46137234721396
sVlearning
p1902
F0.3588652662991374
sVcharismatic
p1903
F0.4257288855474377
sVlioness
p1904
F0.45675862374182036
sVshim
p1905
F0.29058320705905477
sVcarey
p1906
F0.33448587928484014
sVsisterhood
p1907
F0.4257288855474377
sVelvis
p1908
F0.38502157290257755
sVwounds
p1909
F0.4089534687986153
sVfourtime
p1910
F0.44319243585806456
sVcountless
p1911
F0.3278296102870718
sVdeveloping
p1912
F0.5460775540791047
sVthese
p1913
F0.2737561681780897
sVchinatown
p1914
F0.3624901679789267
sVcrump
p1915
F0.798131721624983
sVdregr
p1916
F0.3624901679789267
sVcoolest
p1917
F0.46137234721396
sV100th
p1918
F0.45219103750440215
sVdrug
p1919
F0.3698501866941401
sVheels
p1920
F0.41308431191779327
sVsomebody
p1921
F0.3698501866941401
sVnorthward
p1922
F0.43437290638448905
sVdevelop
p1923
F0.43002917732064416
sVmedia
p1924
F0.15583054072457125
sVceo
p1925
F0.2964832232007497
sVfollowers
p1926
F0.41308431191779327
sVnoble
p1927
F0.44766912712935814
sVfinish
p1928
F0.42432622575261125
sVcenturies
p1929
F0.33448587928484014
sVinvestigates
p1930
F0.4008152947695229
sVfavorites
p1931
F0.4008152947695229
sVringside
p1932
F0.38502157290257755
sVmentally
p1933
F0.3811713571735518
sVtheater
p1934
F0.29947800323308055
sVdaytona
p1935
F0.3412772975051935
sVcharges
p1936
F0.27634173858119254
sVtaxi
p1937
F0.6285815091742153
sVentertainments
p1938
F0.38502157290257755
sVdancers
p1939
F0.44766912712935814
sVfoot
p1940
F0.4089534687986153
sVspeed
p1941
F0.3928390704036094
sVdueling
p1942
F0.4214715966919633
sVdeath
p1943
F0.24510436970912663
sVthinking
p1944
F0.4214715966919633
sVsmugglers
p1945
F0.30250303356876823
sVtreatment
p1946
F0.29058320705905477
sVrepublic
p1947
F0.38891067969957327
sVreal
p1948
F0.2526070517532499
sVspectacular
p1949
F0.32024718664181834
sVonscreen
p1950
F0.6943450426582044
sVrules
p1951
F0.4257288855474377
sVgekkoukan
p1952
F0.46137234721396
sVchildstar
p1953
F0.4214715966919633
sVearle
p1954
F0.4214715966919633
sVearly
p1955
F0.11999623979206718
sVlistening
p1956
F0.46137234721396
sVculprits
p1957
F0.798131721624983
sVstunt
p1958
F0.798131721624983
sVrebecca
p1959
F0.22830487387195728
sVrear
p1960
F0.3928390704036094
sVfortune
p1961
F0.2964832232007497
sVunrequited
p1962
F0.43437290638448905
sVt
p1963
F0.38502157290257755
sVruths
p1964
F0.4214715966919633
sVabidjan
p1965
F0.798131721624983
sVunraveling
p1966
F0.4214715966919633
sVwillis
p1967
F0.4172568807250437
sVguillaume
p1968
F0.38891067969957327
sVbusiness
p1969
F0.1606005372823957
sVuneasy
p1970
F0.4387605114994839
sV1930
p1971
F0.32130580104235906
sVinnocence
p1972
F0.6285815091742153
sV1939
p1973
F0.41308431191779327
sVexciting
p1974
F0.38891067969957327
sVthrow
p1975
F0.41308431191779327
sVrawdon
p1976
F0.798131721624983
sVpaints
p1977
F0.3117626974456
sVgump
p1978
F0.2964832232007497
sVwolf
p1979
F0.2708425379834268
sVgreatly
p1980
F0.798131721624983
sVunderway
p1981
F0.2964832232007497
sVassassin
p1982
F0.798131721624983
sVactionpacked
p1983
F0.4387605114994839
sVyouc
p1984
F0.798131721624983
sVtransfers
p1985
F0.3811713571735518
sVyour
p1986
F0.5367918028911438
sVgungho
p1987
F0.4089534687986153
sVprepare
p1988
F0.3661516848271987
sVarea
p1989
F0.38891067969957327
sVassumed
p1990
F0.43437290638448905
sVlos
p1991
F0.46137234721396
sVstealth
p1992
F0.3928390704036094
sVlow
p1993
F0.33448587928484014
sVstars
p1994
F0.059242357388525464
sVneyman
p1995
F0.41308431191779327
sVfaulted
p1996
F0.44319243585806456
sVminnythree
p1997
F0.4257288855474377
sVsmuggling
p1998
F0.38891067969957327
sVpitched
p1999
F0.44766912712935814
sVtrying
p2000
F0.308645070471144
sVlionsgate
p2001
F0.179374148840946
sVembedded
p2002
F0.46137234721396
sVbening
p2003
F0.4089534687986153
sVcharlatan
p2004
F0.43437290638448905
sVarabs
p2005
F0.43437290638448905
sVmoved
p2006
F0.4387605114994839
sVquandary
p2007
F0.46137234721396
sVcoproduction
p2008
F0.3811713571735518
sVmoves
p2009
F0.37183422515824877
sVhospitals
p2010
F0.4214715966919633
sVexfighterturned
p2011
F0.3661516848271987
sVyou
p2012
F0.04885858704982952
sVforcing
p2013
F1.1765439355977894
sVgaining
p2014
F0.5852934275686056
sVnudie
p2015
F0.41308431191779327
sVwields
p2016
F0.4089534687986153
sVcoverage
p2017
F0.45675862374182036
sVbuilding
p2018
F0.31491181560161613
sVrestored
p2019
F0.3588652662991374
sVsince
p2020
F0.44766912712935814
sVnewburgh
p2021
F0.43002917732064416
sVreligious
p2022
F0.43437290638448905
sVcarpet
p2023
F0.308645070471144
sVzuckerman
p2024
F0.40486393411062915
sV1930s
p2025
F0.45219103750440215
sVpledges
p2026
F0.3928390704036094
sVvery
p2027
F0.14898826746303795
sVtoughtalking
p2028
F0.43437290638448905
sVhorror
p2029
F0.33114102049199173
sVrogue
p2030
F0.3588652662991374
sVdecide
p2031
F0.7145978623082159
sVlaser
p2032
F0.4089534687986153
sVstreets
p2033
F0.4877520545030724
sVbefriends
p2034
F0.34472454293453886
sVwitnesses
p2035
F0.9713434716669774
sVtooeys
p2036
F0.4172568807250437
sVjedi
p2037
F0.28767737498846424
sVturmoil
p2038
F0.46137234721396
sViran
p2039
F1.2740284901281183
sVrecruits
p2040
F0.28767737498846424
sVanswers
p2041
F0.29947800323308055
sVtracks
p2042
F0.45219103750440215
sVglasgows
p2043
F0.3588652662991374
sVexcess
p2044
F0.39680714182182764
sVstrong
p2045
F0.40486393411062915
sVconviction
p2046
F0.34820660902478673
sVinspired
p2047
F0.262798243762781
sVsoldier
p2048
F0.43437290638448905
sVmiamis
p2049
F0.30250303356876823
sVarent
p2050
F0.4089534687986153
sVinspires
p2051
F0.45219103750440215
sVfamily
p2052
F0.041333554080186186
sVdonnie
p2053
F0.6943450426582044
sVlagos
p2054
F0.798131721624983
sVaimed
p2055
F0.46137234721396
sVtoys
p2056
F0.37735964360181623
sVsimba
p2057
F0.33448587928484014
sVspawned
p2058
F0.4089534687986153
sVhoning
p2059
F0.38891067969957327
sVkhan
p2060
F1.2740284901281183
sVtakes
p2061
F0.07812780030784403
sVkham
p2062
F5.181945526038136
sVrevelation
p2063
F0.4089534687986153
sVstrauss
p2064
F0.4089534687986153
sVbash
p2065
F0.41308431191779327
sVspitznagel
p2066
F0.262798243762781
sVtaken
p2067
F0.47804578861846125
sVstorys
p2068
F0.4089534687986153
sVstraightup
p2069
F0.44766912712935814
sVinstrumental
p2070
F0.4008152947695229
sVproducing
p2071
F0.38891067969957327
sVronan
p2072
F0.38502157290257755
sVcoalition
p2073
F0.32130580104235906
sVnina
p2074
F0.4387605114994839
sVtitillated
p2075
F0.41308431191779327
sVhistory
p2076
F0.0660089511854793
sVtriads
p2077
F0.3117626974456
sVpushes
p2078
F0.4089534687986153
sVcowl
p2079
F0.44766912712935814
sVterrible
p2080
F0.30250303356876823
sVpushed
p2081
F0.31809274303193547
sVironfisted
p2082
F0.41308431191779327
sVimpoverished
p2083
F0.44319243585806456
sVmenus
p2084
F0.4214715966919633
sVunearthly
p2085
F0.4214715966919633
sVkolchak
p2086
F0.2964832232007497
sVschultz
p2087
F0.23529332079282497
sVrecording
p2088
F0.3245513141842011
sVfu
p2089
F0.2995228806249548
sVrudo
p2090
F0.32130580104235906
sVlong
p2091
F0.18861832346175217
sVtries
p2092
F0.45461678837275526
sVinvasion
p2093
F0.46137234721396
sVhooliganism
p2094
F0.47074007470049994
sVa
p2095
F1.661714232960504e-26
sVlogues
p2096
F0.40486393411062915
sVmorphing
p2097
F0.4214715966919633
sVovernight
p2098
F0.44766912712935814
sVdream
p2099
F1.3271517823460635
sVremnants
p2100
F0.32130580104235906
sVcasablanca
p2101
F0.24741932980010348
sVreservoir
p2102
F0.2735783211953806
sVsoon
p2103
F0.061814517068181
sVcyclists
p2104
F0.44319243585806456
sVlasers
p2105
F0.4089534687986153
sVcommitted
p2106
F0.33448587928484014
sVhelm
p2107
F0.3735860471657981
sVhell
p2108
F0.40486393411062915
sVlimelight
p2109
F0.4008152947695229
sVactually
p2110
F0.18673214022713464
sVabsence
p2111
F0.798131721624983
sV15year
p2112
F0.41308431191779327
sVsystems
p2113
F0.3928390704036094
sVevening
p2114
F0.4008152947695229
sVfood
p2115
F0.31809274303193547
sVonehour
p2116
F0.3811713571735518
sVanticipated
p2117
F0.6943450426582044
sVcommodore
p2118
F0.4214715966919633
sVsweeping
p2119
F0.44766912712935814
sVbryan
p2120
F0.45675862374182036
sVimprisoned
p2121
F0.4089534687986153
sVfully
p2122
F0.3245513141842011
sVstopped
p2123
F0.4257288855474377
sVpaula
p2124
F0.798131721624983
sVifc
p2125
F0.4926788429323965
sVcandyland
p2126
F0.38891067969957327
sVfairy
p2127
F0.34820660902478673
sVflashbacks
p2128
F0.43437290638448905
sVjaws
p2129
F0.46137234721396
sVhaley
p2130
F0.3517238474997846
sVwasikowska
p2131
F0.34472454293453886
sVbeyond
p2132
F0.3245513141842011
sVevent
p2133
F0.04526697914258823
sVrobert
p2134
F0.16551654416050693
sVsurrounded
p2135
F0.46137234721396
sVchineseamerican
p2136
F0.4214715966919633
sVdouglas
p2137
F0.3698501866941401
sVsafety
p2138
F0.3278296102870718
sV7
p2139
F0.46603267395349496
sVass
p2140
F0.3811713571735518
sVdirt
p2141
F0.4257288855474377
sVput
p2142
F0.6270746471655809
sVheroic
p2143
F0.45219103750440215
sVrevolutionary
p2144
F0.4214715966919633
sVlaunch
p2145
F0.798131721624983
sVbrazenly
p2146
F0.38891067969957327
sVlawler
p2147
F0.41308431191779327
sVterribly
p2148
F0.6462694975111605
sVamerican
p2149
F0.1803363903743307
sVkung
p2150
F0.2995228806249548
sV1875
p2151
F0.41308431191779327
sVcinemagoers
p2152
F0.3928390704036094
sVultracompetitive
p2153
F0.3811713571735518
sVmiss
p2154
F0.262798243762781
sVtranscendent
p2155
F0.4214715966919633
sVscheme
p2156
F0.44319243585806456
sVmerciless
p2157
F0.27634173858119254
sVselling
p2158
F0.45675862374182036
sVtrapped
p2159
F0.3735860471657981
sVjamie
p2160
F0.38891067969957327
sV1919
p2161
F0.4089534687986153
sVjordan
p2162
F0.39680714182182764
sVncm
p2163
F0.2193087509049554
sVinventing
p2164
F0.41308431191779327
sValbums
p2165
F0.43002917732064416
sV1916
p2166
F0.43437290638448905
sVgrew
p2167
F0.3735860471657981
sVkindly
p2168
F0.35527661363614604
sVperformers
p2169
F0.798131721624983
sVgrey
p2170
F0.39680714182182764
sVtoward
p2171
F0.29947800323308055
sVbuilder
p2172
F0.6270746471655813
sValongside
p2173
F0.24991851494959946
sVcomrades
p2174
F0.46137234721396
sVsentences
p2175
F0.43002917732064416
sVblissful
p2176
F0.38502157290257755
sVlie
p2177
F0.3412772975051935
sVofficers
p2178
F0.28767737498846424
sVmachado
p2179
F0.3117626974456
sVoffscreen
p2180
F0.4257288855474377
sVtowards
p2181
F0.7291070934682333
sVhires
p2182
F0.798131721624983
sVsets
p2183
F0.15899453190957175
sVeaten
p2184
F0.3928390704036094
sVunbeknownst
p2185
F0.4214715966919633
sVmach
p2186
F0.308645070471144
sVperformances
p2187
F0.38502157290257755
sVclear
p2188
F0.3811713571735518
sVpopularity
p2189
F0.37735964360181623
sVblend
p2190
F0.4257288855474377
sVphenomenon
p2191
F0.21066711107738406
sVstunned
p2192
F0.798131721624983
sVbooze
p2193
F0.41308431191779327
sVwinstead
p2194
F0.44766912712935814
sVstalker
p2195
F0.33114102049199173
sVcoaster
p2196
F0.3735860471657981
sVnorthern
p2197
F0.37735964360181623
sVjustice
p2198
F0.43002917732064416
sVakira
p2199
F0.30250303356876823
sVpretty
p2200
F0.2935183909687422
sVcircle
p2201
F0.4089534687986153
sVrotterdam
p2202
F0.798131721624983
sVmeanwhile
p2203
F0.3555075708022192
sVfamous
p2204
F0.15740458659047601
sVcapsule
p2205
F0.4214715966919633
sVduring
p2206
F0.1423538866365977
sVsacrificed
p2207
F0.44766912712935814
sVsacrifices
p2208
F0.37735964360181623
sVselfdefense
p2209
F0.35527661363614604
sVwithdrawal
p2210
F0.38891067969957327
sVseventeen
p2211
F0.40486393411062915
sVculture
p2212
F0.30555861976643256
sVclose
p2213
F0.23529332079282497
sVembarking
p2214
F0.46137234721396
sVpictures
p2215
F0.21179722177230134
sVwon
p2216
F0.37735964360181623
sVprobably
p2217
F1.2614143466615033
sVstatistically
p2218
F0.47549502494999996
sVnotoriously
p2219
F0.46137234721396
sVmissing
p2220
F0.7184312783674638
sVunstoppable
p2221
F0.3661516848271987
sVinvisible
p2222
F0.4214715966919633
sVabruptly
p2223
F0.4008152947695229
sVboth
p2224
F0.14870544438048366
sVsecrets
p2225
F0.07259845310789134
sVkeaton
p2226
F0.4214715966919633
sVsensitive
p2227
F0.4214715966919633
sVbuzz
p2228
F0.4008152947695229
sVprotector
p2229
F1.2740284901281183
sVexperimental
p2230
F0.45219103750440215
sVhackers
p2231
F0.45219103750440215
sVheaded
p2232
F0.44766912712935814
sVhauntings
p2233
F0.4214715966919633
sVsteele
p2234
F0.3117626974456
sVmanners
p2235
F0.4214715966919633
sVwhatever
p2236
F0.40486393411062915
sVferrera
p2237
F0.3588652662991374
sVlikes
p2238
F0.6943450426582044
sVmission
p2239
F0.9772380451226125
sVlangs
p2240
F0.3928390704036094
sVstamp
p2241
F0.37735964360181623
sVhelp
p2242
F0.03759877796950504
sVmaintenance
p2243
F0.2524429443935348
sVthreaten
p2244
F0.3811713571735518
sVterritory
p2245
F0.3811713571735518
sVsanders
p2246
F0.3588652662991374
sVlived
p2247
F0.737061254251595
sVanthony
p2248
F0.262798243762781
sVlives
p2249
F0.0919689886210059
sVimax
p2250
F0.4089534687986153
sVlook
p2251
F0.28767737498846424
sVbattling
p2252
F0.3661516848271987
sVimpersonating
p2253
F0.798131721624983
sVwhile
p2254
F0.09603404550381635
sVsmart
p2255
F0.798131721624983
sVguido
p2256
F0.37735964360181623
sVloot
p2257
F0.4089534687986153
sVanimated
p2258
F0.21066711107738406
sVmitchell
p2259
F0.38502157290257755
sVguide
p2260
F0.4089534687986153
sVuncompromising
p2261
F0.38502157290257755
sVrulers
p2262
F0.3588652662991374
sVready
p2263
F0.19439195903711348
sVriotous
p2264
F0.40486393411062915
sVgrand
p2265
F0.6933735911997998
sVshan
p2266
F0.6943450426582044
sVused
p2267
F0.3928390704036094
sVclassmates
p2268
F0.46137234721396
sVyoungsters
p2269
F0.41308431191779327
sVuses
p2270
F1.2614143466615033
sVcityscape
p2271
F0.3928390704036094
sVanticomingofage
p2272
F0.46137234721396
sVfaceoff
p2273
F0.43437290638448905
sVdatabase
p2274
F0.35527661363614604
sVgrind
p2275
F0.41308431191779327
sVroyalty
p2276
F0.4008152947695229
sVchronicles
p2277
F0.44766912712935814
sVmobs
p2278
F0.3698501866941401
sVscouring
p2279
F0.798131721624983
sVexploits
p2280
F0.4008152947695229
sVteenage
p2281
F0.24625912954550294
sVtaiwan
p2282
F0.32130580104235906
sV1800s
p2283
F0.4214715966919633
sVarmie
p2284
F0.4172568807250437
sVremaining
p2285
F0.46137234721396
sVelves
p2286
F0.3412772975051935
sVmarch
p2287
F0.38502157290257755
sVselfdestructive
p2288
F0.3928390704036094
sVfinalize
p2289
F0.4257288855474377
sVshowing
p2290
F0.6660519051458986
sVgenetically
p2291
F0.308645070471144
sVgame
p2292
F0.2819525952261938
sVwings
p2293
F0.4387605114994839
sVparamilitary
p2294
F0.37735964360181623
sVintoxication
p2295
F0.3698501866941401
sVvibrant
p2296
F0.43002917732064416
sVtranslated
p2297
F0.37735964360181623
sVparade
p2298
F0.38502157290257755
sVbrakes
p2299
F0.44319243585806456
sVfathers
p2300
F0.5963417499990211
sVcreation
p2301
F0.2400707282857106
sVsome
p2302
F0.05855616426762413
sVundress
p2303
F0.41308431191779327
sVphilandering
p2304
F0.798131721624983
sVadmitted
p2305
F0.4214715966919633
sVsavage
p2306
F0.3624901679789267
sVdilapidated
p2307
F0.38891067969957327
sVforgets
p2308
F0.38502157290257755
sVcashonly
p2309
F0.44319243585806456
sVfoley
p2310
F0.40486393411062915
sVeating
p2311
F0.4089534687986153
sVnelle
p2312
F0.37735964360181623
sVstep
p2313
F0.3107355249513699
sVlasts
p2314
F0.798131721624983
sVplots
p2315
F0.798131721624983
sVraspberry
p2316
F0.31491181560161613
sVabroad
p2317
F0.4172568807250437
sVtroops
p2318
F0.38891067969957327
sVfaith
p2319
F0.37735964360181623
sVwouldnt
p2320
F0.43437290638448905
sVtracing
p2321
F0.4172568807250437
sVariel
p2322
F0.44766912712935814
sVclassics
p2323
F1.052562364416477
sVblock
p2324
F0.44766912712935814
sVcaretaker
p2325
F1.7343698977076278
sVwithin
p2326
F0.627074647165581
sVpentagon
p2327
F0.35527661363614604
sVreworked
p2328
F0.4214715966919633
sVbehaving
p2329
F0.3811713571735518
sVinstitut
p2330
F0.798131721624983
sVimaginations
p2331
F0.40486393411062915
sVplacing
p2332
F0.798131721624983
sVeons
p2333
F0.44766912712935814
sVhimself
p2334
F0.6687882379454111
sVkoichi
p2335
F0.39680714182182764
sVlarry
p2336
F0.4008152947695229
sValive
p2337
F0.38891067969957327
sVrussian
p2338
F0.39680714182182764
sVceremonies
p2339
F0.46603267395349496
sVchelsea
p2340
F0.4008152947695229
sVordered
p2341
F0.6593913860944397
sVadults
p2342
F0.4089534687986153
sVselfhelp
p2343
F0.4214715966919633
sVbasterds
p2344
F0.3588652662991374
sV1895
p2345
F0.32130580104235906
sVrupert
p2346
F0.38502157290257755
sVpsychopath
p2347
F0.3928390704036094
sVfears
p2348
F0.2848006012385796
sVapplication
p2349
F0.798131721624983
sVpoliticians
p2350
F0.6527974722334957
sVmanhattan
p2351
F0.34472454293453886
sVdraw
p2352
F0.798131721624983
sVdrax
p2353
F0.4387605114994839
sVvisits
p2354
F0.4008152947695229
sVfrances
p2355
F0.3624901679789267
sVwilliam
p2356
F0.2935183909687422
sVdrag
p2357
F0.47549502494999996
sVevan
p2358
F0.3412772975051935
sVcomplicating
p2359
F0.4214715966919633
sVfbis
p2360
F0.4172568807250437
sVouting
p2361
F0.38502157290257755
sVyoutube
p2362
F0.3624901679789267
sVorbit
p2363
F0.43437290638448905
sVcrimethriller
p2364
F0.43002917732064416
sVliterally
p2365
F0.31491181560161613
sVhumiliates
p2366
F0.35527661363614604
sVbackin
p2367
F0.46137234721396
sVwatergate
p2368
F0.38502157290257755
sVpearce
p2369
F0.31491181560161613
sVgo
p2370
F0.21027768270270278
sVpsycho
p2371
F0.41308431191779327
sVkate
p2372
F0.34472454293453886
sVsuperpowered
p2373
F0.798131721624983
sVwizard
p2374
F0.31491181560161613
sVculinary
p2375
F0.4214715966919633
sVsuite
p2376
F0.3588652662991374
sVfriendly
p2377
F0.44766912712935814
sVrelocated
p2378
F0.46137234721396
sVunabridged
p2379
F0.44766912712935814
sVmurderous
p2380
F0.33786452453014154
sVnorthups
p2381
F0.4214715966919633
sVfacebook
p2382
F0.4214715966919633
sVenslaved
p2383
F0.4172568807250437
sVhomicidal
p2384
F0.3811713571735518
sVstiff
p2385
F0.43002917732064416
sVmichael
p2386
F0.6121115561160844
sVryan
p2387
F0.43002917732064416
sVdeformed
p2388
F0.3588652662991374
sVdormonts
p2389
F0.4257288855474377
sVsultana
p2390
F0.798131721624983
sVpunishing
p2391
F0.38502157290257755
sVboots
p2392
F0.4089534687986153
sVardent
p2393
F0.41308431191779327
sVhonors
p2394
F0.4257288855474377
sVplays
p2395
F0.3661516848271987
sVcolonel
p2396
F0.41308431191779327
sVcell
p2397
F0.45675862374182036
sVconning
p2398
F0.40486393411062915
sVexperiment
p2399
F0.2601702613251532
sVvolatile
p2400
F0.38502157290257755
sVcollins
p2401
F0.4387605114994839
sVfollowing
p2402
F0.2791330692739319
sVscythe
p2403
F0.46137234721396
sVfocused
p2404
F0.3117626974456
sVkidnapped
p2405
F0.2681341126035925
sVnathans
p2406
F0.3811713571735518
sVparanoid
p2407
F0.3811713571735518
sVproducts
p2408
F0.38891067969957327
sVbillys
p2409
F0.43437290638448905
sVgene
p2410
F0.45675862374182036
sVsalvation
p2411
F0.41308431191779327
sVclark
p2412
F0.4008152947695229
sVdanger
p2413
F0.45219103750440215
sVwin
p2414
F0.3811713571735518
sVclout
p2415
F0.40486393411062915
sVkilik
p2416
F0.4387605114994839
sVwiz
p2417
F0.4214715966919633
sVstrapped
p2418
F0.4008152947695229
sVremains
p2419
F0.2935183909687422
sVcamera
p2420
F0.6334087345106882
sVvehicle
p2421
F0.44319243585806456
sVjonathan
p2422
F0.31491181560161613
sVreflects
p2423
F0.3245513141842011
sVindiepop
p2424
F0.3588652662991374
sVstarted
p2425
F0.24494513650210245
sVbecomes
p2426
F0.14388528043286106
sVrnominated
p2427
F0.19833890321101263
sV70th
p2428
F0.37735964360181623
sVagent
p2429
F0.2980736891244013
sVrivalry
p2430
F0.3588652662991374
sVstafford
p2431
F0.4214715966919633
sVride
p2432
F0.33114102049199173
sVmeet
p2433
F0.3588652662991374
sVcontrol
p2434
F0.40486393411062915
sVescapes
p2435
F0.34820660902478673
sVatone
p2436
F0.4089534687986153
sVdaku
p2437
F0.798131721624983
sVdocumenting
p2438
F0.39680714182182764
sVsought
p2439
F0.43437290638448905
sVinvincibility
p2440
F0.4089534687986153
sVlocated
p2441
F0.4257288855474377
sVronald
p2442
F0.3698501866941401
sVbelongings
p2443
F0.4089534687986153
sVengineering
p2444
F0.4089534687986153
sVdiabolical
p2445
F0.6933735911997996
sVoctavia
p2446
F0.37735964360181623
sVcrazed
p2447
F0.44319243585806456
sVagenda
p2448
F0.44766912712935814
sVrovi
p2449
F0.007553173441494688
sVunbreakable
p2450
F0.31491181560161613
sVkristen
p2451
F0.44319243585806456
sVsperm
p2452
F0.33448587928484014
sVincluding
p2453
F0.18673214022713464
sVcruise
p2454
F0.34820660902478673
sVbrittle
p2455
F0.38891067969957327
sVrionda
p2456
F0.40486393411062915
sVouter
p2457
F0.38502157290257755
sVaffleck
p2458
F0.38502157290257755
sVguerrilla
p2459
F0.43437290638448905
sVhands
p2460
F0.5026822190923341
sVfront
p2461
F0.8359970904666533
sVdocumented
p2462
F0.44766912712935814
sVmasters
p2463
F0.5153822955847603
sVmods
p2464
F0.3588652662991374
sVcrossing
p2465
F0.43437290638448905
sVglobe
p2466
F0.3607903768368235
sV700
p2467
F0.38502157290257755
sVcaden
p2468
F0.3811713571735518
sVspecial
p2469
F0.05910033911985583
sVkapoor
p2470
F0.2735783211953806
sVentertainment
p2471
F0.2735783211953806
sVcriminally
p2472
F0.4214715966919633
sVfathom
p2473
F0.16386137871890186
sVislamist
p2474
F0.45219103750440215
sVactivist
p2475
F0.4172568807250437
sVplayground
p2476
F0.39680714182182764
sVcause
p2477
F0.43002917732064416
sVumbrella
p2478
F0.34820660902478673
sVcompletely
p2479
F0.4214715966919633
sVjill
p2480
F0.44319243585806456
sVintruder
p2481
F1.2740284901281183
sVprincess
p2482
F0.4172568807250437
sVhostile
p2483
F0.4008152947695229
sVroute
p2484
F0.4089534687986153
sVflorida
p2485
F0.30250303356876823
sVtimes
p2486
F0.4257288855474377
sVcounterpart
p2487
F0.4008152947695229
sVsamesex
p2488
F0.4089534687986153
sVmad
p2489
F0.30250303356876823
sVchristoph
p2490
F0.38891067969957327
sVpowerful
p2491
F0.09333563835785168
sVwikileaks
p2492
F0.39680714182182764
sVprecisely
p2493
F0.3245513141842011
sVquality
p2494
F0.34472454293453886
sVmanagement
p2495
F0.38502157290257755
sVadopted
p2496
F0.6285815091742153
sVattack
p2497
F0.20236598633916195
sVfinal
p2498
F0.15740458659047601
sVviktor
p2499
F0.31491181560161613
sVexactly
p2500
F0.45219103750440215
sVnolte
p2501
F0.3661516848271987
sVherself
p2502
F0.6398068025360484
sVultimatum
p2503
F0.3588652662991374
sVben
p2504
F0.1606005372823957
sVselfimposed
p2505
F0.44766912712935814
sVproviding
p2506
F0.45219103750440215
sVrobocop
p2507
F0.44766912712935814
sVvillains
p2508
F0.44766912712935814
sVjulian
p2509
F0.2819525952261938
sVkeller
p2510
F0.38891067969957327
sVneed
p2511
F0.34657379643584907
sVkelley
p2512
F0.44766912712935814
sVpursued
p2513
F0.4257288855474377
sVable
p2514
F0.14524424715498185
sVbattles
p2515
F0.3811713571735518
sVbourne
p2516
F0.3588652662991374
sVrelatives
p2517
F0.37735964360181623
sVchambert
p2518
F0.4008152947695229
sVtruck
p2519
F0.33114102049199173
sVunleash
p2520
F0.37735964360181623
sVparenting
p2521
F0.4214715966919633
sVvengeance
p2522
F0.44766912712935814
sVawe
p2523
F0.44766912712935814
sVconsequences
p2524
F0.43002917732064416
sVpropels
p2525
F0.4257288855474377
sVbusinessman
p2526
F0.798131721624983
sVaffair
p2527
F0.3928390704036094
sVqualms
p2528
F0.3588652662991374
sVverbinski
p2529
F0.4172568807250437
sVparked
p2530
F0.38891067969957327
sVottoman
p2531
F0.43437290638448905
sVhollywoods
p2532
F0.39680714182182764
sVpartners
p2533
F0.4257288855474377
sVenvy
p2534
F0.4214715966919633
sVcyril
p2535
F2.0336851044504645
sVsheriff
p2536
F0.2848006012385796
sVearned
p2537
F0.40486393411062915
sVminiseries
p2538
F0.41308431191779327
sVwinner
p2539
F0.25895026932342563
sVcredited
p2540
F0.34820660902478673
sVdreamers
p2541
F0.4257288855474377
sVethan
p2542
F0.2935183909687422
sVlibre
p2543
F0.44319243585806456
sVemployee
p2544
F0.798131721624983
sVachieve
p2545
F0.41308431191779327
sVdodge
p2546
F0.44319243585806456
sVrighteousness
p2547
F0.39680714182182764
sVsipping
p2548
F0.3117626974456
sVcouric
p2549
F0.43437290638448905
sVlegitimate
p2550
F0.40486393411062915
sVyears
p2551
F0.008047568277429145
sVascended
p2552
F0.40486393411062915
sVendless
p2553
F0.3928390704036094
sVconservatory
p2554
F0.41308431191779327
sVevolution
p2555
F0.44319243585806456
sVsowing
p2556
F0.45219103750440215
sVshy
p2557
F0.40486393411062915
sVshe
p2558
F0.03169363396894781
sVcontain
p2559
F0.3588652662991374
sVwidow
p2560
F0.40486393411062915
sVshake
p2561
F0.4089534687986153
sVterrain
p2562
F0.4214715966919633
sVimmigrant
p2563
F0.3624901679789267
sVcomputer
p2564
F0.25499287312478264
sVdesperate
p2565
F0.11526790915926297
sVnightmare
p2566
F0.32130580104235906
sVwritten
p2567
F0.33628020810790793
sVsupernatural
p2568
F0.38502157290257755
sVsold
p2569
F0.37735964360181623
sVken
p2570
F0.2681341126035925
sVcomparable
p2571
F1.2614143466615033
sVkicking
p2572
F0.43437290638448905
sVgamora
p2573
F0.4387605114994839
sVkey
p2574
F0.39680714182182764
sVpolice
p2575
F0.6832209972643953
sVprecious
p2576
F0.4089534687986153
sVhits
p2577
F0.308645070471144
sVlimits
p2578
F0.40486393411062915
sVcareer
p2579
F0.14524424715498185
sVadmit
p2580
F0.4089534687986153
sVpublicized
p2581
F0.4172568807250437
sVstratton
p2582
F0.39680714182182764
sVjim
p2583
F0.798131721624983
sVbronson
p2584
F0.38502157290257755
sVkeitel
p2585
F0.3811713571735518
sVkings
p2586
F0.23529332079282497
sVyau
p2587
F0.6285815091742153
sVyam
p2588
F0.798131721624983
sVslowly
p2589
F0.41308431191779327
sVufos
p2590
F0.17580460327901115
sVsonnys
p2591
F0.3698501866941401
sVsenses
p2592
F0.798131721624983
sVcontrolled
p2593
F0.3928390704036094
sVpiques
p2594
F0.40486393411062915
sVours
p2595
F0.38502157290257755
sVkicks
p2596
F0.798131721624983
sVnovel
p2597
F0.16808530043454117
sVkowalski
p2598
F0.4089534687986153
sVhealongside
p2599
F0.38502157290257755
sVharder
p2600
F0.3624901679789267
sV18yearold
p2601
F0.4214715966919633
sVmythology
p2602
F0.4089534687986153
sVbreakin
p2603
F0.38502157290257755
sVevelyn
p2604
F0.3698501866941401
sVsurface
p2605
F0.6527974722334953
sVswinging
p2606
F0.4008152947695229
sVcapture
p2607
F0.5367918028911437
sVbegan
p2608
F0.3588652662991374
sVcaptivated
p2609
F0.46603267395349496
sVblazed
p2610
F0.43437290638448905
sVparts
p2611
F0.46137234721396
sVunderground
p2612
F0.3071977700939621
sVparty
p2613
F0.45007062048902813
sVbenjie
p2614
F0.4214715966919633
sVunconventional
p2615
F0.30250303356876823
sVflesh
p2616
F0.4089534687986153
sVeccentric
p2617
F0.23529332079282497
sVforgotten
p2618
F0.33114102049199173
sVsteals
p2619
F0.45219103750440215
sVdestruction
p2620
F0.4214715966919633
sVscarcely
p2621
F0.41308431191779327
sVi
p2622
F0.19439195903711348
sVwell
p2623
F0.2516112141994863
sVelude
p2624
F0.43437290638448905
sVrife
p2625
F0.35527661363614604
sVinsurmountable
p2626
F0.44766912712935814
sVpailhas
p2627
F0.4089534687986153
sVtrials
p2628
F0.4257288855474377
sVwarlord
p2629
F0.4089534687986153
sVunderdog
p2630
F0.3661516848271987
sVaccurate
p2631
F0.4089534687986153
sVmistaken
p2632
F0.45219103750440215
sVdetail
p2633
F0.4172568807250437
sVsources
p2634
F0.4214715966919633
sVdistant
p2635
F0.4089534687986153
sVlinklater
p2636
F0.4214715966919633
sVskill
p2637
F0.4089534687986153
sVhess
p2638
F0.44319243585806456
sVlures
p2639
F0.44319243585806456
sVbrothels
p2640
F0.4008152947695229
sVnatwick
p2641
F0.4089534687986153
sVpatricia
p2642
F0.28767737498846424
sVlured
p2643
F0.27634173858119254
sVmiramax
p2644
F0.43002917732064416
sVkick
p2645
F0.3811713571735518
sVfate
p2646
F0.5128887043080643
sVdisappearance
p2647
F0.9144091467650298
sVcrushed
p2648
F0.44766912712935814
sVsnowstorm
p2649
F0.4008152947695229
sVhistoric
p2650
F0.43002917732064416
sVracially
p2651
F0.45219103750440215
sVprominent
p2652
F0.6285815091742153
sVnecessary
p2653
F0.3517238474997846
sVlost
p2654
F0.10424623086738063
sVfernando
p2655
F0.798131721624983
sVclown
p2656
F0.798131721624983
sVgangsters
p2657
F0.3624901679789267
sVmartin
p2658
F0.2806304613693483
sVadversity
p2659
F0.45219103750440215
sVgillian
p2660
F0.38502157290257755
sVbelonged
p2661
F0.45219103750440215
sVphenomena
p2662
F0.4214715966919633
sVshes
p2663
F0.34472454293453886
sVcleveland
p2664
F0.4008152947695229
sVhome
p2665
F0.08113765646578767
sVpeter
p2666
F0.11072589361943047
sVinvestor
p2667
F0.38502157290257755
sVtadpole
p2668
F0.39680714182182764
sVwendy
p2669
F0.44319243585806456
sVlimitations
p2670
F0.46603267395349496
sVexpansion
p2671
F0.3698501866941401
sVridley
p2672
F0.3661516848271987
sVpoignant
p2673
F0.3588652662991374
sVprohibited
p2674
F0.4214715966919633
sVfreedom
p2675
F0.38502157290257755
sVsinister
p2676
F0.3588652662991374
sVstakes
p2677
F0.46137234721396
sVequally
p2678
F0.41308431191779327
sVpreviously
p2679
F0.2964832232007497
sVsociopolitical
p2680
F0.798131721624983
sVwashington
p2681
F0.20856043996661022
sVinterstellar
p2682
F0.43002917732064416
sVarticulate
p2683
F0.40486393411062915
sVterence
p2684
F0.41308431191779327
sVscandalous
p2685
F0.45219103750440215
sVartists
p2686
F1.430734172497887
sVcouldnt
p2687
F0.3698501866941401
sVwhos
p2688
F0.5963417499990208
sVdrivein
p2689
F0.41308431191779327
sVmississippi
p2690
F0.4257288855474377
sVaccused
p2691
F0.45219103750440215
sVadditional
p2692
F0.3928390704036094
sVmuseum
p2693
F0.46137234721396
sVdaniels
p2694
F0.4214715966919633
sVghost
p2695
F0.4214715966919633
sVcricket
p2696
F0.45219103750440215
sVwilliamson
p2697
F0.38502157290257755
sVnorth
p2698
F0.5180693982909742
sVdardenne
p2699
F0.798131721624983
sVhp
p2700
F0.4008152947695229
sVhighest
p2701
F0.31491181560161613
sVeat
p2702
F0.43437290638448905
sVhd
p2703
F0.45675862374182036
sVhe
p2704
F0.0016156944338991796
sVprevalent
p2705
F0.40486393411062915
sVforrests
p2706
F0.38502157290257755
sVcruel
p2707
F0.35527661363614604
sVprojecting
p2708
F0.45219103750440215
sVstories
p2709
F0.18861832346175217
sVpiece
p2710
F0.40486393411062915
sVuniversal
p2711
F0.17758040735253652
sVpenny
p2712
F0.39680714182182764
sVtwist
p2713
F0.798131721624983
sVbeats
p2714
F0.41308431191779327
sVeducation
p2715
F0.3517238474997846
sVeric
p2716
F0.18673214022713464
sVrumors
p2717
F0.3928390704036094
sVradioaddress
p2718
F0.45219103750440215
sVoffensive
p2719
F0.4214715966919633
sVfinch
p2720
F0.2149445067619468
sVstar
p2721
F0.05534490179967082
sVemerges
p2722
F0.262798243762781
sVstay
p2723
F0.5786298036823001
sVfriends
p2724
F0.051343172143601394
sVtrilogystyled
p2725
F0.4257288855474377
sVportion
p2726
F0.46137234721396
sVaided
p2727
F0.34472454293453886
sVdissolution
p2728
F0.798131721624983
sVdynamic
p2729
F0.798131721624983
sVprotest
p2730
F0.43002917732064416
sVknell
p2731
F0.38502157290257755
sVscheming
p2732
F0.40486393411062915
sVcaptain
p2733
F0.35527661363614604
sVwhose
p2734
F0.07298790302189118
sVbuddy
p2735
F0.3117626974456
sVpresents
p2736
F0.1963555141789025
sVswap
p2737
F0.45675862374182036
sVteaching
p2738
F0.37735964360181623
sVwinfrey
p2739
F0.37735964360181623
sVfists
p2740
F0.798131721624983
sVconnects
p2741
F0.798131721624983
sVvast
p2742
F0.32130580104235906
sVskills
p2743
F0.33114102049199173
sVheading
p2744
F0.29947800323308055
sVwhirlwind
p2745
F0.3117626974456
sVuncovers
p2746
F0.4214715966919633
sVforce
p2747
F0.22376160688190533
sVjapanese
p2748
F0.11840487627542393
sVpovertystricken
p2749
F0.6864398552878015
sVpattinson
p2750
F0.4214715966919633
sVfixie
p2751
F0.44319243585806456
sVkidnap
p2752
F0.3928390704036094
sVquill
p2753
F0.33786452453014154
sVeven
p2754
F0.1772521413547885
sVneo
p2755
F0.38891067969957327
sVwreck
p2756
F0.798131721624983
sVasif
p2757
F0.37735964360181623
sVasia
p2758
F0.6943450426582044
sVlights
p2759
F0.30555861976643256
sVcheng
p2760
F0.35527661363614604
sVnew
p2761
F0.0002164272116378595
sVever
p2762
F0.10961863468323617
sVdescendents
p2763
F0.4089534687986153
sVdres
p2764
F0.35527661363614604
sVmen
p2765
F0.06631993905469107
sVmei
p2766
F0.179374148840946
sVdrew
p2767
F0.34820660902478673
sVmet
p2768
F0.43002917732064416
sVactive
p2769
F0.45675862374182036
sVignoring
p2770
F0.40486393411062915
sVomar
p2771
F0.798131721624983
sVdre
p2772
F0.1274548803481546
sVjoshua
p2773
F0.4089534687986153
sVfantastic
p2774
F0.308645070471144
sVdigitally
p2775
F0.44319243585806456
sVcampaign
p2776
F0.43437290638448905
sVcounty
p2777
F0.4172568807250437
sVguests
p2778
F0.3698501866941401
sVcriminals
p2779
F0.23061098370904776
sVarmy
p2780
F0.13004273068886296
sVarms
p2781
F0.31491181560161613
sVcall
p2782
F0.47074007470049994
sVsurvive
p2783
F0.3245513141842011
sVtype
p2784
F0.3811713571735518
sVtell
p2785
F0.25499287312478264
sVmckinney
p2786
F0.44319243585806456
sVoscar
p2787
F0.20034232647577033
sVexpose
p2788
F0.308645070471144
sVwars
p2789
F0.15120221783451074
sVjusticetaking
p2790
F0.4172568807250437
sVfrenzy
p2791
F0.3245513141842011
sVadult
p2792
F0.38502157290257755
sVquindlen
p2793
F0.37735964360181623
sVwahshun
p2794
F0.6285815091742153
sVward
p2795
F0.37559012642247336
sVshahid
p2796
F0.798131721624983
sVdirectorial
p2797
F0.3811713571735518
sVroom
p2798
F0.46137234721396
sVmovies
p2799
F0.07711097589692233
sVstoriesc
p2800
F0.38891067969957327
sVguise
p2801
F0.4089534687986153
sVgive
p2802
F0.19740885119693383
sVclimax
p2803
F0.3661516848271987
sVlaughs
p2804
F0.46137234721396
sVhadrians
p2805
F0.3624901679789267
sVunforgettable
p2806
F0.30250303356876823
sVaging
p2807
F0.2400707282857106
sVgoetheinstitut
p2808
F0.798131721624983
sVtitular
p2809
F0.4008152947695229
sVamazing
p2810
F0.4835510655943684
sVinsemination
p2811
F0.46603267395349496
sVsato
p2812
F0.39680714182182764
sVbriefcase
p2813
F0.45219103750440215
sVmcgavin
p2814
F0.38502157290257755
sVvicious
p2815
F0.3928390704036094
sVpresident
p2816
F0.33786452453014154
sVattempt
p2817
F0.29947800323308055
sVthird
p2818
F0.3661516848271987
sVoperate
p2819
F0.4214715966919633
sVhelena
p2820
F0.45219103750440215
sVbefall
p2821
F0.4214715966919633
sVghastly
p2822
F0.3588652662991374
sVpanthers
p2823
F0.4172568807250437
sVbefore
p2824
F0.13915176135330903
sVdeathly
p2825
F0.46137234721396
sVpersonal
p2826
F0.4592088771441971
sVcolliery
p2827
F0.798131721624983
sVcrew
p2828
F0.23061098370904776
sVplantation
p2829
F0.3278296102870718
sVovercome
p2830
F0.3661516848271987
sVgunning
p2831
F0.43437290638448905
sVghouls
p2832
F0.4089534687986153
sVcombination
p2833
F0.37735964360181623
sVweakness
p2834
F0.45219103750440215
sVunemployed
p2835
F0.43437290638448905
sVconvinces
p2836
F0.4214715966919633
sVarrested
p2837
F0.6285815091742153
sVmcfarland
p2838
F0.32130580104235906
sVside
p2839
F0.4877520545030725
sVluck
p2840
F0.798131721624983
sVdomenic
p2841
F0.40486393411062915
sVprinciples
p2842
F0.4089534687986153
sVpostapocalyptic
p2843
F0.38502157290257755
sVtaught
p2844
F0.3624901679789267
sVtrading
p2845
F0.4089534687986153
sVawry
p2846
F0.798131721624983
sVdawn
p2847
F0.3117626974456
sVpaleontologist
p2848
F0.44766912712935814
sVtales
p2849
F0.20236598633916195
sVsparkly
p2850
F0.39680714182182764
sVmccarthy
p2851
F0.3698501866941401
sVsurprise
p2852
F0.2848006012385796
sVturning
p2853
F0.37735964360181623
sVrevenge
p2854
F1.1016168702969076
sVaboriginal
p2855
F0.32130580104235906
sVstruggle
p2856
F0.2708425379834268
sVjackman
p2857
F0.30250303356876823
sVstarts
p2858
F0.38891067969957327
sV100000
p2859
F0.43437290638448905
sVarrived
p2860
F0.5852934275686056
sVstewart
p2861
F0.44319243585806456
sVplaywright
p2862
F0.3624901679789267
sVfeatures
p2863
F0.17580460327901115
sVhaunting
p2864
F0.24991851494959946
sVfeatured
p2865
F0.19833890321101263
sVfassbender
p2866
F0.4214715966919633
sVleaders
p2867
F0.22830487387195728
sVgoblins
p2868
F0.43002917732064416
sVgirls
p2869
F1.0371504156297948
sVtwisted
p2870
F0.3811713571735518
sV2
p2871
F0.6441402169489164
sVhollywood
p2872
F0.19052355905227492
sVtwister
p2873
F0.9642300765280474
sVhawke
p2874
F0.4214715966919633
sVlovelorn
p2875
F0.6285815091742153
sVmodernist
p2876
F0.3928390704036094
sVbegins
p2877
F0.182422273538196
sVdisciplined
p2878
F0.3588652662991374
sVmatter
p2879
F0.4214715966919633
sVsolomon
p2880
F0.4214715966919633
sVextracting
p2881
F0.4089534687986153
sVsees
p2882
F0.4214715966919633
sVmodern
p2883
F0.7519888556476809
sVcaleb
p2884
F0.29058320705905477
sVseen
p2885
F0.3000925435902004
sVseem
p2886
F0.798131721624983
sVtells
p2887
F0.49537132526272715
sVchess
p2888
F0.34820660902478673
sVpanties
p2889
F0.37735964360181623
sVtunnels
p2890
F0.45675862374182036
sVmarin
p2891
F0.4172568807250437
sVregular
p2892
F0.33448587928484014
sVmarie
p2893
F0.798131721624983
sVmaria
p2894
F0.3412772975051935
sVdon
p2895
F0.2819525952261938
sVdom
p2896
F0.45219103750440215
sVdoc
p2897
F0.3588652662991374
sVdog
p2898
F0.31809274303193547
sVpoints
p2899
F0.798131721624983
sVmildred
p2900
F0.4089534687986153
sVdover
p2901
F0.30250303356876823
sVhunger
p2902
F0.2848006012385796
sVending
p2903
F0.3588652662991374
sVunleashes
p2904
F0.3928390704036094
sVweekends
p2905
F0.4257288855474377
sVdebts
p2906
F0.737061254251595
sVunleashed
p2907
F0.33786452453014154
sVlennie
p2908
F0.44319243585806456
sVboyfriend
p2909
F0.5233024225161355
sVgalaxys
p2910
F0.4387605114994839
sVwearing
p2911
F0.37735964360181623
sVcolorful
p2912
F0.33448587928484014
sVstop
p2913
F0.17758040735253652
sVallvolunteer
p2914
F0.4257288855474377
sVcoast
p2915
F0.32130580104235906
sVchristopher
p2916
F0.2149445067619468
sVearl
p2917
F0.4089534687986153
sVbar
p2918
F0.3735860471657981
sVfields
p2919
F0.2601702613251532
sVdisney
p2920
F0.03972272584527696
sVdecides
p2921
F0.7630870165712503
sVfascinating
p2922
F0.31809274303193547
sVdomhnall
p2923
F0.3811713571735518
sVdecided
p2924
F0.38502157290257755
sVbrazil
p2925
F0.4257288855474377
sVsaid
p2926
F0.37735964360181623
sVscrap
p2927
F0.798131721624983
sVsail
p2928
F0.4089534687986153
sVartificial
p2929
F0.29947800323308055
sVprince
p2930
F0.34472454293453886
sVnarrates
p2931
F0.40486393411062915
sVpets
p2932
F0.43002917732064416
sVwarrior
p2933
F0.41949522946882045
sVvows
p2934
F0.5728435056454769
sVphysicist
p2935
F0.32130580104235906
sVcawley
p2936
F0.4214715966919633
sVagainst
p2937
F0.10838685518327679
sVrussia
p2938
F0.4172568807250437
sVappeared
p2939
F0.737061254251595
sVinitiative
p2940
F0.798131721624983
sVasks
p2941
F0.4089534687986153
sVthree
p2942
F0.47835655520526976
sVfriedrichwilhelmmurnaustiftung
p2943
F0.3928390704036094
sVtina
p2944
F0.3698501866941401
sVbasic
p2945
F0.4089534687986153
sVentered
p2946
F0.34820660902478673
sVjordin
p2947
F0.45675862374182036
sVdeeper
p2948
F0.3661516848271987
sVchun
p2949
F0.544278378462963
sVsunshine
p2950
F0.3811713571735518
sVaviation
p2951
F0.39680714182182764
sVlionel
p2952
F0.3412772975051935
sVtank
p2953
F0.4089534687986153
sVlizard
p2954
F0.38502157290257755
sVmurders
p2955
F0.4089534687986153
sVstudy
p2956
F0.3698501866941401
sVseven
p2957
F0.22376160688190533
sVsettles
p2958
F0.41308431191779327
sVmetropolitan
p2959
F0.798131721624983
sVmexico
p2960
F0.41308431191779327
sViq
p2961
F0.38502157290257755
sVip
p2962
F15.410001224098835
sVis
p2963
F7.71730711813159e-09
sVit
p2964
F0.0015338244457824865
sViv
p2965
F0.3624901679789267
sVii
p2966
F0.4685326774249539
sVcant
p2967
F0.45219103750440215
sVin
p2968
F5.893031413457277e-17
sVmouse
p2969
F0.4008152947695229
sVif
p2970
F0.13144168533443892
sVgrown
p2971
F0.28767737498846424
sVbello
p2972
F0.43437290638448905
sVbelle
p2973
F0.18301617063661463
sVmake
p2974
F0.3414991540374041
sVpotentially
p2975
F0.4257288855474377
sV80s
p2976
F0.39680714182182764
sVgrows
p2977
F0.34472454293453886
sVmeets
p2978
F0.1381258338496041
sVsacramento
p2979
F0.44766912712935814
sVkip
p2980
F0.32130580104235906
sVoverc
p2981
F0.3811713571735518
sVdelight
p2982
F0.6032093484262125
sVrenaissance
p2983
F0.43437290638448905
sVkim
p2984
F0.3811713571735518
sVnurtured
p2985
F0.3588652662991374
sVopportunity
p2986
F0.2601702613251532
sVjeremiahs
p2987
F0.3928390704036094
sVkid
p2988
F0.6084499030701161
sVpracticed
p2989
F0.4089534687986153
sVprograms
p2990
F0.38891067969957327
sVsettled
p2991
F0.20647483556694413
sVyoure
p2992
F0.29058320705905477
sVromy
p2993
F0.4089534687986153
sVmaterials
p2994
F1.2614143466615033
sVclaims
p2995
F0.3200550863605068
sV800
p2996
F0.38891067969957327
sVleft
p2997
F0.5339275813857111
sVconsciousness
p2998
F0.3811713571735518
sVyen
p2999
F0.6943450426582044
sVassigned
p3000
F0.798131721624983
sVfighters
p3001
F0.9615338739466139
sVpsych
p3002
F0.4214715966919633
sVhuman
p3003
F0.08746159307794292
sVfacts
p3004
F0.38502157290257755
sVpeacekeeping
p3005
F0.40486393411062915
sVyet
p3006
F0.37559012642247336
sVimpending
p3007
F0.38891067969957327
sVnicolas
p3008
F0.39680714182182764
sVagile
p3009
F0.44319243585806456
sVcharacter
p3010
F0.262798243762781
sVjules
p3011
F0.4089534687986153
sVpotential
p3012
F0.38502157290257755
sVmegastar
p3013
F0.6943450426582044
sVsave
p3014
F0.10529922309836427
sVmcdormand
p3015
F0.3624901679789267
sVlillete
p3016
F0.3698501866941401
sVflamingoes
p3017
F0.41308431191779327
sVwanting
p3018
F0.38891067969957327
sVtriggerhappy
p3019
F0.43437290638448905
sVdepicts
p3020
F0.4732653307322768
sVdreams
p3021
F0.21279506169432733
sVnude
p3022
F0.4089534687986153
sVperforming
p3023
F0.4008152947695229
sVdisillusioned
p3024
F0.40486393411062915
sVzombies
p3025
F0.45219103750440215
sVnotorious
p3026
F0.38502157290257755
sVdean
p3027
F0.3588652662991374
sVdeal
p3028
F0.39680714182182764
sVdead
p3029
F0.18861832346175217
sVstatistic
p3030
F0.43002917732064416
sVoutspoken
p3031
F0.4172568807250437
sVpopular
p3032
F0.1668043177503145
sVkeeper
p3033
F0.3698501866941401
sVsuper
p3034
F0.17404655724622103
sVwarhammer
p3035
F0.41308431191779327
sVmccann
p3036
F0.45219103750440215
sVmarshal
p3037
F0.4214715966919633
sVautomatically
p3038
F0.40486393411062915
sVfarrell
p3039
F0.43437290638448905
sVintellectual
p3040
F0.3735860471657981
sVdown
p3041
F0.05997856409673896
sVcontrasts
p3042
F0.4089534687986153
sVoverkill
p3043
F0.38502157290257755
sVnarration
p3044
F0.798131721624983
sVweathered
p3045
F0.44766912712935814
sVamazingly
p3046
F0.798131721624983
sVinitial
p3047
F0.32130580104235906
sVconlon
p3048
F0.3661516848271987
sVeditor
p3049
F0.38502157290257755
sVfactions
p3050
F0.38502157290257755
sVform
p3051
F0.4039337706512724
sVbatman
p3052
F0.21066711107738406
sVford
p3053
F0.33786452453014154
sVpenned
p3054
F0.34820660902478673
sVberk
p3055
F0.45675862374182036
sVbuilds
p3056
F0.44319243585806456
sVcosmos
p3057
F0.35527661363614604
sVstages
p3058
F0.43002917732064416
sVtemper
p3059
F0.38502157290257755
sVclassic
p3060
F0.0047173738752520995
sVcovert
p3061
F0.4089534687986153
sVsticky
p3062
F0.4008152947695229
sVship
p3063
F0.3117626974456
sVadelaide
p3064
F0.38502157290257755
sVdigital
p3065
F0.2819525952261938
sVgarland
p3066
F0.3811713571735518
sVdelivered
p3067
F0.798131721624983
sVhandicap
p3068
F0.798131721624983
sVdies
p3069
F0.3278296102870718
sVjourney
p3070
F0.07788987464335588
sVexported
p3071
F0.38891067969957327
sVauthorities
p3072
F0.17230609167375882
sVfusco
p3073
F0.3811713571735518
sVshatters
p3074
F0.4387605114994839
sVweekend
p3075
F0.3661516848271987
sVrusso
p3076
F0.37735964360181623
sVdied
p3077
F0.5844745491740403
sVwriterdirector
p3078
F0.1606005372823957
sVjones
p3079
F0.2935183909687422
sVkurosawas
p3080
F0.3811713571735518
sVgrownup
p3081
F0.43437290638448905
sVagainstallodds
p3082
F0.4008152947695229
sVwiig
p3083
F0.44319243585806456
sVskip
p3084
F0.4172568807250437
sVthemes
p3085
F0.3928390704036094
sVmanages
p3086
F0.33786452453014154
sV21st
p3087
F0.43437290638448905
sVjija
p3088
F0.798131721624983
sVfather
p3089
F0.10026875124223383
sVfinally
p3090
F0.18486481882486328
sVmarks
p3091
F0.40486393411062915
sVsuffered
p3092
F0.3661516848271987
sVtimon
p3093
F0.4089534687986153
sVstring
p3094
F0.4214715966919633
sVlynch
p3095
F0.4172568807250437
sVdid
p3096
F0.1963555141789025
sVdie
p3097
F0.17404655724622103
sVaccidentally
p3098
F0.4257288855474377
sVtravels
p3099
F0.29058320705905477
sVdip
p3100
F0.46137234721396
sVround
p3101
F0.4214715966919633
sVunexpected
p3102
F0.3811713571735518
sVcorner
p3103
F0.4089534687986153
sVrun
p3104
F0.39309444606004385
sVtargets
p3105
F0.45219103750440215
sVreunite
p3106
F0.29947800323308055
sVsuspect
p3107
F0.6084499030701161
sVinternational
p3108
F0.8051863611747515
sVfilled
p3109
F0.2735783211953806
sVguardian
p3110
F0.34820660902478673
sVbox
p3111
F0.798131721624983
sVboy
p3112
F0.37213182644332865
sVhbo
p3113
F0.43002917732064416
sVcanadian
p3114
F0.6334087345106882
sVboo
p3115
F0.37735964360181623
sVraccoon
p3116
F0.4387605114994839
sVpriceless
p3117
F0.43437290638448905
sVbob
p3118
F0.23529332079282497
sVbreathtaking
p3119
F0.3245513141842011
sVmerely
p3120
F0.46137234721396
sVfredersen
p3121
F0.3928390704036094
sVwealth
p3122
F0.40486393411062915
sVsake
p3123
F0.46603267395349496
sVvisit
p3124
F0.43437290638448905
sVfrance
p3125
F1.2740284901281183
sVperu
p3126
F0.3117626974456
sVsharing
p3127
F0.45675862374182036
sVacceptable
p3128
F0.46137234721396
sVdowntown
p3129
F0.3811713571735518
sVtandem
p3130
F0.4387605114994839
sVeffort
p3131
F0.40486393411062915
sVcapturing
p3132
F0.4214715966919633
sVwalled
p3133
F0.33448587928484014
sVtokyo
p3134
F0.737061254251595
sVdrago
p3135
F0.45219103750440215
sVsoul
p3136
F0.2735783211953806
sV9th
p3137
F0.43437290638448905
sVgrowing
p3138
F0.5065932534188188
sVmaking
p3139
F0.18673214022713464
sVcrazy
p3140
F0.4214715966919633
sVwinston
p3141
F0.45219103750440215
sVboxoffice
p3142
F0.6943450426582044
sVsample
p3143
F0.46137234721396
sVcouncil
p3144
F0.798131721624983
sVspanning
p3145
F0.3412772975051935
sVdennis
p3146
F0.3661516848271987
sVpink
p3147
F0.21279506169432733
sVbehindthescenes
p3148
F0.3588652662991374
sVsteve
p3149
F0.29947800323308055
sVsunday
p3150
F0.45219103750440215
sVsword
p3151
F0.3412772975051935
sVirreverent
p3152
F0.798131721624983
sVstaying
p3153
F0.798131721624983
sVmay
p3154
F0.12243264951746473
sVmax
p3155
F0.2708425379834268
sVmankind
p3156
F0.25499287312478264
sVdestructive
p3157
F0.4257288855474377
sVguys
p3158
F0.3698501866941401
sVman
p3159
F0.014055845401324481
sVjohnson
p3160
F0.34472454293453886
sVtooey
p3161
F0.4172568807250437
sVborrowing
p3162
F0.4089534687986153
sVtale
p3163
F0.12366934294693407
sVprovide
p3164
F0.3588652662991374
sVafrican
p3165
F2.1716811382387684
sVbungle
p3166
F0.38891067969957327
sVshield
p3167
F0.40486393411062915
sVdistributors
p3168
F0.798131721624983
sVpitch
p3169
F0.45675862374182036
sVpeterson
p3170
F0.41308431191779327
sVgroup
p3171
F0.0663630521237486
sVmaid
p3172
F0.798131721624983
sVjasons
p3173
F0.3278296102870718
sVhitlers
p3174
F0.46603267395349496
sVmail
p3175
F0.43437290638448905
sVtexas
p3176
F0.4257288855474377
sVviews
p3177
F0.38502157290257755
sVkiller
p3178
F0.310300777872689
sVaspirations
p3179
F0.38891067969957327
sVkilled
p3180
F0.4257288855474377
sVpeasant
p3181
F0.3928390704036094
sVrock
p3182
F0.2193087509049554
sVshowcasing
p3183
F0.647174953752713
sVlatin
p3184
F0.38891067969957327
sVpreaching
p3185
F0.4089534687986153
sVgirl
p3186
F0.10217173087311976
sVrelive
p3187
F0.44766912712935814
sVliving
p3188
F0.4983526372740446
sVafghans
p3189
F0.38891067969957327
sVjackson
p3190
F0.38891067969957327
sVstupid
p3191
F0.2964832232007497
sVafter
p3192
F0.028143363332392438
sVhefty
p3193
F0.4089534687986153
sVromans
p3194
F0.2848006012385796
sVcalifornia
p3195
F0.32130580104235906
sVuncover
p3196
F0.30555861976643256
sVcowells
p3197
F0.3588652662991374
sVorb
p3198
F0.38502157290257755
sVadvance
p3199
F0.44766912712935814
sVlanguage
p3200
F0.798131721624983
sVheadphones
p3201
F0.46137234721396
sVthing
p3202
F0.33114102049199173
sVthink
p3203
F0.43437290638448905
sVremorseful
p3204
F0.41308431191779327
sVfirst
p3205
F0.037804254715213106
sVexotic
p3206
F0.2735783211953806
sVeone
p3207
F0.46137234721396
sVdwelling
p3208
F0.3588652662991374
sVlone
p3209
F0.3412772975051935
sVrachel
p3210
F0.4214715966919633
sVamericans
p3211
F0.39680714182182764
sVfast
p3212
F0.3928390704036094
sVcarry
p3213
F0.798131721624983
sVlittle
p3214
F0.08356696750744182
sVpersonalities
p3215
F0.38891067969957327
sVanyone
p3216
F0.2791330692739319
sVpsychotic
p3217
F0.3117626974456
sValfred
p3218
F0.44319243585806456
sVspeaking
p3219
F0.40486393411062915
sVeyes
p3220
F0.74797638257974
sVpaynes
p3221
F0.4172568807250437
sVkynes
p3222
F0.4089534687986153
sVbutt
p3223
F0.33448587928484014
sV10
p3224
F0.5908508477720947
sV13
p3225
F0.3698501866941401
sV12
p3226
F0.3517238474997846
sV15
p3227
F0.46137234721396
sV17
p3228
F0.44319243585806456
sV18
p3229
F0.4214715966919633
sVventure
p3230
F0.3698501866941401
sVwere
p3231
F0.12308943189758627
sV20s
p3232
F0.46137234721396
sVdugan
p3233
F0.43437290638448905
sVpreston
p3234
F0.40486393411062915
sVmarijuana
p3235
F0.30250303356876823
sVvoices
p3236
F0.3588652662991374
sVcomedian
p3237
F0.3811713571735518
sVvoiced
p3238
F0.12243264951746473
sVnazi
p3239
F0.3588652662991374
sVkevin
p3240
F0.690122219458985
sVwarsaw
p3241
F3.18233230792693
sVsquad
p3242
F0.41308431191779327
sVperformance
p3243
F0.21066711107738406
sVjungle
p3244
F0.3117626974456
sVnorman
p3245
F0.29947800323308055
sVtrace
p3246
F0.798131721624983
sVnormal
p3247
F0.798131721624983
sVarguing
p3248
F0.44766912712935814
sVinvertebrate
p3249
F0.3588652662991374
sVnolan
p3250
F0.45219103750440215
sVpair
p3251
F0.262798243762781
sVcoveted
p3252
F0.4387605114994839
sVhardships
p3253
F0.6285815091742153
sVespecially
p3254
F0.3588652662991374
sVsurprising
p3255
F0.4214715966919633
sVlenny
p3256
F0.46137234721396
sVshop
p3257
F0.3811713571735518
sVshot
p3258
F0.3698501866941401
sVshow
p3259
F0.33967697788677587
sVcontemporary
p3260
F0.798131721624983
sVtherapist
p3261
F0.22152399081308627
sVhickenlooper
p3262
F0.40486393411062915
sVinterpretation
p3263
F0.38891067969957327
sVsnider
p3264
F0.40486393411062915
sVfeng
p3265
F0.798131721624983
sVstormy
p3266
F0.798131721624983
sVtreasure
p3267
F0.3698501866941401
sVenough
p3268
F0.4008152947695229
sVblack
p3269
F0.28767737498846424
sVrotwang
p3270
F0.3928390704036094
sVmoreau
p3271
F0.4257288855474377
sVget
p3272
F0.10586409427156897
sVhostage
p3273
F0.45675862374182036
sVmohseni
p3274
F0.38891067969957327
sVhailed
p3275
F0.43002917732064416
sVnearly
p3276
F0.2708425379834268
sVmiles
p3277
F0.34820660902478673
sVfinishing
p3278
F0.43437290638448905
sVyukari
p3279
F0.46137234721396
sVhonesty
p3280
F0.5786298036823001
sVseat
p3281
F0.3412772975051935
sVrelative
p3282
F0.38502157290257755
sVsean
p3283
F0.3698501866941401
sVentrepeneur
p3284
F0.39680714182182764
sVcamping
p3285
F0.46137234721396
sVboundaries
p3286
F0.33448587928484014
sVbehind
p3287
F0.2878643874421993
sVacross
p3288
F0.2853850230034624
sVaugust
p3289
F1.0740410480355016
sVjr
p3290
F0.33114102049199173
sVkilling
p3291
F0.32130580104235906
sVjj
p3292
F0.46603267395349496
sVmitsuru
p3293
F0.46137234721396
sVchildbirth
p3294
F0.4089534687986153
sVdates
p3295
F0.3698501866941401
sVupperclass
p3296
F0.6943450426582044
sVtrader
p3297
F0.41308431191779327
sVsketchy
p3298
F0.4214715966919633
sVremake
p3299
F0.262798243762781
sVguardians
p3300
F0.3517238474997846
sVamong
p3301
F0.308645070471144
sVaccusation
p3302
F0.34820660902478673
sVspans
p3303
F0.46137234721396
sVunassuming
p3304
F0.798131721624983
sVfreak
p3305
F0.798131721624983
sVmastersfrom
p3306
F0.38502157290257755
sVcomprehend
p3307
F0.41308431191779327
sVtub
p3308
F0.4008152947695229
sVspecializing
p3309
F0.41308431191779327
sVarts
p3310
F1.8804229383266815
sVunderworld
p3311
F0.4976553969014105
sVbarry
p3312
F0.40486393411062915
sVucla
p3313
F0.4172568807250437
sVmark
p3314
F0.2182803669511163
sVmary
p3315
F0.3245513141842011
sVhowsam
p3316
F0.40486393411062915
sVtestcharging
p3317
F0.3811713571735518
sVunturned
p3318
F0.4172568807250437
sVdramatic
p3319
F0.308645070471144
sVwake
p3320
F0.4008152947695229
sVodyssey
p3321
F0.3588652662991374
sVthose
p3322
F0.22152399081308627
sVsound
p3323
F0.44319243585806456
sVongoing
p3324
F0.4089534687986153
sVpromising
p3325
F0.3811713571735518
sVinvestigating
p3326
F0.798131721624983
sVthen
p3327
F0.1395210442925294
sVmandeville
p3328
F0.40486393411062915
sVmiddle
p3329
F0.3117626974456
sVsudden
p3330
F0.45219103750440215
sVdangerously
p3331
F0.46137234721396
sVbeetlejuice
p3332
F0.41308431191779327
sVdifferent
p3333
F0.20441008721127468
sVpay
p3334
F0.4257288855474377
sVtour
p3335
F0.2193087509049554
sVsame
p3336
F0.16309299892633503
sVspeech
p3337
F0.4303517645878138
sVstruggling
p3338
F0.23529332079282497
sVpal
p3339
F0.4089534687986153
sVextended
p3340
F0.45675862374182036
sVassist
p3341
F0.6462694975111605
sVincarceration
p3342
F0.3698501866941401
sVcompanion
p3343
F0.40486393411062915
sVrunning
p3344
F0.33448587928484014
sVdriven
p3345
F0.4214715966919633
sVclimbing
p3346
F0.3735860471657981
sVbreak
p3347
F0.41308431191779327
sVconor
p3348
F0.308645070471144
sVlargely
p3349
F0.4089534687986153
sVfathomeventscom
p3350
F0.43437290638448905
sVbumping
p3351
F0.41308431191779327
sVuncomplicated
p3352
F0.44319243585806456
sVamazed
p3353
F0.38502157290257755
sVgangs
p3354
F0.4172568807250437
sVmoney
p3355
F0.2681341126035925
sVsights
p3356
F0.5742200500799419
sVunofficial
p3357
F0.40486393411062915
sVwifes
p3358
F0.6727797021675742
sVsupersecret
p3359
F0.3811713571735518
sVmeteorite
p3360
F0.4089534687986153
sV4
p3361
F0.3624901679789267
sVheavies
p3362
F0.4257288855474377
sVcareers
p3363
F0.4214715966919633
sVchungsok
p3364
F0.7902294273514683
sVjake
p3365
F0.33114102049199173
sVmom
p3366
F0.37735964360181623
sVmob
p3367
F0.3412772975051935
sVkinemathek
p3368
F0.798131721624983
sVarsonist
p3369
F0.4214715966919633
sVtwin
p3370
F0.798131721624983
sVserves
p3371
F0.34472454293453886
sVfacing
p3372
F0.2260218251332377
sVaudience
p3373
F0.35527661363614604
sVanarchic
p3374
F0.4008152947695229
sVclimactic
p3375
F0.46137234721396
sVpronounce
p3376
F0.43437290638448905
sVeverybodys
p3377
F0.43002917732064416
sVslavery
p3378
F0.4089534687986153
sVimages
p3379
F0.3588652662991374
sVgross
p3380
F0.34820660902478673
sVellis
p3381
F0.44319243585806456
sVstaffa
p3382
F0.4214715966919633
sVpioneer
p3383
F0.34820660902478673
sVmcclane
p3384
F0.4172568807250437
sVvistas
p3385
F0.4257288855474377
sVunusual
p3386
F0.4089534687986153
sVbroken
p3387
F0.798131721624983
sVdespicable
p3388
F0.38502157290257755
sVrefers
p3389
F0.46137234721396
sVuntamed
p3390
F0.4008152947695229
sVisland
p3391
F0.09913712829445723
sVviolence
p3392
F0.4257288855474377
sVmeaning
p3393
F0.3117626974456
sVpractical
p3394
F0.4257288855474377
sVroam
p3395
F0.3624901679789267
sVmixed
p3396
F0.33114102049199173
sVroad
p3397
F0.24494513650210245
sVlands
p3398
F0.28767737498846424
sVskilled
p3399
F0.44319243585806456
sVyyz
p3400
F0.4008152947695229
sVdreaming
p3401
F0.43437290638448905
sVjerusalem
p3402
F0.4089534687986153
sVstage
p3403
F0.2848006012385796
sVhiccup
p3404
F0.41308431191779327
sVgore
p3405
F0.23529332079282497
sVromantic
p3406
F0.43437290638448905
sVlorelei
p3407
F0.4214715966919633
sVoscorp
p3408
F0.45219103750440215
sVstrawberry
p3409
F0.39680714182182764
sVarranges
p3410
F0.45219103750440215
sVdvd
p3411
F0.38502157290257755
sVelectrifying
p3412
F0.44766912712935814
sVdeep
p3413
F0.3230294261504256
sVgeneral
p3414
F0.17404655724622103
sVimagination
p3415
F0.3811713571735518
sVgirlfriend
p3416
F0.3412772975051935
sVlifetime
p3417
F0.2376700210028535
sVfilm
p3418
F0.0006278111275580291
sVagain
p3419
F0.06973778438761251
sVmohave
p3420
F0.4089534687986153
sVfield
p3421
F0.34820660902478673
sVastronaut
p3422
F0.38502157290257755
sVobsessed
p3423
F0.8962124047444058
sVstudents
p3424
F0.798131721624983
sVimportant
p3425
F0.33114102049199173
sVchris
p3426
F0.22376160688190533
sVhavana
p3427
F0.4214715966919633
sVresembles
p3428
F0.38502157290257755
sVupperclassmen
p3429
F0.46137234721396
sVstarting
p3430
F0.33448587928484014
sVmotel
p3431
F0.47074007470049994
sVadventurefilled
p3432
F0.46137234721396
sVfounder
p3433
F0.2601702613251532
sVdollar
p3434
F0.4257288855474377
sVsunk
p3435
F0.46603267395349496
sVlooper
p3436
F0.44766912712935814
sVchildren
p3437
F0.23061098370904776
sVemily
p3438
F0.262798243762781
sVtrixie
p3439
F0.46137234721396
sVhideous
p3440
F0.4214715966919633
sVpremium
p3441
F0.3928390704036094
sVreturning
p3442
F0.41308431191779327
sVcarefree
p3443
F0.4089534687986153
sVscout
p3444
F0.4257288855474377
sVfall
p3445
F0.2964832232007497
sVoconnell
p3446
F0.2964832232007497
sValien
p3447
F0.09619265644698355
sVbroderick
p3448
F0.4089534687986153
sVcelebrity
p3449
F0.4214715966919633
sVbiological
p3450
F0.4089534687986153
sVeconomically
p3451
F0.4008152947695229
sV20th
p3452
F0.16222276493171284
sVneighborhood
p3453
F0.3278296102870718
sVhouellebecq
p3454
F0.38891067969957327
sVzero
p3455
F0.43437290638448905
sVperspective
p3456
F0.3811713571735518
sVlawyer
p3457
F0.798131721624983
sVfurther
p3458
F0.4214715966919633
sVcreatures
p3459
F0.15272951296415227
sVabc
p3460
F0.47074007470049994
sVcentering
p3461
F0.41308431191779327
sVskeptic
p3462
F0.38502157290257755
sVlargescreen
p3463
F0.4089534687986153
sVpublic
p3464
F0.2376700210028535
sVvideogame
p3465
F0.4257288855474377
sV5000
p3466
F0.38891067969957327
sVcomponent
p3467
F0.3811713571735518
sVjonah
p3468
F0.3588652662991374
sVranger
p3469
F0.4172568807250437
sVdisastrous
p3470
F1.1765439355977894
sVtable
p3471
F0.5346756409227383
sVsearch
p3472
F1.047626682454338
sVjackie
p3473
F0.29947800323308055
sVagatha
p3474
F0.35527661363614604
sVuncharted
p3475
F0.46137234721396
sVpublished
p3476
F0.6023654040394152
sVwhimsical
p3477
F0.3412772975051935
sVdetourroad
p3478
F0.44766912712935814
sVmodernday
p3479
F0.34820660902478673
sVcowardly
p3480
F0.43002917732064416
sVafrica
p3481
F0.7943891174097732
sVsadist
p3482
F0.43437290638448905
sVarmed
p3483
F0.3588652662991374
sVmarauders
p3484
F0.41308431191779327
sVhutcherson
p3485
F0.3588652662991374
sVtwo
p3486
F0.04625077579607833
sVfreston
p3487
F0.38891067969957327
sVstaggering
p3488
F0.43002917732064416
sVlanded
p3489
F0.3624901679789267
sVtown
p3490
F0.1938774442959282
sVhour
p3491
F0.308645070471144
sVcreated
p3492
F0.3735860471657981
sVohara
p3493
F0.4214715966919633
sVroosevelt
p3494
F0.38502157290257755
sVremain
p3495
F0.33114102049199173
sVdel
p3496
F0.40486393411062915
sVdea
p3497
F0.39680714182182764
sVspall
p3498
F0.45219103750440215
sVcollision
p3499
F0.33114102049199173
sVnumbers
p3500
F0.798131721624983
sVsharp
p3501
F0.38891067969957327
sVrobinson
p3502
F0.4008152947695229
sVneeds
p3503
F0.3517238474997846
sVensemble
p3504
F0.3245513141842011
sVuprising
p3505
F5.159193918368843
sVadvice
p3506
F0.35527661363614604
sVrosanne
p3507
F0.37735964360181623
sVblood
p3508
F0.5447684740186829
sVcoming
p3509
F0.3278296102870718
sVcrippling
p3510
F0.40486393411062915
sVdragon
p3511
F0.24741932980010348
sVcoal
p3512
F0.798131721624983
sVplaying
p3513
F0.38891067969957327
sVwedding8203
p3514
F0.3698501866941401
sVnarratives
p3515
F0.4214715966919633
sVthrough
p3516
F0.20169917873491972
sVsuffer
p3517
F0.47074007470049994
sVarrogant
p3518
F0.38502157290257755
sVariah
p3519
F0.4257288855474377
sV25
p3520
F0.34820660902478673
sVthrilling
p3521
F0.262798243762781
sV22
p3522
F0.44319243585806456
sV28
p3523
F0.34472454293453886
sV29
p3524
F0.45675862374182036
sVlate
p3525
F0.25756855871190165
sVpena
p3526
F0.798131721624983
sVpenn
p3527
F0.38502157290257755
sVreteam
p3528
F0.46137234721396
sVgood
p3529
F0.18118600893024847
sVblahyis
p3530
F0.4089534687986153
sVseeking
p3531
F0.39680714182182764
sVfrigid
p3532
F0.38502157290257755
sVcompound
p3533
F0.38891067969957327
sVwally
p3534
F0.37735964360181623
sVstepped
p3535
F0.40486393411062915
sVmystery
p3536
F0.4214715966919633
sVevade
p3537
F0.38891067969957327
sVhabits
p3538
F0.3698501866941401
sVinordinately
p3539
F0.43437290638448905
sVeveryone
p3540
F0.12618033154467306
sVmental
p3541
F0.4214715966919633
sVhouse
p3542
F0.12491852822922633
sVhard
p3543
F0.17758040735253652
sVrachelle
p3544
F0.40486393411062915
sVharb
p3545
F0.40486393411062915
sVobtains
p3546
F0.3928390704036094
sVfist
p3547
F0.6943450426582044
sVperry
p3548
F0.4214715966919633
sVacting
p3549
F0.19052355905227492
sVflowed
p3550
F0.46137234721396
sVprint
p3551
F1.7846014333151332
sVbully
p3552
F0.3245513141842011
sVlawrence
p3553
F0.29058320705905477
sVcommits
p3554
F0.798131721624983
sVextraordinary
p3555
F0.21066711107738406
sVmembers
p3556
F0.23529332079282497
sVfirstever
p3557
F0.38502157290257755
sVbeginning
p3558
F0.2654527714775566
sVcomputers
p3559
F0.38502157290257755
sVfincher
p3560
F0.38502157290257755
sVdons
p3561
F0.4008152947695229
sVdont
p3562
F0.12366934294693407
sVbullies
p3563
F0.3811713571735518
sVdone
p3564
F0.4008152947695229
sVembraced
p3565
F0.4089534687986153
sVwages
p3566
F0.45675862374182036
sVbullied
p3567
F0.798131721624983
sVcarter
p3568
F0.40486393411062915
sVtwenty
p3569
F0.64626949751116
sVconstruct
p3570
F0.798131721624983
sVpaint
p3571
F0.4008152947695229
sVmortdecai
p3572
F0.3588652662991374
sVstatement
p3573
F0.4008152947695229
sVpart
p3574
F0.08965784179735528
sVgruesome
p3575
F0.30555861976643256
sVbelieve
p3576
F0.2935183909687422
sVcarnage
p3577
F0.37735964360181623
sVyipeekiyay
p3578
F0.44766912712935814
sVunbought
p3579
F0.4172568807250437
sVbohemian
p3580
F0.3588652662991374
sVtreated
p3581
F0.44319243585806456
sVnominee
p3582
F0.798131721624983
sVconcludes
p3583
F0.798131721624983
sVages
p3584
F0.38502157290257755
sVawoken
p3585
F0.45675862374182036
sVbaruchel
p3586
F0.33114102049199173
sVaged
p3587
F0.44766912712935814
sVmountain
p3588
F0.14969019565616562
sVbuilt
p3589
F0.34472454293453886
sVescapades
p3590
F0.40486393411062915
sVabilene
p3591
F0.4089534687986153
sVchilai
p3592
F0.32130580104235906
sVonset
p3593
F0.46603267395349496
sVmajority
p3594
F0.32130580104235906
sVbuild
p3595
F0.31491181560161613
sVcommentary
p3596
F0.41308431191779327
sVrushs
p3597
F0.4008152947695229
sVgodfather
p3598
F0.4247507854511701
sVharbingers
p3599
F0.44766912712935814
sVsonneborn
p3600
F0.798131721624983
sVdepths
p3601
F0.3928390704036094
sVmost
p3602
F0.0006075223065172605
sVcharm
p3603
F0.3588652662991374
sVsignificant
p3604
F0.47074007470049994
sVservices
p3605
F0.6023654040394152
sVevoker
p3606
F0.46137234721396
sVextremely
p3607
F0.43437290638448905
sVlovecraft
p3608
F0.4008152947695229
sVka
p3609
F0.798131721624983
sVks
p3610
F0.46137234721396
sVcameramen
p3611
F0.46137234721396
sVorganism
p3612
F0.44766912712935814
sVdodging
p3613
F0.44319243585806456
sVthomas
p3614
F0.5671150705890224
sVcarefully
p3615
F0.45219103750440215
sVjared
p3616
F0.44319243585806456
sVheadlines
p3617
F0.40486393411062915
sVfine
p3618
F0.798131721624983
sVfind
p3619
F0.20674337191928271
sVgiant
p3620
F0.3811713571735518
sVtownspeople
p3621
F0.4089534687986153
sVruin
p3622
F0.3661516848271987
sVexpress
p3623
F0.4257288855474377
sVcourage
p3624
F0.2791330692739319
sVtheft
p3625
F0.37735964360181623
sVcontagious
p3626
F0.4089534687986153
sVdoubled
p3627
F0.43002917732064416
sVredefined
p3628
F0.43002917732064416
sVcommon
p3629
F0.6933735911997998
sVdoubles
p3630
F0.3588652662991374
sVblahyi
p3631
F0.22376160688190533
sVscruffy
p3632
F0.44319243585806456
sVlion
p3633
F0.20967924955457817
sVarouse
p3634
F0.38891067969957327
sVsahid
p3635
F0.798131721624983
sVfeared
p3636
F0.6527974722334954
sVrepairs
p3637
F0.44319243585806456
sVmalkovich
p3638
F0.4089534687986153
sVbrendans
p3639
F0.3661516848271987
sVfans
p3640
F0.5767233773408742
sVrosie
p3641
F0.38502157290257755
sViron
p3642
F0.34358877020903433
sVrevengedriven
p3643
F0.4387605114994839
sVaircraft
p3644
F0.32130580104235906
sVpremise
p3645
F0.3588652662991374
sVrestaurant
p3646
F0.4214715966919633
sVmackenzies
p3647
F0.38502157290257755
sVforeign
p3648
F0.6208039006939252
sV700pm
p3649
F0.40486393411062915
sVseminal
p3650
F0.3811713571735518
sVpoint
p3651
F0.38502157290257755
sVsimple
p3652
F0.23529332079282497
sVfashion
p3653
F0.39680714182182764
sVsimply
p3654
F0.46603267395349496
sVunsuccessful
p3655
F0.30250303356876823
sVthroughout
p3656
F0.2524429443935348
sVexpensive
p3657
F0.4214715966919633
sVplatinum
p3658
F0.4008152947695229
sVweaving
p3659
F0.33448587928484014
sVperspectives
p3660
F0.4214715966919633
sVcreate
p3661
F0.4257288855474377
sVtrilogy
p3662
F0.2601702613251532
sVrivals
p3663
F0.3928390704036094
sVsecret
p3664
F0.4552764179871366
sVexcon
p3665
F0.798131721624983
sVslips
p3666
F0.43437290638448905
sVgas
p3667
F0.28767737498846424
sV35mm
p3668
F0.798131721624983
sVunderstand
p3669
F0.45219103750440215
sVhitchcock
p3670
F0.44319243585806456
sVpolitician
p3671
F0.5141211771989281
sVbill
p3672
F0.14671136076260793
sVschultzs
p3673
F0.38891067969957327
sVfun
p3674
F0.24494513650210245
sVakihiko
p3675
F0.46137234721396
sVcentury
p3676
F0.6997821506453841
sVembarks
p3677
F0.2260218251332377
sVmystic
p3678
F0.4214715966919633
sVitself
p3679
F0.798131721624983
sVmonroe
p3680
F0.4172568807250437
sVitaly
p3681
F0.23529332079282497
sVruth
p3682
F0.2524429443935348
sVdevelopment
p3683
F0.38891067969957327
sVkeys
p3684
F0.35527661363614604
sVassignment
p3685
F0.34820660902478673
sVmoment
p3686
F0.6727797021675744
sVpurpose
p3687
F0.4257288855474377
sVinfused
p3688
F0.4172568807250437
sVtask
p3689
F0.2819525952261938
sVdystopian
p3690
F0.3928390704036094
sVnewsreels
p3691
F1.2614143466615033
sVlandmark
p3692
F0.46603267395349496
sVentry
p3693
F0.46603267395349496
sVspend
p3694
F0.3811713571735518
sValluring
p3695
F0.3928390704036094
sVprofoundly
p3696
F0.4008152947695229
sVshape
p3697
F0.45219103750440215
sValternative
p3698
F0.4257288855474377
sVrundown
p3699
F0.4214715966919633
sVcut
p3700
F0.3588652662991374
sVdragout
p3701
F0.6943450426582044
sVsparta
p3702
F0.3661516848271987
sValternate
p3703
F0.44766912712935814
sVdormont
p3704
F0.4257288855474377
sVsnag
p3705
F0.45675862374182036
sVsource
p3706
F0.38891067969957327
sVanticrime
p3707
F0.44766912712935814
sVmod
p3708
F0.38502157290257755
sVsinise
p3709
F0.38502157290257755
sVbik
p3710
F0.6285815091742153
sVadversaries
p3711
F0.4089534687986153
sVbig
p3712
F0.09597165653430428
sVbid
p3713
F0.3661516848271987
sVdisplace
p3714
F0.43002917732064416
sVmatters
p3715
F0.3278296102870718
sVbiz
p3716
F0.4089534687986153
sVbit
p3717
F0.798131721624983
sVfunfilled
p3718
F0.3278296102870718
sVhardy
p3719
F0.2819525952261938
sVfollows
p3720
F0.10013851342874468
sVhumorous
p3721
F0.3517238474997846
sVtriceratops
p3722
F0.46137234721396
sVback
p3723
F0.07921346587486966
sVmartial
p3724
F4.707360121941298
sVuptons
p3725
F0.4008152947695229
sVdeceits
p3726
F0.38502157290257755
sVmirror
p3727
F0.4214715966919633
sVpet
p3728
F0.4257288855474377
sVsaad
p3729
F0.38891067969957327
sVinvade
p3730
F0.45219103750440215
sVpatient
p3731
F0.4214715966919633
sVufo
p3732
F0.08027409555544825
sV300
p3733
F0.4089534687986153
sVcontinuing
p3734
F0.6285815091742153
sVrosamund
p3735
F0.38502157290257755
sVsubconscious
p3736
F0.45219103750440215
sVgalifianakis
p3737
F0.44319243585806456
sVannalise
p3738
F0.3928390704036094
sVdystopia
p3739
F0.45675862374182036
sVaibileen
p3740
F0.4257288855474377
sVdrama
p3741
F0.3563618564198005
sVbestseller
p3742
F0.4638473506507043
sVgrammy
p3743
F0.4008152947695229
sValiens
p3744
F0.2524429443935348
sVinvading
p3745
F0.46137234721396
sVharasses
p3746
F0.35527661363614604
sVsteven
p3747
F0.6593913860944393
sVlesson
p3748
F0.38891067969957327
sVdelusional
p3749
F0.46137234721396
sVoverpower
p3750
F0.43437290638448905
sVlogue
p3751
F0.308645070471144
sVopponent
p3752
F0.3588652662991374
sVspiliotopoulos
p3753
F0.40486393411062915
sVboseman
p3754
F0.3928390704036094
sVinvite
p3755
F0.4214715966919633
sVselfesteemed
p3756
F0.3735860471657981
sVhoped
p3757
F0.44766912712935814
sVboys
p3758
F0.4257288855474377
sVhopes
p3759
F0.6660519051458988
sVdirected
p3760
F0.10320376855870683
sVlegacy
p3761
F0.4257288855474377
sVplanet
p3762
F0.35527661363614604
sVexploration
p3763
F0.32130580104235906
sVviacom
p3764
F0.38891067969957327
sVteerada
p3765
F0.798131721624983
sVcurt
p3766
F0.45219103750440215
sVconstant
p3767
F0.3278296102870718
sVexpedition
p3768
F0.44766912712935814
sVscarlet
p3769
F0.38502157290257755
sVsingle
p3770
F1.2740284901281183
sVbrethren
p3771
F0.38502157290257755
sVbrokaw
p3772
F0.37735964360181623
sVdakar
p3773
F0.798131721624983
sVintensifies
p3774
F0.44766912712935814
sVlend
p3775
F0.39680714182182764
sVrestoration
p3776
F0.798131721624983
sVprepares
p3777
F0.22830487387195728
sVsong
p3778
F0.33114102049199173
sVphenomenally
p3779
F0.34820660902478673
sVpowerhungry
p3780
F0.35527661363614604
sVmantel
p3781
F0.4214715966919633
sV2002
p3782
F0.4089534687986153
sV2003
p3783
F0.6527974722334954
sV2004
p3784
F0.3245513141842011
sVcolonial
p3785
F0.7122434585433887
sV2008
p3786
F0.39680714182182764
sV2009
p3787
F0.43002917732064416
sVafghanistans
p3788
F0.30250303356876823
sVjason
p3789
F0.17907838091043704
sVcynthia
p3790
F0.4214715966919633
sVcompose
p3791
F0.4257288855474377
sVspecatular
p3792
F0.43437290638448905
sVbruhl
p3793
F0.3588652662991374
sVhelps
p3794
F0.6403188783853244
sVfatal
p3795
F0.798131721624983
sVexpertize
p3796
F1.2614143466615033
sVputting
p3797
F0.44319243585806456
sVclemens
p3798
F0.38502157290257755
sVentire
p3799
F0.2778241567556549
sVrecreation
p3800
F0.3588652662991374
sVknight
p3801
F0.116432231474003
sVjoel
p3802
F0.44766912712935814
sVshock
p3803
F0.3698501866941401
sVchuchu
p3804
F0.798131721624983
sVmin
p3805
F0.4257288855474377
sVsquarepants
p3806
F0.3588652662991374
sVhavent
p3807
F0.4214715966919633
sVcarlo
p3808
F0.38891067969957327
sVdepression
p3809
F0.38502157290257755
sVmarked
p3810
F0.4089534687986153
sVgiving
p3811
F0.4214715966919633
sVanthem
p3812
F0.4214715966919633
sVaccess
p3813
F0.2819525952261938
sVexercise
p3814
F0.3412772975051935
sV3d
p3815
F0.4214715966919633
sVbody
p3816
F0.8522890795088823
sV50th
p3817
F0.45219103750440215
sVbeasts
p3818
F0.4214715966919633
sVsprung
p3819
F0.798131721624983
sVbachelor
p3820
F0.4008152947695229
sVothers
p3821
F0.19052355905227492
sVsing
p3822
F0.45675862374182036
sVextreme
p3823
F0.798131721624983
sVtalent
p3824
F0.23529332079282497
sVweinstein
p3825
F0.29807368912440124
sV30
p3826
F0.43437290638448905
sVhonor
p3827
F1.1852236294965262
sVnamed
p3828
F0.2359648575471479
sVcrashing
p3829
F0.43437290638448905
sVprivate
p3830
F0.43233604225998434
sVlimo
p3831
F0.4214715966919633
sVscandal
p3832
F0.40486393411062915
sVfestivals
p3833
F0.45219103750440215
sVstaple
p3834
F0.4214715966919633
sVseamless
p3835
F0.44766912712935814
sVdebbie
p3836
F0.45675862374182036
sVbutler
p3837
F0.3588652662991374
sVthemselves
p3838
F0.17853302647058725
sVupcoming
p3839
F0.5502711858774573
sVmoustafa
p3840
F0.43437290638448905
sVtrail
p3841
F0.34472454293453886
sVtrain
p3842
F0.16551654416050693
sVminions
p3843
F0.22830487387195728
sVaccount
p3844
F0.3588652662991374
sVf
p3845
F0.38502157290257755
sVfeig
p3846
F0.3698501866941401
sVsmear
p3847
F0.44319243585806456
sVtarantino
p3848
F0.3698501866941401
sVreconstructed
p3849
F0.3928390704036094
sVreserves
p3850
F0.45675862374182036
sVscarface
p3851
F0.4257288855474377
sVnative
p3852
F0.9249396769822145
sVlamb
p3853
F0.37735964360181623
sVvaried
p3854
F0.798131721624983
sVdemocracy
p3855
F0.4089534687986153
sVdinners
p3856
F0.4214715966919633
sVboxing
p3857
F0.6943450426582044
sVregions
p3858
F0.38891067969957327
sVneverbeforeseen
p3859
F0.2735783211953806
sVresponsibilities
p3860
F0.45219103750440215
sVforest
p3861
F0.43002917732064416
sVcarvers
p3862
F0.4214715966919633
sVwaters
p3863
F0.30555861976643256
sVcollection
p3864
F0.3245513141842011
sVmilos
p3865
F0.6943450426582044
sVcomingofage
p3866
F0.2935183909687422
sVlines
p3867
F0.3624901679789267
sVcorrespond
p3868
F0.46137234721396
sVfilmbuff
p3869
F0.38891067969957327
sVchief
p3870
F0.3588652662991374
sVlaurie
p3871
F0.43437290638448905
sVdespite
p3872
F0.262798243762781
sVcrossedeven
p3873
F0.4257288855474377
sVcharting
p3874
F0.38502157290257755
sVaustrian
p3875
F0.3588652662991374
sVgalaxy
p3876
F0.2848006012385796
sVbunch
p3877
F0.45675862374182036
sVtso
p3878
F0.35527661363614604
sVlc
p3879
F1.2740284901281183
sVaspiring
p3880
F0.41308431191779327
sVdr
p3881
F0.24249568513708142
sVrelativity
p3882
F0.44319243585806456
sVwinning
p3883
F0.24991851494959946
sVage
p3884
F0.14919700755863582
sVlt
p3885
F0.4172568807250437
sVwilling
p3886
F0.40486393411062915
sVcriminal
p3887
F0.8398095950727058
sVdad
p3888
F0.37735964360181623
sVadangerous
p3889
F0.3928390704036094
sVgreater
p3890
F0.31491181560161613
sVpatalas
p3891
F0.798131721624983
sVdebonair
p3892
F0.3588652662991374
sVdan
p3893
F0.37735964360181623
sVday
p3894
F0.2415154745319335
sVfebruary
p3895
F0.44766912712935814
sVthrill
p3896
F0.4214715966919633
sVestranged
p3897
F0.38502157290257755
sVidentified
p3898
F0.38891067969957327
sVmemoir
p3899
F0.4214715966919633
sVmichaels
p3900
F0.5233024225161353
sVwarner
p3901
F0.2964832232007497
sVeinstein
p3902
F0.32130580104235906
sVprogrammed
p3903
F0.3928390704036094
sVtsos
p3904
F0.4214715966919633
sVfilmmaking
p3905
F0.4172568807250437
sVhuntington
p3906
F0.38502157290257755
sVrex
p3907
F0.38502157290257755
sVretrievals
p3908
F0.38502157290257755
sVdefend
p3909
F0.19244803944674235
sVsocalled
p3910
F0.34820660902478673
sVred
p3911
F0.308645070471144
sVharold
p3912
F0.4172568807250437
sVjessica
p3913
F0.798131721624983
sVfrank
p3914
F0.25756855871190165
sVfourteen
p3915
F0.3661516848271987
sVanalytical
p3916
F0.3735860471657981
sVapproaches
p3917
F0.30250303356876823
sVlotsohuggin
p3918
F0.4008152947695229
sVretriever
p3919
F0.3811713571735518
sVmortal
p3920
F0.46603267395349496
sVsouth
p3921
F0.2603393920361143
sVejiofor
p3922
F0.4214715966919633
sVchiwetel
p3923
F0.4214715966919633
sVreached
p3924
F0.4257288855474377
sVancient
p3925
F0.3735860471657981
sVpakistani
p3926
F0.43002917732064416
sVexplanation
p3927
F0.38502157290257755
sVnobody
p3928
F0.41308431191779327
sVloved
p3929
F0.308645070471144
sVlover
p3930
F0.3517238474997846
sVvisited
p3931
F0.4089534687986153
sVgambon
p3932
F0.45219103750440215
sVimaginative
p3933
F0.47549502494999996
sVsurvives
p3934
F0.34820660902478673
sVhalf
p3935
F0.31809274303193547
sVcomfortably
p3936
F0.4089534687986153
sVunlikely
p3937
F0.15509981918729593
sVhave
p3938
F0.014453540672607129
sVtenyearold
p3939
F0.43437290638448905
sVmia
p3940
F0.34472454293453886
sVgravity
p3941
F0.32130580104235906
sVconcerns
p3942
F0.45219103750440215
sVintouchables
p3943
F1.2740284901281183
sVmariareplica
p3944
F0.3928390704036094
sVunless
p3945
F0.6089368821075716
sVsymbolism
p3946
F0.4089534687986153
sVgrandmaster
p3947
F0.6012219392331217
sVcomputeranimated
p3948
F0.44766912712935814
sVeight
p3949
F0.39680714182182764
sVprisoner
p3950
F0.4214715966919633
sVsally
p3951
F0.38502157290257755
sVherman
p3952
F0.6285815091742153
sVenthusiastic
p3953
F0.4089534687986153
sVgather
p3954
F0.43437290638448905
sVrequest
p3955
F0.798131721624983
sVoccasion
p3956
F0.38502157290257755
sVmi5
p3957
F0.3588652662991374
sVmorocco
p3958
F0.3278296102870718
sVselection
p3959
F0.3698501866941401
sVgalvanizing
p3960
F0.43002917732064416
sVhamlet
p3961
F0.4089534687986153
sVstaff
p3962
F0.38891067969957327
sVinspiring
p3963
F0.798131721624983
sVsparks
p3964
F0.45675862374182036
sVcommunist
p3965
F0.4172568807250437
sVamplify
p3966
F0.3588652662991374
sVyanin
p3967
F0.798131721624983
sVbear
p3968
F0.2708425379834268
sVperfection
p3969
F0.3735860471657981
sVareas
p3970
F0.39680714182182764
sVunauthorized
p3971
F0.45675862374182036
sVfixer
p3972
F0.3735860471657981
sVteams
p3973
F0.2708425379834268
sVwormholes
p3974
F0.32130580104235906
sVexcesses
p3975
F0.40486393411062915
sVnational
p3976
F0.2791330692739319
sVshowdown
p3977
F0.41308431191779327
sVenhanced
p3978
F0.37735964360181623
sVawaits
p3979
F0.4089534687986153
sVturks
p3980
F0.37735964360181623
sVattempting
p3981
F0.33786452453014154
sVicecream
p3982
F0.41308431191779327
sVturka
p3983
F0.4257288855474377
sVroutine
p3984
F0.44319243585806456
sVprogress
p3985
F0.43437290638448905
sVmonarchs
p3986
F0.45219103750440215
sV20032005
p3987
F0.4257288855474377
sVdeliver
p3988
F0.45219103750440215
sVhandpicked
p3989
F0.43002917732064416
sVspitzfire
p3990
F0.4257288855474377
sVempathy
p3991
F0.46137234721396
sVinstant
p3992
F0.44766912712935814
sVnicloux
p3993
F0.38891067969957327
sVrobberies
p3994
F0.43002917732064416
sVtaking
p3995
F0.33786452453014154
sVruffalo
p3996
F0.34472454293453886
sVequal
p3997
F0.44319243585806456
sVtrips
p3998
F0.4214715966919633
sVpassing
p3999
F0.43437290638448905
sVreborn
p4000
F0.44319243585806456
sVdenis
p4001
F0.33448587928484014
sVmanhood
p4002
F0.33114102049199173
sVmafia
p4003
F0.4926788429323965
sVtremendous
p4004
F0.4089534687986153
sVcopies
p4005
F0.33114102049199173
sVdarren
p4006
F0.38502157290257755
sVteamwork
p4007
F0.3517238474997846
sVdefine
p4008
F0.30250303356876823
sVjuggles
p4009
F0.3698501866941401
sVcop
p4010
F0.3396769778867756
sVperplexes
p4011
F0.46137234721396
sVfellow
p4012
F0.5671150705890223
sVnapoleon
p4013
F0.44319243585806456
sVvolunteer
p4014
F0.38502157290257755
sVappearance
p4015
F0.45219103750440215
sVvalue
p4016
F0.38891067969957327
sVcarved
p4017
F0.41308431191779327
sValmost
p4018
F0.5128887043080644
sVhelped
p4019
F0.34820660902478673
sVarrangements
p4020
F0.4214715966919633
sVclaimed
p4021
F0.4214715966919633
sVpartner
p4022
F0.22830487387195728
sVfoxx
p4023
F0.38891067969957327
sVmahatma
p4024
F0.798131721624983
sVamazteur
p4025
F0.38891067969957327
sVmysteryshrouded
p4026
F0.43002917732064416
sVinjured
p4027
F0.43002917732064416
sVkidnapping
p4028
F0.45675862374182036
sVselfish
p4029
F0.45675862374182036
sVsamantha
p4030
F0.4214715966919633
sVscholars
p4031
F0.5558294806843005
sVpeewee
p4032
F0.4089534687986153
sVweapon
p4033
F0.45219103750440215
sVthought
p4034
F0.2791330692739319
sV19yearold
p4035
F0.38502157290257755
sVinterpol
p4036
F0.798131721624983
sVposition
p4037
F0.46137234721396
sVlatest
p4038
F0.29058320705905477
sVtheron
p4039
F0.38502157290257755
sVmadnessor
p4040
F0.4008152947695229
sVproximity
p4041
F0.38891067969957327
sVexecutive
p4042
F0.6462694975111598
sVcattype
p4043
F0.737061254251595
sVscanlon
p4044
F0.40486393411062915
sVlake
p4045
F0.37735964360181623
sVadd
p4046
F0.4257288855474377
sVspirals
p4047
F0.41308431191779327
sVcitizen
p4048
F0.4214715966919633
sVghen
p4049
F0.2735783211953806
sVmatch
p4050
F0.6216736783467905
sVstoryboard
p4051
F0.4257288855474377
sVdesperately
p4052
F0.7145978623082158
sVlike
p4053
F0.24494513650210245
sVsuccess
p4054
F0.3698501866941401
sVhousekeeper
p4055
F0.4008152947695229
sVstrawberryscented
p4056
F0.4008152947695229
sVkingsman
p4057
F0.3811713571735518
sVworks
p4058
F0.2964832232007497
sVitalian
p4059
F0.38891067969957327
sVclassical
p4060
F0.4089534687986153
sVhail
p4061
F0.43437290638448905
sVproper
p4062
F0.4089534687986153
sVhappens
p4063
F0.2601702613251532
sVunpredictable
p4064
F0.6933735911997998
sVhurricane
p4065
F0.4214715966919633
sVshelter
p4066
F0.43437290638448905
sVmasked
p4067
F0.3735860471657981
sVassuming
p4068
F0.44766912712935814
sVleafie
p4069
F0.34820660902478673
sVpepper
p4070
F0.40486393411062915
sVstellar
p4071
F0.44766912712935814
sVhost
p4072
F0.2601702613251532
sValthough
p4073
F0.3684105081788954
sVretribution
p4074
F0.43437290638448905
sVabout
p4075
F0.32920923980786426
sVjustin
p4076
F0.3624901679789267
sVintroduces
p4077
F0.38891067969957327
sVjennys
p4078
F0.45219103750440215
sVchildrens
p4079
F0.3588652662991374
sVdoret
p4080
F0.798131721624983
sVdoesnt
p4081
F0.31491181560161613
sVfemale
p4082
F0.2819525952261938
sV1987
p4083
F0.4008152947695229
sVdizzying
p4084
F0.3928390704036094
sV1982
p4085
F0.44766912712935814
sVlegends
p4086
F0.44319243585806456
sV1981
p4087
F0.3811713571735518
sV1989
p4088
F0.34472454293453886
sVglimmer
p4089
F0.3412772975051935
sVbiggest
p4090
F0.17580460327901115
sVbus
p4091
F0.38502157290257755
sVbrand
p4092
F0.46603267395349496
sVsequel
p4093
F0.482874533958042
sVbut
p4094
F0.0002039759626407991
sVknockdown
p4095
F0.6943450426582044
sVwise
p4096
F0.3588652662991374
sVmaggies
p4097
F0.798131721624983
sVdangerous
p4098
F0.1085224483364038
sVpeeta
p4099
F0.4387605114994839
sVj
p4100
F0.3624901679789267
sVminutes
p4101
F0.30555861976643256
sVdeaths
p4102
F0.45675862374182036
sVpia
p4103
F0.798131721624983
sVcircus
p4104
F1.2740284901281183
sVcrusade
p4105
F0.4089534687986153
sVperiods
p4106
F0.46603267395349496
sVrelates
p4107
F0.4257288855474377
sVmysteriously
p4108
F0.4214715966919633
sVpit
p4109
F0.44766912712935814
sVcampus
p4110
F0.45219103750440215
sV3dtm
p4111
F0.4214715966919633
sV46
p4112
F0.43437290638448905
sVmortimer
p4113
F0.35527661363614604
sVgadon
p4114
F0.4214715966919633
sVmockingjay
p4115
F0.38502157290257755
sVdetours
p4116
F0.47074007470049994
sVhusky
p4117
F0.4089534687986153
sVdinklage
p4118
F0.4089534687986153
sV4x
p4119
F0.4008152947695229
sVkardashian
p4120
F0.3811713571735518
sVlimited
p4121
F0.4257288855474377
sVassembles
p4122
F0.33448587928484014
sVjaipur
p4123
F0.3698501866941401
sVparis
p4124
F0.45219103750440215
sVcrises
p4125
F0.46137234721396
sVpoorest
p4126
F0.43437290638448905
sVunder
p4127
F0.12730836294251593
sVmerchant
p4128
F0.39680714182182764
sVrisk
p4129
F0.3245513141842011
sVincurs
p4130
F0.35527661363614604
sVrise
p4131
F0.30250303356876823
sVevery
p4132
F0.15120221783451074
sVjack
p4133
F0.27931452727077843
sVsupersmart
p4134
F0.4214715966919633
sVencounter
p4135
F0.23061098370904776
sVdreamworks
p4136
F0.2819525952261938
sVschool
p4137
F0.3105024972809953
sVmagnate
p4138
F0.39680714182182764
sVmuchanticipated
p4139
F0.46137234721396
sVvitetzakis
p4140
F0.40486393411062915
sVkatniss
p4141
F0.38502157290257755
sVforged
p4142
F0.32130580104235906
sVenjoy
p4143
F0.3928390704036094
sVveritable
p4144
F0.38891067969957327
sVbicycle
p4145
F0.5339275813857112
sVwaterbound
p4146
F0.4214715966919633
sVsinghs
p4147
F0.798131721624983
sVsurrounding
p4148
F0.37735964360181623
sVstreet
p4149
F0.1714981128808706
sVellar
p4150
F0.4214715966919633
sVblue
p4151
F0.4214715966919633
sVhide
p4152
F0.798131721624983
sVorganisms
p4153
F0.38502157290257755
sVbeaten
p4154
F0.798131721624983
sVrevolves
p4155
F0.43002917732064416
sVpoison
p4156
F0.32130580104235906
sVconduct
p4157
F0.3928390704036094
sVseeks
p4158
F0.4089534687986153
sVphilippe
p4159
F0.798131721624983
sVzach
p4160
F0.44319243585806456
sVstudio
p4161
F0.4387605114994839
sVpath
p4162
F0.21711566339590585
sVvoice
p4163
F0.24249568513708142
sVtx
p4164
F0.4257288855474377
sVhideously
p4165
F0.3588652662991374
sVventures
p4166
F0.3928390704036094
sVleaves
p4167
F0.25756855871190165
sVchanged
p4168
F0.33786452453014154
sVmentor
p4169
F0.4089534687986153
sVchanges
p4170
F0.9615338739466133
sVpunishment
p4171
F0.46137234721396
sVprints
p4172
F0.798131721624983
sVmadge
p4173
F0.3698501866941401
sVviscera
p4174
F0.41308431191779327
sVdonnelly
p4175
F0.3698501866941401
sVwould
p4176
F1.5205005590455267
sVhospital
p4177
F0.4214715966919633
sVnotforprofit
p4178
F0.4257288855474377
sVasser
p4179
F0.38502157290257755
sVraids
p4180
F0.43437290638448905
sVcoffins
p4181
F0.46137234721396
sVmuse
p4182
F0.3698501866941401
sVcompanys
p4183
F0.3811713571735518
sVmust
p4184
F0.020761528623366995
sVjoin
p4185
F0.10743722385303976
sVcandelabra
p4186
F0.4214715966919633
sVms
p4187
F0.3661516848271987
sVmr
p4188
F0.2848006012385796
sVmy
p4189
F0.4008152947695229
sVestate
p4190
F0.5128887043080644
sVtinchi
p4191
F0.7902294273514683
sVgadgets
p4192
F0.737061254251595
sVteamthe
p4193
F0.4387605114994839
sVend
p4194
F0.36811588290666586
sVdrummer
p4195
F0.3412772975051935
sVelizabeth
p4196
F0.40486393411062915
sVmess
p4197
F0.43437290638448905
sVturing
p4198
F0.18486481882486328
sVpacinos
p4199
F0.46137234721396
sVdanny
p4200
F0.4387605114994839
sVhypotheses
p4201
F0.32130580104235906
sVdaredevil
p4202
F0.798131721624983
sVupside
p4203
F0.34820660902478673
sVultimate
p4204
F0.22376160688190533
sVenter
p4205
F0.6279532104513038
sVhedgehog
p4206
F0.4008152947695229
sVuntold
p4207
F0.5245599195989472
sVover
p4208
F0.01719202171605404
sVjerry
p4209
F0.28767737498846424
sVlondon
p4210
F0.572843505645477
sVdestroyer
p4211
F0.4387605114994839
sVwriting
p4212
F0.24494513650210245
sVcompelling
p4213
F0.6208039006939252
sVinternetsearch
p4214
F0.3811713571735518
sVbouts
p4215
F0.39680714182182764
sVrevelations
p4216
F0.4214715966919633
sVziles
p4217
F0.3928390704036094
sVkhams
p4218
F0.798131721624983
sVshadows
p4219
F0.28767737498846424
sValex
p4220
F0.10320376855870683
sVrastovich
p4221
F0.3117626974456
sVchuck
p4222
F0.3661516848271987
sVdetroit
p4223
F0.35527661363614604
sVfrantically
p4224
F0.45675862374182036
sVvictory
p4225
F0.31491181560161613
sVeach
p4226
F0.18301617063661463
sVyoakam
p4227
F0.4089534687986153
sVdiana
p4228
F0.3698501866941401
sVdiane
p4229
F0.4214715966919633
sVcelebrating
p4230
F0.33448587928484014
sVjuggling
p4231
F0.3588652662991374
sVovercame
p4232
F0.46603267395349496
sVdriving
p4233
F0.44766912712935814
sVgod
p4234
F0.2935183909687422
sVpsychic
p4235
F0.45219103750440215
sVgot
p4236
F0.45219103750440215
sVnewly
p4237
F0.30250303356876823
sVgop
p4238
F0.4089534687986153
sVwinnertakesall
p4239
F0.3661516848271987
sVarizona
p4240
F0.4089534687986153
sVassociate
p4241
F0.40486393411062915
sVfree
p4242
F0.44766912712935814
sVfred
p4243
F0.43437290638448905
sVmasterpiece
p4244
F0.4214715966919633
sVevil
p4245
F0.15899453190957175
sVmastering
p4246
F0.35527661363614604
sVwanted
p4247
F0.31491181560161613
sVlaborer
p4248
F0.798131721624983
sVlongterm
p4249
F0.3698501866941401
sVdays
p4250
F0.13268312487385264
sVcharlize
p4251
F0.38502157290257755
sVjunpei
p4252
F0.46137234721396
sVonto
p4253
F0.43002917732064416
sVindustrial
p4254
F0.43002917732064416
sV18951952
p4255
F0.40486393411062915
sVresearcher
p4256
F0.38502157290257755
sVattractions
p4257
F0.3811713571735518
sVlovable
p4258
F0.38502157290257755
sVfantasy
p4259
F0.43002917732064416
sVtoy
p4260
F0.24991851494959946
sVdesai
p4261
F0.3698501866941401
sVtop
p4262
F0.3117626974456
sVfiction
p4263
F0.6527974722334957
sVtoo
p4264
F0.3245513141842011
sVtom
p4265
F0.11943355268079614
sVinconvenient
p4266
F0.43437290638448905
sVunbroken
p4267
F0.38502157290257755
sVurban
p4268
F0.44766912712935814
sVmurder
p4269
F0.4455699142841375
sVcentered
p4270
F0.38891067969957327
sVserve
p4271
F0.38502157290257755
sVtook
p4272
F0.2654527714775566
sVkidnaps
p4273
F0.47074007470049994
sVscenario
p4274
F0.46137234721396
sVimmigrants
p4275
F0.32130580104235906
sVscreenplay
p4276
F0.262798243762781
sVbridge
p4277
F0.4214715966919633
sVrae
p4278
F0.3811713571735518
sVraj
p4279
F0.798131721624983
sVraw
p4280
F0.40486393411062915
sVspade
p4281
F0.43437290638448905
sVray
p4282
F0.3278296102870718
sVharper
p4283
F0.2735783211953806
sVthoroughly
p4284
F0.3928390704036094
sV1962
p4285
F0.43437290638448905
sV1963
p4286
F0.41308431191779327
sVeducator
p4287
F0.4172568807250437
sVthough
p4288
F0.4455699142841378
sVvisionary
p4289
F0.3412772975051935
sVaudition
p4290
F0.40486393411062915
sVcommanding
p4291
F0.38502157290257755
sVcoin
p4292
F0.4387605114994839
sVunorthodox
p4293
F0.45219103750440215
sVdevastating
p4294
F0.34820660902478673
sVflow
p4295
F0.41308431191779327
sVpossesses
p4296
F0.45219103750440215
sVentertaining
p4297
F0.3588652662991374
sVcontacted
p4298
F0.3588652662991374
sVsaga
p4299
F0.48287453395804214
sVqueen
p4300
F0.3245513141842011
sVpops
p4301
F0.3588652662991374
sVradio
p4302
F0.4008152947695229
sVmusicals
p4303
F0.3735860471657981
sVsabella
p4304
F0.4089534687986153
sVearth
p4305
F0.20856043996661022
sVlodge
p4306
F0.45219103750440215
sVoct
p4307
F0.45675862374182036
sVwaltz
p4308
F0.38891067969957327
sVgoong
p4309
F0.798131721624983
sVwatch
p4310
F0.3245513141842011
sVgoons
p4311
F0.3928390704036094
sVwedding
p4312
F0.38502157290257755
sVoverbearing
p4313
F0.3735860471657981
sVgareth
p4314
F0.46603267395349496
sVtwice
p4315
F0.43437290638448905
sVquintessential
p4316
F0.45219103750440215
sVghantt
p4317
F0.44319243585806456
sVswept
p4318
F0.3698501866941401
sVhabit
p4319
F0.4089534687986153
sV1960s
p4320
F0.2524429443935348
sVbonnies
p4321
F0.46137234721396
sVrobby
p4322
F0.4214715966919633
sVcorrupt
p4323
F0.46449722424119855
sVfeline
p4324
F0.45675862374182036
sVdiscovers
p4325
F0.18215797007508153
sVmum
p4326
F0.798131721624983
sVdiscovery
p4327
F1.3742201017183744
sVbargains
p4328
F0.3588652662991374
sVconfusion
p4329
F0.37735964360181623
sVhowever
p4330
F0.38438671534615376
sVboss
p4331
F0.8655162945367412
sVnightmares
p4332
F0.3588652662991374
sVadage
p4333
F0.4089534687986153
sVnews
p4334
F0.38891067969957327
sVimprove
p4335
F0.3928390704036094
sVprotect
p4336
F0.21066711107738406
sVsumpter
p4337
F0.44319243585806456
sV10time
p4338
F0.45219103750440215
sValzheimersuffering
p4339
F0.798131721624983
sVgames
p4340
F0.2524429443935348
sVfaces
p4341
F0.31491181560161613
sVvariance
p4342
F0.6943450426582044
sVsuchart
p4343
F1.2740284901281183
sVreconstructs
p4344
F0.38891067969957327
sVsmuggler
p4345
F0.33786452453014154
sVmajestic
p4346
F0.3117626974456
sVesposito
p4347
F0.798131721624983
sVtrust
p4348
F1.2740284901281183
sVhitler
p4349
F0.798131721624983
sVbeen
p4350
F0.16697953520188352
sVquickly
p4351
F0.23529332079282497
sVmiraculously
p4352
F0.4214715966919633
sVexpected
p4353
F0.3698501866941401
sVspeeches
p4354
F0.40486393411062915
sVcatch
p4355
F0.44766912712935814
sVteapot
p4356
F0.4214715966919633
sVstrangest
p4357
F0.30555861976643256
sVdepp
p4358
F0.23061098370904776
sVsubnormal
p4359
F0.38502157290257755
sVculturechanging
p4360
F0.4214715966919633
sVprovocative
p4361
F0.38502157290257755
sVbrutal
p4362
F0.49336911090130414
sVexterior
p4363
F0.4214715966919633
sVcontaining
p4364
F0.27634173858119254
sVniki
p4365
F0.3588652662991374
sVturow
p4366
F0.37735964360181623
sVcomplex
p4367
F0.43437290638448905
sVseveral
p4368
F0.2806304613693487
sVpick
p4369
F0.46137234721396
sVcharacters
p4370
F0.23061098370904776
sVgroundbreaking
p4371
F0.3624901679789267
sVcharlie
p4372
F0.2376700210028535
sVboxer
p4373
F0.6943450426582044
sVimpediment
p4374
F0.45219103750440215
sVgreatest
p4375
F0.24494513650210245
sVmother
p4376
F0.07947135459989377
sVhearts
p4377
F0.3811713571735518
sVspencer
p4378
F0.37735964360181623
sVdads
p4379
F0.3811713571735518
sVagency
p4380
F0.3735860471657981
sVmeetandgreet
p4381
F0.4257288855474377
sVtransporting
p4382
F0.44319243585806456
sVcampbell
p4383
F0.44319243585806456
sVdepart
p4384
F0.4008152947695229
sVbloodbath
p4385
F0.3588652662991374
sVbrandnew
p4386
F0.3811713571735518
sVhumanity
p4387
F0.44766912712935814
sVbreaks
p4388
F0.4257288855474377
sVcultural
p4389
F0.2149445067619468
sVbando
p4390
F0.4257288855474377
sVjudge
p4391
F0.4172568807250437
sVburns
p4392
F0.3928390704036094
sVtwotime
p4393
F0.20856043996661022
sVapart
p4394
F0.308645070471144
sVzeal
p4395
F0.3245513141842011
sVhunt
p4396
F0.10636285161450937
sVunsuspecting
p4397
F0.41308431191779327
sVofficer
p4398
F0.33448587928484014
sVhung
p4399
F1.339016747238381
sVgifted
p4400
F0.3588652662991374
sVspongebob
p4401
F0.3588652662991374
sVjennifer
p4402
F0.3735860471657981
sVdonald
p4403
F0.3698501866941401
sVescape
p4404
F0.24494513650210245
sVice
p4405
F0.44766912712935814
sVeverything
p4406
F0.24741932980010348
sVchristmas
p4407
F0.46137234721396
sVespionage
p4408
F0.33448587928484014
sVcore
p4409
F0.4089534687986153
sVbrawl
p4410
F0.6943450426582044
sVcorn
p4411
F0.4214715966919633
sVlaughaminute
p4412
F0.3811713571735518
sVnewcomer
p4413
F0.4214715966919633
sVwolflike
p4414
F0.3624901679789267
sVnighy
p4415
F0.3698501866941401
sVchapter
p4416
F0.3412772975051935
sVcowboy
p4417
F0.4089534687986153
sVattacks
p4418
F0.43437290638448905
sVsardar
p4419
F0.798131721624983
sVmontana
p4420
F0.4257288855474377
sVensure
p4421
F0.3588652662991374
sVnerveracking
p4422
F0.798131721624983
sV42s
p4423
F0.44319243585806456
sVsept
p4424
F0.45675862374182036
sVduke
p4425
F0.4008152947695229
sVpresence
p4426
F0.4214715966919633
sVcivil
p4427
F0.5077598172649838
sVcoastal
p4428
F0.38891067969957327
sVexisted
p4429
F0.4257288855474377
sVclass
p4430
F0.12366934294693407
sVstuck
p4431
F0.38502157290257755
sVcrews
p4432
F0.44766912712935814
sVhead
p4433
F0.13674457551110808
sVamateur
p4434
F0.39680714182182764
sVhirsch
p4435
F0.46137234721396
sV26th
p4436
F0.43437290638448905
sVuncle
p4437
F0.3698501866941401
sVheilbroner
p4438
F0.43002917732064416
sVdubey
p4439
F0.3698501866941401
sVversions
p4440
F0.4089534687986153
sVheartwarming
p4441
F0.44319243585806456
sVprematurely
p4442
F0.38502157290257755
sVtrio
p4443
F0.20034232647577033
sVfury
p4444
F0.3117626974456
sVacclaimed
p4445
F0.3811713571735518
sVtrip
p4446
F0.34820660902478673
sVradically
p4447
F0.798131721624983
sVfaithful
p4448
F0.45219103750440215
sVno
p4449
F0.11905789031044442
sVwhen
p4450
F0.027877244802227193
sVng
p4451
F0.7902294273514683
sVtim
p4452
F0.4089534687986153
sVtin
p4453
F0.43002917732064416
sVsetting
p4454
F0.37735964360181623
sVvanished
p4455
F0.7145978623082158
sVpseudonym
p4456
F0.4214715966919633
sVpicture
p4457
F0.3661516848271987
sVfootball
p4458
F0.38502157290257755
sVtrailers
p4459
F0.43002917732064416
sVskeeter
p4460
F0.4257288855474377
sVyounger
p4461
F0.2524429443935348
sVlonger
p4462
F0.737061254251595
sVverve
p4463
F0.4214715966919633
sVvietnam
p4464
F0.2964832232007497
sVserious
p4465
F0.35527661363614604
sVcoach
p4466
F0.43437290638448905
sVremarkable
p4467
F0.21066711107738406
sVrob
p4468
F0.14379180468343203
sVfocus
p4469
F0.2400707282857106
sVleads
p4470
F0.09523072988251371
sVparker
p4471
F0.32130580104235906
sVchadwick
p4472
F0.44319243585806456
sVjungledwelling
p4473
F0.45675862374182036
sVdeblois
p4474
F0.3588652662991374
sV1942
p4475
F0.798131721624983
sV1940
p4476
F0.798131721624983
sV1944
p4477
F3.18233230792693
sVpassage
p4478
F0.3588652662991374
sVcharge
p4479
F0.33114102049199173
sVtanks
p4480
F0.4089534687986153
sVwelldeserved
p4481
F0.40486393411062915
sVroving
p4482
F0.44766912712935814
sVlevel
p4483
F0.38502157290257755
sVphilippines
p4484
F0.4089534687986153
sVcamaraderie
p4485
F0.798131721624983
sVbrother
p4486
F0.1963555141789025
sVculminating
p4487
F0.5912054823925309
sVbobventures
p4488
F0.38502157290257755
sVhighsociety
p4489
F0.46137234721396
sVsays
p4490
F0.31491181560161613
sVtrend
p4491
F0.38891067969957327
sVcolin
p4492
F0.4214715966919633
sVdev
p4493
F0.3698501866941401
sVsoldiers
p4494
F0.28767737498846424
sVfear
p4495
F0.20647483556694413
sVstands
p4496
F0.4257288855474377
sVcecile
p4497
F0.798131721624983
sVbonechilling
p4498
F0.3588652662991374
sVtranscontinental
p4499
F0.4257288855474377
sVgoes
p4500
F0.25756855871190165
sVtormentor
p4501
F0.35527661363614604
sVmoviegoers
p4502
F0.3412772975051935
sVlowlands
p4503
F0.3624901679789267
sVangelina
p4504
F0.32130580104235906
sVevolved
p4505
F0.4257288855474377
sVwater
p4506
F0.33448587928484014
sVentertain
p4507
F0.6342961721730339
sVwitch
p4508
F0.3928390704036094
sV20063013
p4509
F0.43002917732064416
sVjetstreams
p4510
F0.3117626974456
sVbased
p4511
F0.15130051092331737
sVthirty
p4512
F0.43437290638448905
sVsharpening
p4513
F0.4257288855474377
sVeberle
p4514
F0.40486393411062915
sVcrecilius
p4515
F0.4089534687986153
sVmccormick
p4516
F0.43002917732064416
sVcrisis
p4517
F0.3588652662991374
sVvivid
p4518
F0.38891067969957327
sVhandles
p4519
F0.38502157290257755
sVarabian
p4520
F0.43437290638448905
sVandy
p4521
F0.3624901679789267
sVmemory
p4522
F0.41308431191779327
sVaustralian
p4523
F0.40486393411062915
sVtoday
p4524
F0.25756855871190165
sVkerry
p4525
F0.38891067969957327
sVriot
p4526
F0.3928390704036094
sVconnellys
p4527
F0.4214715966919633
sVcases
p4528
F0.2964832232007497
sVinsights
p4529
F0.46603267395349496
sVjudi
p4530
F0.3698501866941401
sVlocal
p4531
F0.29947800323308055
sVjudd
p4532
F0.2681341126035925
sVsandstorm
p4533
F0.4089534687986153
sVferry
p4534
F0.4214715966919633
sVlaughter
p4535
F0.3735860471657981
sVattain
p4536
F0.798131721624983
sVfigure
p4537
F0.721816022533551
sVconcierge
p4538
F0.43437290638448905
sVcritic
p4539
F0.41308431191779327
sVmiddleaged
p4540
F0.798131721624983
sVafterlife
p4541
F0.43437290638448905
sV1
p4542
F0.24991851494959946
sVsundance
p4543
F0.34472454293453886
sVfourth
p4544
F0.2400707282857106
sVplus
p4545
F0.4089534687986153
sVspeaks
p4546
F0.38502157290257755
sVparamount
p4547
F0.21066711107738406
sV83
p4548
F0.3928390704036094
sVlittleknown
p4549
F0.32130580104235906
sVcrashed
p4550
F0.38502157290257755
sVheartbreaking
p4551
F0.798131721624983
sVbirthday
p4552
F0.44319243585806456
sVefforts
p4553
F0.32130580104235906
sVbadlands
p4554
F0.798131721624983
sVgerard
p4555
F0.3588652662991374
sVexclusive
p4556
F0.14093034777023172
sVbluray
p4557
F0.45675862374182036
sVmidnight
p4558
F0.3698501866941401
sVtopsecret
p4559
F0.34820660902478673
sVducklings
p4560
F0.34820660902478673
sVblart
p4561
F0.3278296102870718
sVworship
p4562
F0.4089534687986153
sVoffers
p4563
F0.43437290638448905
sVhanks
p4564
F0.2964832232007497
sVmarvels
p4565
F0.35527661363614604
sVleggy
p4566
F0.3588652662991374
sVwarranted
p4567
F0.39680714182182764
sVcaine
p4568
F0.46603267395349496
sVwagon
p4569
F0.4089534687986153
sVname
p4570
F0.31809274303193547
sVrealism
p4571
F0.38891067969957327
sVpopulated
p4572
F0.30555861976643256
sVquigley
p4573
F0.41308431191779327
sVdench
p4574
F0.3698501866941401
sVsuzanne
p4575
F0.4387605114994839
sVobsession
p4576
F0.3517238474997846
sVintended
p4577
F0.3928390704036094
sVhacker
p4578
F0.2819525952261938
sVultimately
p4579
F0.2419385581461043
sVtensions
p4580
F0.45219103750440215
sVfactory
p4581
F0.40486393411062915
sVsixyearold
p4582
F0.38891067969957327
sVcostumes
p4583
F0.4257288855474377
sVboobs
p4584
F0.41308431191779327
sVhulk
p4585
F0.40486393411062915
sVjacobsons
p4586
F0.4387605114994839
sVcostar
p4587
F0.3661516848271987
sVexplorers
p4588
F0.4257288855474377
sVestella
p4589
F0.3928390704036094
sVestelle
p4590
F0.3624901679789267
sVmotion
p4591
F0.46137234721396
sVturn
p4592
F0.12753773583832076
sVplace
p4593
F0.24874659550050818
sVfuturistic
p4594
F0.3928390704036094
sVview
p4595
F0.38891067969957327
sVchildhood
p4596
F0.21711566339590585
sVteammates
p4597
F0.43437290638448905
sVsoderbergh
p4598
F0.45219103750440215
sVsurviving
p4599
F0.45219103750440215
sVwaves
p4600
F0.3117626974456
sVclumsy
p4601
F0.737061254251595
sVsoaring
p4602
F0.3661516848271987
sVarray
p4603
F0.38502157290257755
sVgeorge
p4604
F0.06835000247829902
sVmillions
p4605
F0.32130580104235906
sVearths
p4606
F0.43437290638448905
sVgiven
p4607
F0.33786452453014154
sVian
p4608
F0.4214715966919633
sVdistrict
p4609
F0.32130580104235906
sVseibert
p4610
F0.4214715966919633
sVeurope
p4611
F0.798131721624983
sVplastic
p4612
F0.4008152947695229
sVreturns
p4613
F0.08638804601150825
sVterrifying
p4614
F0.30250303356876823
sVbounty
p4615
F0.2654527714775566
sVgives
p4616
F0.37735964360181623
sVexploring
p4617
F0.20236598633916195
sVcope
p4618
F0.47074007470049994
sVseason
p4619
F0.798131721624983
sValabamas
p4620
F0.37735964360181623
sValan
p4621
F0.32130580104235906
sVcheerleading
p4622
F0.41308431191779327
sVreleased
p4623
F0.2708425379834268
sVenigma
p4624
F0.34820660902478673
sVeyeopening
p4625
F0.38891067969957327
sVmilton
p4626
F0.4089534687986153
sVschooler
p4627
F0.45219103750440215
sVnathan
p4628
F0.17580460327901115
sVunfortunately
p4629
F0.45675862374182036
sVcryptanalyst
p4630
F0.34820660902478673
sVofficials
p4631
F0.2848006012385796
sVand
p4632
F1.8425837090750261e-34
sVtwentyeight
p4633
F0.46137234721396
sVarmored
p4634
F0.44319243585806456
sVmykelti
p4635
F0.38502157290257755
sVany
p4636
F0.49765539690141064
sVsuperman
p4637
F0.46603267395349496
sVideas
p4638
F0.45219103750440215
sVgustave
p4639
F0.43437290638448905
sVphillips
p4640
F0.4172568807250437
sVideal
p4641
F0.4214715966919633
sVanimation
p4642
F0.20441008721127468
sVsure
p4643
F0.43437290638448905
sVmultiple
p4644
F0.6727797021675743
sVfalls
p4645
F0.5406167785383135
sVheinous
p4646
F0.4214715966919633
sVproud
p4647
F0.4257288855474377
sVrenier
p4648
F0.798131721624983
sVdetective
p4649
F0.44111421514129645
sVutoyamassacre
p4650
F0.798131721624983
sVrecipe
p4651
F0.38502157290257755
sVspacey
p4652
F0.2654527714775566
sVrajs
p4653
F0.798131721624983
sVfavor
p4654
F0.4089534687986153
sVstate
p4655
F0.5393207892784965
sVcrime
p4656
F0.9144091467650303
sVafricanamerican
p4657
F0.43002917732064416
sVdekker
p4658
F0.25756855871190165
sVjazz
p4659
F0.3412772975051935
sVoconnor
p4660
F0.45675862374182036
sVtailor
p4661
F0.798131721624983
sVinstalled
p4662
F0.737061254251595
sVallout
p4663
F0.46137234721396
sVorphans
p4664
F0.4089534687986153
sVyounggu
p4665
F0.3811713571735518
sVnaked
p4666
F0.2260218251332377
sVvilleneuve
p4667
F0.33448587928484014
sVmuriel
p4668
F0.2735783211953806
sVdiscussing
p4669
F0.3624901679789267
sVreveals
p4670
F0.39099696700017883
sVemoto
p4671
F0.39680714182182764
sVpsychopaths
p4672
F0.43437290638448905
sVcollege
p4673
F0.24494513650210245
sV1927
p4674
F0.3928390704036094
sVfails
p4675
F0.45675862374182036
sVvisceral
p4676
F0.4214715966919633
sVgenerosity
p4677
F0.4257288855474377
sVfederal
p4678
F0.34472454293453886
sVweapons
p4679
F0.45219103750440215
sVfreder
p4680
F0.3928390704036094
sVarrival
p4681
F0.2524429443935348
sVfearless
p4682
F0.44319243585806456
sVinseparable
p4683
F0.45219103750440215
sV20
p4684
F0.43002917732064416
sVcities
p4685
F0.4089534687986153
sVcome
p4686
F0.2654527714775566
sVacquiring
p4687
F0.3412772975051935
sVregion
p4688
F0.44766912712935814
sVjokmok
p4689
F0.798131721624983
sVminionkindfrom
p4690
F0.38502157290257755
sVberry
p4691
F0.31491181560161613
sVrailway
p4692
F0.4257288855474377
sVduty
p4693
F0.33786452453014154
sVcabal
p4694
F0.6943450426582044
sVpov
p4695
F0.4214715966919633
sVpot
p4696
F0.30250303356876823
sVcolony
p4697
F0.29058320705905477
sVperiod
p4698
F0.46137234721396
sV60
p4699
F0.43437290638448905
sV64
p4700
F0.4214715966919633
sV65
p4701
F0.4387605114994839
sVkowloon
p4702
F0.33448587928484014
sV69
p4703
F0.798131721624983
sVrunaway
p4704
F0.4172568807250437
sVhoward
p4705
F0.27634173858119254
sVsegrand
p4706
F0.4214715966919633
sVfilmmakers
p4707
F0.44766912712935814
sVmemento
p4708
F0.45219103750440215
sVfeaturing
p4709
F0.14819329369960396
sV500
p4710
F0.43002917732064416
sV630
p4711
F0.45675862374182036
sVdirection
p4712
F0.38502157290257755
sVcowrote
p4713
F0.4214715966919633
sVandrew
p4714
F0.21279506169432733
sV6s
p4715
F0.3928390704036094
sVstandup
p4716
F0.3811713571735518
sVtamil
p4717
F0.798131721624983
sVspirit
p4718
F0.24249568513708142
sVpilot
p4719
F0.44766912712935814
sVpaying
p4720
F0.3811713571735518
sVhughes
p4721
F0.38502157290257755
sVspiderman
p4722
F0.4089534687986153
sVmount
p4723
F0.32130580104235906
sVcash
p4724
F0.3278296102870718
sVcast
p4725
F0.1085224483364038
sVmouna
p4726
F0.32130580104235906
sVpunches
p4727
F0.35527661363614604
sVcandies
p4728
F0.38891067969957327
sVsomeone
p4729
F0.3412772975051935
sVresentful
p4730
F0.45675862374182036
sVauthor
p4731
F0.38891067969957327
sVgranted
p4732
F0.3661516848271987
sVpostwar
p4733
F0.3117626974456
sVevents
p4734
F0.06835000247829902
sVmusters
p4735
F0.4089534687986153
sVweek
p4736
F0.3811713571735518
sVtwosome
p4737
F0.41308431191779327
sVdriver
p4738
F0.3278296102870718
sVdrives
p4739
F0.3624901679789267
sVunearths
p4740
F0.38502157290257755
sVproducers
p4741
F0.40486393411062915
sVhawkeye
p4742
F0.40486393411062915
sVchanging
p4743
F0.30555861976643256
sVperennial
p4744
F0.4008152947695229
sVeerie
p4745
F0.4214715966919633
sVmagical
p4746
F0.3278296102870718
sVwithout
p4747
F0.5422139423142873
sVreward
p4748
F0.35527661363614604
sVdesolate
p4749
F0.3698501866941401
sVcaptures
p4750
F0.35527661363614604
sVactions
p4751
F0.33114102049199173
sVinception
p4752
F0.4214715966919633
sVviolent
p4753
F0.16332150046385152
sVpariah
p4754
F0.4089534687986153
sVkill
p4755
F0.13268312487385264
sVharrison
p4756
F0.41308431191779327
sVwomans
p4757
F0.38502157290257755
sVseems
p4758
F0.5935453805692888
sVexcept
p4759
F0.35527661363614604
sVlets
p4760
F0.45675862374182036
sVbriggs
p4761
F0.41308431191779327
sVstyles
p4762
F0.4329417669142039
sVjoni
p4763
F0.33448587928484014
sVkennedy
p4764
F0.38502157290257755
sVbuddies
p4765
F0.3698501866941401
sVmouthwateringly
p4766
F0.4214715966919633
sVrecalls
p4767
F0.46137234721396
sVtower
p4768
F0.46137234721396
sVcompetition
p4769
F0.29058320705905477
sVthenyou
p4770
F0.4089534687986153
sVcowboys
p4771
F0.38891067969957327
sVcaribbean
p4772
F0.3245513141842011
sVfrees
p4773
F0.44766912712935814
sVteachings
p4774
F0.43437290638448905
sVslick
p4775
F0.4089534687986153
sVmoon
p4776
F0.46137234721396
sVprovides
p4777
F0.4172568807250437
sVmetropolis
p4778
F0.5561908126626847
sVwarlords
p4779
F0.45675862374182036
sVcalmer
p4780
F0.38891067969957327
sVmclafferty
p4781
F0.798131721624983
sVsupervillain
p4782
F0.38502157290257755
sVon
p4783
F6.916350756379364e-06
sVof
p4784
F7.744894754264986e-30
sVshrimp
p4785
F0.38502157290257755
sVaddition
p4786
F0.3811713571735518
sVoz
p4787
F0.3811713571735518
sVequalize
p4788
F0.4257288855474377
sVgregory
p4789
F0.3412772975051935
sVdiscusses
p4790
F0.38502157290257755
sVor
p4791
F0.09240228197427316
sVtribe
p4792
F0.23061098370904776
sVtrainwrecking
p4793
F0.43437290638448905
sVrevolutionaries
p4794
F0.4214715966919633
sVgary
p4795
F0.3117626974456
sVfrostnixon
p4796
F0.25756855871190165
sVthere
p4797
F1.4194753405286253
sVstrict
p4798
F0.4214715966919633
sVdeteriorating
p4799
F0.38891067969957327
sVhighdefinition
p4800
F0.45675862374182036
sVsagaftra
p4801
F0.4257288855474377
sVamongst
p4802
F0.45219103750440215
sVidea
p4803
F0.45219103750440215
sVilluminates
p4804
F0.4089534687986153
sV10yearold
p4805
F0.3811713571735518
sVapplying
p4806
F1.2614143466615033
sVhallows
p4807
F0.46137234721396
sVcastles
p4808
F0.4214715966919633
sVtaylor
p4809
F0.31387426762764625
sVcinema
p4810
F0.33182053457580846
sVreknown
p4811
F0.38891067969957327
sVpolitics
p4812
F0.38502157290257755
sVnelsan
p4813
F0.44319243585806456
sVspends
p4814
F0.4008152947695229
sVstumbled
p4815
F0.44766912712935814
sV20thcentury
p4816
F0.32130580104235906
sVseediq
p4817
F0.13268312487385264
sVstumbles
p4818
F0.41308431191779327
sVign
p4819
F0.43002917732064416
sVbrash
p4820
F0.4387605114994839
sVchampionship
p4821
F0.3661516848271987
sVseparate
p4822
F0.43437290638448905
sVsymbol
p4823
F0.798131721624983
sVfinale
p4824
F0.46137234721396
sVincludes
p4825
F0.9810569063836476
sVbullets
p4826
F0.4008152947695229
sVkingsley
p4827
F0.4214715966919633
sVstocks
p4828
F0.39680714182182764
sVassassins
p4829
F0.3698501866941401
sVcalls
p4830
F0.40486393411062915
sVwife
p4831
F0.16978313175206178
sVodds
p4832
F0.44766912712935814
sVparsons
p4833
F0.3624901679789267
sVwebsites
p4834
F0.4214715966919633
sVdirectors
p4835
F0.24991851494959946
sVall
p4836
F0.0018537690554875752
sVphongam
p4837
F0.798131721624983
sVchinese
p4838
F0.477138318615344
sVali
p4839
F0.37735964360181623
sVlack
p4840
F0.31491181560161613
sVdish
p4841
F0.4214715966919633
sVfollow
p4842
F0.38502157290257755
sVeveryones
p4843
F0.33786452453014154
sVapartment
p4844
F0.4780457886184612
sVcatastrophe
p4845
F0.45675862374182036
sVthursday
p4846
F0.3117626974456
sVaaron
p4847
F0.45675862374182036
sVprogram
p4848
F0.3952625306864845
sVpresent
p4849
F0.3396769778867754
sVpresentation
p4850
F0.20647483556694413
sVwoman
p4851
F0.5030090012567124
sVworse
p4852
F0.43002917732064416
sVchameleon
p4853
F0.4257288855474377
sVfar
p4854
F0.09117686340579756
sVworst
p4855
F0.38891067969957327
sVvacationing
p4856
F0.39680714182182764
sVsony
p4857
F0.58173382749596
sVwily
p4858
F0.4257288855474377
sVmorchidat
p4859
F0.3278296102870718
sVlist
p4860
F0.3517238474997846
sVlisa
p4861
F0.4089534687986153
sVcaplan
p4862
F0.4089534687986153
sVemploying
p4863
F0.38891067969957327
sVten
p4864
F0.33114102049199173
sVtriforce
p4865
F0.4257288855474377
sVinvention
p4866
F0.3811713571735518
sVdesign
p4867
F0.25756855871190165
sVgunn
p4868
F0.45675862374182036
sVwhat
p4869
F0.17697757013455212
sVsun
p4870
F0.3117626974456
sVmagnolia
p4871
F0.798131721624983
sVbrief
p4872
F0.40486393411062915
sVcrush
p4873
F0.20236598633916195
sVversion
p4874
F0.3799155022015332
sVpulpit
p4875
F0.4089534687986153
sVinstilling
p4876
F0.4257288855474377
sVcinemas
p4877
F0.3735860471657981
sVchristian
p4878
F0.4089534687986153
sVdrudgery
p4879
F0.3928390704036094
sVandrews
p4880
F0.41308431191779327
sVtragedy
p4881
F0.38502157290257755
sVallows
p4882
F0.4172568807250437
sVoutposts
p4883
F0.46137234721396
sVnailbiting
p4884
F0.34820660902478673
sVsuddenly
p4885
F0.19833890321101263
sV1945
p4886
F0.32130580104235906
sVdorset
p4887
F0.43437290638448905
sVnutcases
p4888
F0.44319243585806456
sVwajdi
p4889
F0.43002917732064416
sVconspiring
p4890
F0.39680714182182764
sVbranded
p4891
F0.6864398552878016
sVaffluence
p4892
F0.39680714182182764
sVhorses
p4893
F0.33448587928484014
sVknows
p4894
F0.262798243762781
sVimmersion
p4895
F0.43437290638448905
sVstutter
p4896
F0.40486393411062915
sVhardcastle
p4897
F0.3698501866941401
sVfloyd
p4898
F0.4257288855474377
sV20000
p4899
F0.4089534687986153
sVknown
p4900
F0.11760831462020505
sVv
p4901
F0.45219103750440215
sVaudiences
p4902
F0.14524424715498185
sVchallenging
p4903
F0.30250303356876823
sVsearchlight
p4904
F0.32130580104235906
sVsaadi
p4905
F0.45219103750440215
sVcoltrane
p4906
F0.4214715966919633
sVprotects
p4907
F0.3811713571735518
sVimitation
p4908
F0.34820660902478673
sVairplane
p4909
F0.38502157290257755
sVoffspring
p4910
F0.4089534687986153
sVinfluenced
p4911
F0.43002917732064416
sVcourt
p4912
F1.2740284901281183
sVgoal
p4913
F0.31491181560161613
sVrather
p4914
F0.43437290638448905
sVbreaking
p4915
F0.31073552495136975
sVjohannesburg
p4916
F0.798131721624983
sVoccasionally
p4917
F0.4008152947695229
sVinfluences
p4918
F0.6208039006939257
sVspeeding
p4919
F0.44319243585806456
sVubiquitous
p4920
F0.4214715966919633
sVreflect
p4921
F0.34820660902478673
sVadventure
p4922
F0.04572422135614973
sVcapitalize
p4923
F0.47549502494999996
sVmeiwai
p4924
F0.6285815091742153
sVshort
p4925
F1.2303918268397647
sVshady
p4926
F0.43002917732064416
sVseptember
p4927
F0.45219103750440215
sVoverthetop
p4928
F0.40486393411062915
sVscientist
p4929
F0.4089534687986153
sVislam
p4930
F0.43437290638448905
sVunleashing
p4931
F0.46137234721396
sVprodigy
p4932
F0.22152399081308627
sVstrange
p4933
F0.33114102049199173
sVstephen
p4934
F0.38891067969957327
sVbout
p4935
F0.3989357892053656
sVmight
p4936
F0.24494513650210245
sValter
p4937
F0.3517238474997846
sVargentine
p4938
F0.798131721624983
sVholocron
p4939
F0.22376160688190533
sVreturn
p4940
F0.5318492153465099
sVhunter
p4941
F0.4247507854511701
sVunrefined
p4942
F0.3811713571735518
sVmilestone
p4943
F0.43002917732064416
sVcommunities
p4944
F0.43437290638448905
sVhunted
p4945
F0.798131721624983
sVvaughn
p4946
F0.3811713571735518
sVbollywood
p4947
F0.798131721624983
sVschoolteacher
p4948
F0.4214715966919633
sVmathematician
p4949
F0.34820660902478673
sVturns
p4950
F0.3624901679789267
sVfriendship
p4951
F0.6497363702811949
sVcharacterized
p4952
F0.38891067969957327
sVpirates
p4953
F0.3735860471657981
sVweight
p4954
F0.44766912712935814
sVstiller
p4955
F0.46137234721396
sVwilbert
p4956
F0.40486393411062915
sVhilt
p4957
F0.4257288855474377
sVhill
p4958
F0.29947800323308055
sVparadise
p4959
F0.38891067969957327
sVbenjamin
p4960
F0.798131721624983
sVhailing
p4961
F0.4257288855474377
sVcoldplays
p4962
F0.4214715966919633
sVteach
p4963
F0.9642300765280474
sVthrown
p4964
F0.4257288855474377
sVfantastical
p4965
F0.45219103750440215
sVbenedict
p4966
F0.2400707282857106
sVprejudice
p4967
F0.43437290638448905
sVthreat
p4968
F0.2819525952261938
sVdivorce
p4969
F0.798131721624983
sVthrows
p4970
F0.44319243585806456
sVcareerlaunching
p4971
F0.43002917732064416
sVtwoface
p4972
F0.4172568807250437
sVfeel
p4973
F0.4089534687986153
sVmankiewicz
p4974
F0.44319243585806456
sVtraveled
p4975
F0.44766912712935814
sVrevolution
p4976
F0.29058320705905477
sVpasses
p4977
F0.798131721624983
sVstory
p4978
F0.18780884035296191
sVscript
p4979
F0.24991851494959946
sVleading
p4980
F0.19439195903711348
sVinterviews
p4981
F0.06973778438761251
sVhangs
p4982
F0.38502157290257755
sVcollar
p4983
F0.3698501866941401
sVswarm
p4984
F0.4089534687986153
sVstorm
p4985
F0.46603267395349496
sVpitted
p4986
F0.798131721624983
sVaristocracy
p4987
F0.4008152947695229
sVstore
p4988
F0.45675862374182036
sVpump
p4989
F0.798131721624983
sVhotel
p4990
F0.15272951296415227
sVblaise
p4991
F0.4089534687986153
sVhorrifically
p4992
F0.6943450426582044
sVrifle
p4993
F0.4089534687986153
sVconvinced
p4994
F0.3661516848271987
sVuncut
p4995
F0.6943450426582044
sVking
p4996
F0.04988802644483721
sVkind
p4997
F0.7145978623082159
sVdouble
p4998
F0.44319243585806456
sVinvaded
p4999
F0.38502157290257755
sVdano
p5000
F0.38891067969957327
sVdank
p5001
F0.45675862374182036
sVrisks
p5002
F0.798131721624983
sVdane
p5003
F0.3117626974456
sVdana
p5004
F0.40486393411062915
sVunrelenting
p5005
F0.4387605114994839
sVdecadent
p5006
F0.3928390704036094
sVarsaw
p5007
F1.2614143466615033
sVgarfield
p5008
F0.45219103750440215
sValike
p5009
F0.42008296349508517
sVwilson
p5010
F0.32130580104235906
sVnights
p5011
F0.3661516848271987
sVentirety
p5012
F0.34820660902478673
sVsewashi
p5013
F1.6016615021113585
sVfinding
p5014
F0.38891067969957327
sVdonor
p5015
F0.4089534687986153
sVpopulate
p5016
F0.45675862374182036
sVwarnings
p5017
F0.40486393411062915
sVreach
p5018
F0.4089534687986153
sVreunited
p5019
F0.45675862374182036
sVcuttingedge
p5020
F0.43002917732064416
sV75
p5021
F0.45219103750440215
sV72
p5022
F0.35527661363614604
sVenduring
p5023
F0.4938627514737932
sVsandra
p5024
F0.2848006012385796
sVnothing
p5025
F0.602365404039415
sVseasons
p5026
F0.45219103750440215
sVlovechild
p5027
F0.3811713571735518
sVscreenwriter
p5028
F0.30250303356876823
sV79
p5029
F0.3624901679789267
sVron
p5030
F0.2964832232007497
sVlying
p5031
F0.798131721624983
sVtopclass
p5032
F0.798131721624983
sVshares
p5033
F0.45675862374182036
sVfelon
p5034
F0.43002917732064416
sV11yearold
p5035
F0.798131721624983
sVdeserts
p5036
F0.4257288855474377
sVrampant
p5037
F0.47549502494999996
sVheavily
p5038
F0.40486393411062915
sVgrotesque
p5039
F0.3588652662991374
sVhip
p5040
F0.37735964360181623
sVhis
p5041
F7.363029249323864e-10
sVhit
p5042
F0.29878996097488214
sValicia
p5043
F0.3811713571735518
sVhim
p5044
F0.006147900688371179
sVbudapest
p5045
F0.43437290638448905
sVadulthood
p5046
F0.262798243762781
sVbrendan
p5047
F0.3661516848271987
sVpostchristmas
p5048
F0.46137234721396
sVtimeless
p5049
F0.3117626974456
sVinvestigate
p5050
F0.2193087509049554
sVactivity
p5051
F0.44766912712935814
sVvincent
p5052
F0.798131721624983
sVrelentless
p5053
F0.4214715966919633
sVbars
p5054
F0.38502157290257755
sVart
p5055
F0.22550254637056427
sVpvt
p5056
F0.4172568807250437
sVintelligence
p5057
F0.135377129755997
sVdeming
p5058
F0.34820660902478673
sVchoreographed
p5059
F0.798131721624983
sVbare
p5060
F0.40486393411062915
sVare
p5061
F0.006665621614078795
sVchambers
p5062
F0.3278296102870718
sVromances
p5063
F0.45219103750440215
sVyouth
p5064
F0.798131721624983
sVlearns
p5065
F0.14379180468343203
sVvarious
p5066
F0.41308431191779327
sVcorruption
p5067
F0.33675135368187464
sVkorea
p5068
F0.29058320705905477
sVrecently
p5069
F0.6527974722334952
sVcreating
p5070
F0.40486393411062915
sVfranchises
p5071
F0.4387605114994839
sVattention
p5072
F0.3811713571735518
sVsucceed
p5073
F0.6665849865286494
sVfranchise
p5074
F0.22376160688190533
sVcitys
p5075
F0.24741932980010348
sVprelude
p5076
F0.44766912712935814
sVc
p5077
F5.442958973214083e-05
sVblazes
p5078
F0.3661516848271987
sVateam
p5079
F0.4172568807250437
sVriddled
p5080
F0.45219103750440215
sVroman
p5081
F0.25756855871190165
sVbecame
p5082
F0.31809274303193547
sVcontext
p5083
F0.37735964360181623
sVbond
p5084
F0.28767737498846424
sVrollers
p5085
F0.40486393411062915
sVfinds
p5086
F0.1607049400028027
sVclashing
p5087
F0.4214715966919633
sVsweet
p5088
F0.4089534687986153
sVcrystalsomething
p5089
F0.3928390704036094
sVguzman
p5090
F0.43002917732064416
sVweasel
p5091
F0.34820660902478673
sVrave
p5092
F0.798131721624983
sVduo
p5093
F0.45219103750440215
sVnader
p5094
F3.2462971873162614
sVpolitical
p5095
F0.3412772975051935
sVdue
p5096
F0.24494513650210245
sVappears
p5097
F0.44766912712935814
sVwhom
p5098
F0.3117626974456
sVpa
p5099
F0.3928390704036094
sVbrick
p5100
F0.44766912712935814
sVpm
p5101
F0.3517238474997846
sVflight
p5102
F0.46137234721396
sV1950s
p5103
F0.3811713571735518
sVsending
p5104
F0.4214715966919633
sVorchestral
p5105
F0.3624901679789267
sVimprudence
p5106
F0.798131721624983
sVdemand
p5107
F0.46603267395349496
sVinstructor
p5108
F0.41308431191779327
sVstolen
p5109
F0.2654527714775566
sVfrozen
p5110
F0.44766912712935814
sVbehavior
p5111
F0.4926788429323963
sVincognito
p5112
F0.4008152947695229
sVyuhang
p5113
F0.6285815091742153
sVdisappointing
p5114
F0.3811713571735518
sVrim
p5115
F0.34820660902478673
sVfrantic
p5116
F0.38891067969957327
sVconfirms
p5117
F0.31491181560161613
sVcriticallyacclaimed
p5118
F0.35527661363614604
sVviola
p5119
F0.37735964360181623
sVpeoples
p5120
F0.3735860471657981
sVhigher
p5121
F0.46137234721396
sVarrives
p5122
F0.3811713571735518
sVpaths
p5123
F0.308645070471144
sVwasseypur
p5124
F1.2740284901281183
sVholidays
p5125
F0.45675862374182036
sVmoving
p5126
F0.8187054891428042
sVhumanoids
p5127
F0.3588652662991374
sVcontractors
p5128
F0.37735964360181623
sVdancing
p5129
F0.38502157290257755
sVstarved
p5130
F0.798131721624983
sVdares
p5131
F0.3588652662991374
sVexgirlfriend
p5132
F0.46137234721396
sVemerge
p5133
F0.46137234721396
sVcompetitive
p5134
F0.4257288855474377
sVcomedyc
p5135
F0.46137234721396
sVturbulence
p5136
F0.38502157290257755
sVpatel
p5137
F0.3698501866941401
sVcontinent
p5138
F0.6933735911997998
sVprofitable
p5139
F0.38502157290257755
sVtables
p5140
F0.44319243585806456
sVillusions
p5141
F0.3624901679789267
sVworkers
p5142
F0.308645070471144
sVhumanoid
p5143
F0.4387605114994839
sVtormented
p5144
F0.4214715966919633
sVcostarring
p5145
F0.3245513141842011
sVgrindhouse
p5146
F0.41308431191779327
sVsightings
p5147
F0.38502157290257755
sVmanatee
p5148
F0.41308431191779327
sVmoods
p5149
F0.44319243585806456
sVillfated
p5150
F0.30250303356876823
sVhelpful
p5151
F0.44766912712935814
sVskeptical
p5152
F0.3624901679789267
sVmodifications
p5153
F0.3928390704036094
sVshaped
p5154
F0.37735964360181623
sVconfront
p5155
F0.24494513650210245
sVincidental
p5156
F0.40486393411062915
sVnairobi
p5157
F0.798131721624983
sVwizarding
p5158
F0.46137234721396
sVunderstood
p5159
F0.39680714182182764
sVsaucer
p5160
F0.38502157290257755
sVanna
p5161
F0.2935183909687422
sVzombie
p5162
F0.45219103750440215
sVtinker
p5163
F0.40486393411062915
sVrefuses
p5164
F1.059691374146173
sVintense
p5165
F0.691089115581191
sVunconfirmed
p5166
F0.38502157290257755
sVstandalone
p5167
F0.4257288855474377
sVbrooklyn
p5168
F0.35527661363614604
sVsurfers
p5169
F0.3117626974456
sVrango
p5170
F0.308645070471144
sVfantasia
p5171
F0.3588652662991374
sVdwight
p5172
F0.4089534687986153
sVcredible
p5173
F0.38502157290257755
sVyearsleads
p5174
F0.43437290638448905
sVimpressed
p5175
F0.40486393411062915
sVsonny
p5176
F0.2735783211953806
sVreawakens
p5177
F0.45675862374182036
sVquestion
p5178
F0.24494513650210245
sVamidst
p5179
F0.38502157290257755
sVsummertime
p5180
F0.46137234721396
sVtate
p5181
F0.44319243585806456
sVoutpost
p5182
F0.3928390704036094
sVstalking
p5183
F0.43002917732064416
sVstrands
p5184
F0.45219103750440215
sVcalled
p5185
F0.12120832302229008
sVboneknapper
p5186
F0.45675862374182036
sVassociated
p5187
F0.43437290638448905
sVkathryn
p5188
F0.43002917732064416
sVassociates
p5189
F0.46137234721396
sVrally
p5190
F0.33786452453014154
sVrainbow
p5191
F0.2735783211953806
sVlemon
p5192
F0.31491181560161613
sVgrouper
p5193
F0.38891067969957327
sVpeace
p5194
F0.3698501866941401
sVnick
p5195
F0.17580460327901115
sVnice
p5196
F0.4008152947695229
sVdictating
p5197
F0.3245513141842011
sVproblems
p5198
F0.44766912712935814
sVhelping
p5199
F0.2524429443935348
sVdevelops
p5200
F0.35527661363614604
sVdaly
p5201
F0.3624901679789267
sVrightful
p5202
F0.3735860471657981
sVnarrative
p5203
F0.45219103750440215
sVjoining
p5204
F0.33786452453014154
sVonce
p5205
F0.1048054533288533
sVissued
p5206
F0.40486393411062915
sVresistance
p5207
F0.4089534687986153
sVcheung
p5208
F0.6285815091742153
sVgang
p5209
F0.1085224483364038
sVwinds
p5210
F0.4257288855474377
sVleung
p5211
F0.6285815091742153
sVbrolin
p5212
F0.46137234721396
sVshanghai
p5213
F0.4214715966919633
sVlanguages
p5214
F0.37735964360181623
sVagencys
p5215
F0.3811713571735518
sVcelia
p5216
F0.3698501866941401
sVinclude
p5217
F0.3117626974456
sVdramatically
p5218
F0.43437290638448905
sVwished
p5219
F0.46603267395349496
sVmainstream
p5220
F0.798131721624983
sVengineered
p5221
F0.4089534687986153
sVcemeteries
p5222
F0.4089534687986153
sVhalfbrained
p5223
F0.44319243585806456
sVpaternity
p5224
F0.45219103750440215
sVmurdoch
p5225
F0.25756855871190165
sVsucharts
p5226
F0.798131721624983
sVpleas
p5227
F0.40486393411062915
sVwrestling
p5228
F0.3661516848271987
sVsensation
p5229
F0.4257288855474377
sVperched
p5230
F0.3811713571735518
sVtraveling
p5231
F0.46603267395349496
sVreunion
p5232
F0.46137234721396
sVfolk
p5233
F0.4089534687986153
sVkris
p5234
F0.4089534687986153
sVwaiting
p5235
F0.3278296102870718
sVcolorization
p5236
F1.2614143466615033
sVcapital
p5237
F0.4089534687986153
sVoakmont
p5238
F0.39680714182182764
sVpushing
p5239
F0.45675862374182036
sVexplore
p5240
F0.31809274303193547
sVseparation
p5241
F0.798131721624983
sVsexy
p5242
F0.41308431191779327
sVselfabsorbed
p5243
F0.45675862374182036
sVincriminating
p5244
F0.34820660902478673
sVcalvin
p5245
F0.33114102049199173
sVleaving
p5246
F0.5684778495791425
sVhelpers
p5247
F0.44766912712935814
sVselby
p5248
F0.44766912712935814
sVapple
p5249
F0.38502157290257755
sVspy
p5250
F0.19244803944674235
sVmessengers
p5251
F0.44319243585806456
sVterrapin
p5252
F0.4089534687986153
sVimprobable
p5253
F0.4257288855474377
sVboasts
p5254
F0.4257288855474377
sVfed
p5255
F0.2329403875848967
sVfrom
p5256
F1.2169293236476197e-06
sVusa
p5257
F0.2541527416156427
sVgere
p5258
F0.3698501866941401
sVfew
p5259
F0.6398068025360487
sVwesternstyle
p5260
F0.6943450426582044
sVcrimeridden
p5261
F0.47549502494999996
sVrecount
p5262
F0.43437290638448905
sVwomen
p5263
F0.0763398661379531
sVsuperheroic
p5264
F0.3588652662991374
sVsoechtig
p5265
F0.43437290638448905
sVwildest
p5266
F0.33114102049199173
sVpersuades
p5267
F0.46137234721396
sVmatinee
p5268
F0.46603267395349496
sVvillain
p5269
F0.34472454293453886
sVsomething
p5270
F0.326292349646895
sVrape
p5271
F0.798131721624983
sVsir
p5272
F0.46603267395349496
sVcliches
p5273
F0.798131721624983
sVsix
p5274
F0.5935453805692887
sVstruggles
p5275
F0.45219103750440215
sVcabbies
p5276
F0.44319243585806456
sVunites
p5277
F0.45219103750440215
sVjustifiably
p5278
F0.39680714182182764
sVinstead
p5279
F0.2935183909687422
sVpanic
p5280
F0.38891067969957327
sVsin
p5281
F0.33448587928484014
sVbertie
p5282
F0.45219103750440215
sVkunchako
p5283
F0.2848006012385796
sVcorddry
p5284
F0.4008152947695229
sVdaycare
p5285
F0.4008152947695229
sVlight
p5286
F0.2654527714775566
sVemanuel
p5287
F0.40486393411062915
sVarkham
p5288
F0.45675862374182036
sVlooks
p5289
F0.3588652662991374
sVgunslinger
p5290
F0.41308431191779327
sVnostalgic
p5291
F0.3811713571735518
sVvital
p5292
F0.38891067969957327
sVjawdropping
p5293
F0.3928390704036094
sVorange
p5294
F0.31491181560161613
sVcovered
p5295
F0.4089534687986153
sVholiday
p5296
F0.5963417499990208
sVdefining
p5297
F0.3928390704036094
sVfreeman
p5298
F0.4214715966919633
sVbumbling
p5299
F0.4089534687986153
sVcrash
p5300
F0.2654527714775566
sVmaterial
p5301
F0.39680714182182764
sVimpaired
p5302
F0.3811713571735518
sVflee
p5303
F0.33786452453014154
sVsuccessor
p5304
F0.3811713571735518
sVlandings
p5305
F0.38502157290257755
sVworlds
p5306
F0.37012763056837017
sVedit
p5307
F0.3624901679789267
sVfeast
p5308
F0.3412772975051935
sVfoshan
p5309
F0.6285815091742153
sVbilly
p5310
F0.37735964360181623
sVedin
p5311
F0.4257288855474377
sVgiamatti
p5312
F0.4214715966919633
sVtrap
p5313
F0.798131721624983
sVerratic
p5314
F0.4008152947695229
sVstudios
p5315
F0.28767737498846424
sVallnew
p5316
F0.45675862374182036
sVnorthup
p5317
F0.4214715966919633
sVour
p5318
F0.026307647946257253
sV87
p5319
F0.38891067969957327
sVout
p5320
F0.07877896605705985
sVfrontier
p5321
F0.45219103750440215
sVcerebral
p5322
F0.3811713571735518
sVchaos
p5323
F0.4214715966919633
sVoscarwinning
p5324
F0.31491181560161613
sVdive
p5325
F0.47549502494999996
sVretaker
p5326
F0.3735860471657981
sVunforgiven
p5327
F0.39680714182182764
sVyork
p5328
F0.09427842258368857
sVconflicts
p5329
F0.46137234721396
sVipos
p5330
F0.39680714182182764
sVproduce
p5331
F0.38891067969957327
sVltd
p5332
F0.43002917732064416
sVpublication
p5333
F0.37735964360181623
sVavengers
p5334
F0.31491181560161613
sVtheir
p5335
F1.27319904311672e-06
sVacademy
p5336
F0.07309016276431057
sV12yearolds
p5337
F0.4387605114994839
sVashburn
p5338
F0.3698501866941401
sVjuly
p5339
F0.33114102049199173
sVchisholm
p5340
F0.4172568807250437
sVinstitution
p5341
F0.4214715966919633
sVtommy
p5342
F0.18118600893024847
sVpatients
p5343
F0.3412772975051935
sVindividual
p5344
F0.46137234721396
sVencore
p5345
F0.43437290638448905
sVsplatter
p5346
F0.41308431191779327
sVloots
p5347
F0.798131721624983
sVteenagers
p5348
F0.38891067969957327
sVandfor
p5349
F0.43437290638448905
sVsincerity
p5350
F0.4089534687986153
sVmcquarrie
p5351
F0.41308431191779327
sVrussians
p5352
F0.3588652662991374
sVghoneimy
p5353
F0.798131721624983
sVfacessome
p5354
F0.4008152947695229
sVberrykin
p5355
F0.39680714182182764
sVfancher
p5356
F0.43437290638448905
sVwhich
p5357
F0.07665349226530112
sVgordonlevitt
p5358
F0.44319243585806456
sVcombat
p5359
F0.46603267395349496
sVwho
p5360
F0.00019765061770106112
sVcracking
p5361
F0.34820660902478673
sVdelve
p5362
F0.45219103750440215
sVwhy
p5363
F0.35007454185439296
sVdent
p5364
F0.3588652662991374
sVnapoleonthe
p5365
F0.38502157290257755
sVsolando
p5366
F0.4214715966919633
sVrejections
p5367
F0.40486393411062915
sVpulsepounding
p5368
F0.35527661363614604
sVchapters
p5369
F0.41308431191779327
sVplanning
p5370
F0.46137234721396
sVdorothy
p5371
F0.30555861976643256
sVutter
p5372
F0.37735964360181623
sVchicken
p5373
F0.35527661363614604
sVpleased
p5374
F0.46603267395349496
sVfilmed
p5375
F0.8105994942007967
sVreign
p5376
F0.45675862374182036
sVlassiter
p5377
F0.47549502494999996
sVthousands
p5378
F0.25499287312478264
sVunchained
p5379
F0.38891067969957327
sVaykroyd
p5380
F0.44319243585806456
sVones
p5381
F0.24741932980010348
sVsues
p5382
F0.798131721624983
sVcubs
p5383
F0.33448587928484014
sVgleeson
p5384
F0.3811713571735518
sVpresley
p5385
F0.38502157290257755
sVburglary
p5386
F0.34820660902478673
sVpenetrate
p5387
F0.45675862374182036
sVspur
p5388
F0.798131721624983
sVairman
p5389
F1.2614143466615033
sVseabrook
p5390
F0.4089534687986153
sVqa
p5391
F0.4257288855474377
sVmarries
p5392
F0.798131721624983
sVgenerations
p5393
F1.1765439355977894
sVdeceived
p5394
F0.4214715966919633
sVknowing
p5395
F0.38891067969957327
sVpaulson
p5396
F0.4214715966919633
sVcloser
p5397
F0.38891067969957327
sVcloses
p5398
F0.4257288855474377
sVweller
p5399
F0.44766912712935814
sVmonstrous
p5400
F0.4089534687986153
sVgenius
p5401
F0.2654527714775566
sVconverted
p5402
F0.798131721624983
sVbought
p5403
F0.4214715966919633
sVopening
p5404
F0.6943450426582044
sVjoy
p5405
F0.38891067969957327
sVjob
p5406
F0.18486481882486328
sVjoe
p5407
F0.21711566339590585
sVjoh
p5408
F0.3928390704036094
sVjon
p5409
F0.35527661363614604
sVmarrowc
p5410
F0.3588652662991374
sVapril
p5411
F0.34472454293453886
sVbronx
p5412
F0.43002917732064416
sVwall
p5413
F0.2376700210028535
sVwalk
p5414
F0.41308431191779327
sVwalt
p5415
F0.34472454293453886
sVrespect
p5416
F0.6943450426582044
sVhunters
p5417
F0.4172568807250437
sVintimidating
p5418
F0.35527661363614604
sVcharts
p5419
F0.3928390704036094
sVjaden
p5420
F0.35527661363614604
sVmike
p5421
F0.3588652662991374
sVensuring
p5422
F1.2614143466615033
sVsydow
p5423
F0.4214715966919633
sVpainter
p5424
F0.4008152947695229
sVgermanborn
p5425
F0.38891067969957327
sVabandoned
p5426
F0.5447684740186831
sVshrimping
p5427
F0.38502157290257755
sVtribeca
p5428
F0.38502157290257755
sVchoices
p5429
F0.45219103750440215
sVwill
p5430
F0.046130673973846986
sVstunning
p5431
F0.3661516848271987
sVwild
p5432
F0.3832161273568751
sVmutant
p5433
F0.7439109207919947
sVmalls
p5434
F0.40486393411062915
sVlightweight
p5435
F0.44319243585806456
sVava
p5436
F0.3811713571735518
sVterrorised
p5437
F0.46137234721396
sVlinklaters
p5438
F0.4214715966919633
sVperhaps
p5439
F0.3698501866941401
sVcross
p5440
F0.24741932980010348
sVmember
p5441
F0.27634173858119254
sVlargest
p5442
F0.33114102049199173
sVgets
p5443
F0.5817338274959598
sVgrandeur
p5444
F0.3928390704036094
sVdifficult
p5445
F0.4089534687986153
sVelbows
p5446
F0.798131721624983
sVslave
p5447
F0.1963555141789025
sVpremiere
p5448
F0.3698501866941401
sVoutcast
p5449
F0.721816022533551
sVbeast
p5450
F0.18301617063661463
sVstudent
p5451
F0.6145958616869862
sVconceives
p5452
F0.46603267395349496
sVlobby
p5453
F0.43437290638448905
sVtyne
p5454
F0.3624901679789267
sVundertakes
p5455
F0.46603267395349496
sVvalerie
p5456
F0.3624901679789267
sVfighting
p5457
F2.6554345344617936
sVenglish
p5458
F0.3245513141842011
sVcarrie
p5459
F0.4172568807250437
sVcamel
p5460
F0.43437290638448905
sV1952
p5461
F0.34820660902478673
sVtcm
p5462
F0.2654527714775566
sVhappiness
p5463
F0.737061254251595
sVdolarhyde
p5464
F0.41308431191779327
sVnicks
p5465
F0.38502157290257755
sVsmith
p5466
F0.11526790915926297
sVcapabilities
p5467
F0.3811713571735518
sVarresting
p5468
F0.34820660902478673
sVother
p5469
F0.09147825915453044
sVunprecedented
p5470
F0.39680714182182764
sVcaptivating
p5471
F0.4214715966919633
sVramadhir
p5472
F0.798131721624983
sVsammo
p5473
F0.6943450426582044
sVkristofferson
p5474
F0.4089534687986153
sVknow
p5475
F0.11999623979206718
sVcochin
p5476
F0.798131721624983
sVgeorges
p5477
F0.40486393411062915
sVmiami
p5478
F0.3698501866941401
sVloses
p5479
F0.3735860471657981
sVdancer
p5480
F0.43002917732064416
sVstarred
p5481
F0.38502157290257755
sVbecause
p5482
F0.2935183909687422
sVsequence
p5483
F0.47074007470049994
sVsearching
p5484
F0.798131721624983
sVallstars
p5485
F0.4214715966919633
sVempire
p5486
F0.24991851494959946
sVmisadventures
p5487
F0.43002917732064416
sVjeremy
p5488
F0.06904040654373639
sVlead
p5489
F0.11184433698932371
sVleap
p5490
F0.45675862374182036
sVcholodenko
p5491
F0.4089534687986153
sVleader
p5492
F0.15120221783451074
sVmurderer
p5493
F0.4008152947695229
sVmurdered
p5494
F0.44556991428413745
sVshahids
p5495
F0.798131721624983
sVinsults
p5496
F0.6943450426582044
sVthrone
p5497
F0.33114102049199173
sVpike
p5498
F0.38502157290257755
sVgetting
p5499
F0.3661516848271987
sVuniverse
p5500
F0.2935183909687422
sVown
p5501
F0.3778504287473015
sVpolished
p5502
F0.43002917732064416
sVportrait
p5503
F0.15740458659047601
sVpromise
p5504
F0.33114102049199173
sVval
p5505
F0.46137234721396
sVgeoffrey
p5506
F0.45219103750440215
sVtransfer
p5507
F0.798131721624983
sVindictments
p5508
F0.4089534687986153
sVuniting
p5509
F0.46137234721396
sVdynamite
p5510
F0.44319243585806456
sVmade
p5511
F0.21426842737644852
sVwhether
p5512
F0.17404655724622103
sVmeeting
p5513
F0.4089534687986153
sVrecord
p5514
F0.3624901679789267
sVbelow
p5515
F0.3928390704036094
sVlucasfilm
p5516
F0.33114102049199173
sVrickety
p5517
F0.6943450426582044
sVfulllength
p5518
F0.46137234721396
sVstirring
p5519
F0.3661516848271987
sVjenny
p5520
F0.38502157290257755
sVbuffs
p5521
F0.44319243585806456
sVhumanizes
p5522
F0.43002917732064416
sVuptight
p5523
F0.3698501866941401
sVmutual
p5524
F0.35527661363614604
sVincredible
p5525
F0.3588652662991374
sVbook
p5526
F0.24494513650210245
sVbranch
p5527
F0.4089534687986153
sVcutthroat
p5528
F0.4257288855474377
sVrian
p5529
F0.44766912712935814
sVirons
p5530
F0.4089534687986153
sVsandler
p5531
F0.34820660902478673
sVranks
p5532
F0.4257288855474377
sVexpands
p5533
F0.4387605114994839
sVhardboiled
p5534
F0.33448587928484014
s.