(dp0
Vyellow
p1
F0.3858502369716672
sVfour
p2
F0.008174508431974679
sVwoods
p3
F0.11760831462020505
sVhanging
p4
F0.9358722126136414
sVwoody
p5
F0.2329403875848967
sVcomically
p6
F0.9738723772933279
sVconjure
p7
F1.1533613720201836
sVeligible
p8
F0.17404655724622103
sVlord
p9
F0.10158082058448618
sVtantalizing
p10
F1.003381684197693
sVbringing
p11
F0.28326674643329874
sVprize
p12
F0.2592352856009448
sVclientele
p13
F0.17580460327901115
sVwednesday
p14
F0.17580460327901115
sVstraight
p15
F0.23061098370904776
sVasian
p16
F0.4257288855474377
sVpumbaa
p17
F0.9738723772933279
sVspecially
p18
F0.1313562936251141
sVmiller
p19
F0.1395210442925294
sVtires
p20
F0.23061098370904776
sVsecond
p21
F0.15531707009935364
sVruthless
p22
F0.9011101918091704
sVcooking
p23
F0.28767737498846424
sVfingers
p24
F0.2329403875848967
sVhero
p25
F0.05351613513566968
sVreporter
p26
F0.2964832232007497
sVhere
p27
F0.5628211190365227
sVreported
p28
F1.7692307326515513
sVchina
p29
F2.9979009876780878
sVcult
p30
F0.15740458659047601
sVkids
p31
F0.26101718910016447
sVuplifting
p32
F0.8223159109219417
sVk
p33
F0.07482070280180783
sVreports
p34
F1.0973837708882472
sVmilitary
p35
F2.5916828818628566
sVgolden
p36
F0.4486326246230079
sVdivide
p37
F0.8993548012693525
sVbrought
p38
F0.04698267998516846
sVcocaine
p39
F1.0235496560500665
sVunit
p40
F0.35654009081476423
sVdna
p41
F0.2848006012385796
sVsinglecelled
p42
F0.17580460327901115
sVmonros
p43
F1.0973837708882472
sVmusic
p44
F0.8473595824482628
sVhighflying
p45
F0.4008152947695229
sVuntil
p46
F0.06737614668724529
sVplayboy
p47
F0.8729049096034581
sVsuccessful
p48
F0.0996689432909984
sVbrings
p49
F0.15948020324782688
sVjmw
p50
F0.7225382357137485
sVboorman
p51
F0.32130580104235906
sVarndt
p52
F0.14671136076260793
sVfamed
p53
F0.002941402408415996
sVblade
p54
F0.38891067969957327
sVdragons
p55
F0.2681341126035925
sVwant
p56
F0.0417698648366026
sVorganizes
p57
F0.25756855871190165
sVtravel
p58
F0.09333563835785168
sVfeature
p59
F0.06835000247829902
sVmachine
p60
F0.10263767770356247
sVhow
p61
F0.06143241316138242
sVhot
p62
F0.10743722385303976
sVmachina
p63
F0.8904502982864876
sVhop
p64
F0.7444318667941109
sVsignificance
p65
F0.28767737498846424
sVbeauty
p66
F0.47137595620738787
sVmufasa
p67
F1.8968548145099144
sVmisunderstanding
p68
F0.308645070471144
sVwrong
p69
F0.05997856409673896
sVwins
p70
F0.8904502982864876
sVrevolt
p71
F0.25756855871190165
sVdeutsche
p72
F0.1606005372823957
sVfictional
p73
F0.8729049096034581
sVkeeps
p74
F1.003381684197693
sVwing
p75
F0.06603536136816905
sVbackdrop
p76
F1.786923039978067
sVwelcomed
p77
F0.23061098370904776
sVjordy
p78
F0.18673214022713464
sVwelcomes
p79
F0.2329403875848967
sVreprises
p80
F0.7669888967898393
sVabominations
p81
F1.003381684197693
sVhidden
p82
F0.041352166188236575
sVeffects
p83
F0.015054710787977656
sVsilver
p84
F0.27634173858119254
sVdebut
p85
F0.5123248087375031
sVmultibillion
p86
F0.2193087509049554
sVcluzet
p87
F0.8223159109219417
sVloyalties
p88
F1.0235496560500665
sVburial
p89
F1.6016615021113585
sVfinancial
p90
F0.7225382357137485
sVseries
p91
F0.009302886387384739
sV17751851
p92
F0.7225382357137485
sVxmen
p93
F0.03450895174985443
sVrv
p94
F0.8223159109219417
sVoprah
p95
F0.18118600893024847
sVmason
p96
F2.4085022812178156
sVencourage
p97
F0.308645070471144
sVfugitive
p98
F1.1083576085971296
sVcrowned
p99
F1.0651098765198201
sVenormous
p100
F1.1883093749537672
sVexposing
p101
F0.05263245092417956
sVsahn
p102
F0.17058303075702122
sVmcqueen
p103
F0.9546832440871756
sVups
p104
F0.19833890321101263
sVmusicians
p105
F0.2791330692739319
sVcoeds
p106
F0.29058320705905477
sV1970s
p107
F3.058158797530417
sVfarmhouse
p108
F1.1765439355977894
sVadditions
p109
F0.31491181560161613
sVeverdeen
p110
F1.003381684197693
sVmillers
p111
F0.2376700210028535
sVseizures
p112
F1.0235496560500665
sVbasketball
p113
F0.22830487387195728
sVservice
p114
F0.3254775968997668
sVengagement
p115
F0.21279506169432733
sVmaster
p116
F0.03354431868990318
sVsinglegear
p117
F1.2489250957044586
sVmutilated
p118
F0.2654527714775566
sVsudeikis
p119
F0.2193087509049554
sVpositively
p120
F0.2819525952261938
sVahmed
p121
F0.7824053736153151
sVoutlaw
p122
F1.6016615021113585
sVtree
p123
F0.751876185462052
sVnations
p124
F0.60390337227017
sVproject
p125
F1.9252337641211186
sVsheen
p126
F0.14671136076260793
sVfeeling
p127
F1.973874726366823
sVnobitas
p128
F0.9083483492820461
sVrunner
p129
F0.38891067969957327
sVboston
p130
F0.9881956083120657
sVspent
p131
F0.11933803927335872
sVaffairs
p132
F0.21279506169432733
sV60th
p133
F0.4387605114994839
sVresponsible
p134
F0.07044220645213385
sVinstructs
p135
F0.9738723772933279
sVdoors
p136
F1.2489250957044586
sVobject
p137
F0.30555861976643256
sVlooming
p138
F1.0973837708882472
sVtheatres
p139
F0.14819329369960396
sVletter
p140
F0.17058303075702122
sVorganization
p141
F0.15305822560933954
sVthriller
p142
F0.3501970371466198
sVsinger
p143
F2.9979009876780878
sVepisode
p144
F0.798131721624983
sVcops
p145
F1.4073200585997496
sVprofessor
p146
F0.19052355905227492
sVcamp
p147
F0.7464072019323649
sVtech
p148
F0.15899453190957175
sVberthaud
p149
F5.286102631111503
sVmating
p150
F1.6338548983037968
sVbateman
p151
F0.8904502982864876
sVcame
p152
F0.28767737498846424
sVmarvel
p153
F0.02427524256528645
sVbomb
p154
F0.23061098370904776
sVlethal
p155
F0.2400707282857106
sVrediscovers
p156
F1.0757609752850184
sVlessons
p157
F0.04348327954912347
sVorleans
p158
F0.9546832440871756
sVtouches
p159
F1.6338548983037968
sVlouise
p160
F0.23529332079282497
sVmintzplasse
p161
F0.2848006012385796
sVrick
p162
F1.1533613720201836
sVrich
p163
F0.17404655724622103
sVfoolishly
p164
F0.2193087509049554
sVrice
p165
F0.9738723772933279
sVpocket
p166
F0.20856043996661022
sVontheground
p167
F0.2193087509049554
sVmythologised
p168
F0.20236598633916195
sVrelease
p169
F0.2950044331999805
sVtraverse
p170
F0.14671136076260793
sVdisaster
p171
F0.2681341126035925
sVresult
p172
F0.3219973326116334
sVhammer
p173
F0.17230609167375882
sVbest
p174
F0.14010815428405146
sVabdication
p175
F0.24309051721281452
sVambitions
p176
F0.7048390178528124
sVscore
p177
F0.11335317565599942
sVhumankind
p178
F0.2654527714775566
sVmelissa
p179
F0.1381258338496041
sVnever
p180
F0.007880323201030819
sVnationwide
p181
F0.017956405989633446
sVborntheyre
p182
F0.2193087509049554
sVaccident
p183
F0.18606107960263196
sVsacrificing
p184
F0.14671136076260793
sVcountry
p185
F0.011117055464668932
sVadventurer
p186
F0.30555861976643256
sVadventures
p187
F0.18326339114029339
sVedgar
p188
F0.15740458659047601
sVplanned
p189
F0.554441573193327
sVquests
p190
F0.14671136076260793
sVinstallments
p191
F0.9452309347397778
sVadapted
p192
F1.1765439355977894
sVasked
p193
F0.9546832440871756
sVretelling
p194
F0.7297636180708861
sVunion
p195
F1.0973837708882472
sVmuch
p196
F0.07467492486367644
sVlife
p197
F1.622777494701889
sVarkin
p198
F1.0235496560500665
sVworker
p199
F1.2365595006974839
sVfilmmaker
p200
F0.0065913838665491555
sVfacetoface
p201
F1.119441184683101
sVdave
p202
F0.18673214022713464
sVchild
p203
F1.3004813265924187
sVworked
p204
F0.12900648752986724
sVspin
p205
F0.9452309347397778
sVgritty
p206
F0.23061098370904776
sVpresidency
p207
F0.17404655724622103
sVvikander
p208
F0.8904502982864876
sVcastro
p209
F1.1533613720201836
sVviii
p210
F0.4099566150632022
sVnolans
p211
F0.37735964360181623
sVharvesting
p212
F1.0235496560500665
sVelaborate
p213
F0.751876185462052
sVa24
p214
F2.9979009876780878
sVplayed
p215
F1.4938986005486143
sVtrusted
p216
F1.3683233475461993
sVhong
p217
F0.23836021953775852
sVothersand
p218
F1.1883093749537672
sVthings
p219
F0.2884984179744738
sVrebellion
p220
F2.432587304029994
sVsimin
p221
F1.0545642341780397
sVfeuding
p222
F0.14671136076260793
sVsplit
p223
F1.0973837708882472
sVeuropean
p224
F1.1883093749537672
sVworkforce
p225
F0.17404655724622103
sVgraduations
p226
F1.0973837708882472
sVtune
p227
F0.2735783211953806
sVlucas
p228
F0.17058303075702122
sV30minute
p229
F0.17058303075702122
sVcorporate
p230
F1.7517135966847042
sVboyhood
p231
F5.286102631111503
sVmasons
p232
F1.0973837708882472
sVbeset
p233
F0.17580460327901115
sVplight
p234
F1.1765439355977894
sVlefevre
p235
F1.1533613720201836
sVportrayed
p236
F0.20236598633916195
sVprevious
p237
F1.7343698977076278
sVenters
p238
F0.2964832232007497
sVhan
p239
F1.4356071917776048
sVhad
p240
F1.791306289685967
sVgotham
p241
F0.2484357995709046
sVbeloved
p242
F0.038377534171332266
sVprison
p243
F6.968780297972745
sVeast
p244
F2.9979009876780878
sVhightower
p245
F0.9174318327748666
sVsurvival
p246
F0.3412772975051935
sVpossible
p247
F0.2982525959500467
sVpossibly
p248
F0.18118600893024847
sVbirth
p249
F0.20437939239878325
sVposes
p250
F0.50253142950657
sVpsychological
p251
F0.47685210718538024
sVseaside
p252
F0.7225382357137485
sValice
p253
F0.18118600893024847
sVpavement
p254
F1.2489250957044586
sVsebastian
p255
F0.9836111010662612
sVmoloi
p256
F0.7824053736153151
sVbattlefield
p257
F0.1963555141789025
sVattorney
p258
F0.737061254251595
sVright
p259
F0.15740458659047601
sVold
p260
F0.07375095188577623
sVcreek
p261
F0.29058320705905477
sVpeople
p262
F0.20603126636986768
sVvideolike
p263
F1.0757609752850184
sVwarring
p264
F1.0973837708882472
sVhemsworth
p265
F0.8729049096034581
sVenemies
p266
F0.1030799921282239
sVattendees
p267
F0.4214715966919633
sVfor
p268
F5.306764239591581e-13
sVfox
p269
F0.01534272467150355
sVfoe
p270
F0.5064919398340677
sVstandwith
p271
F0.30555861976643256
sVyorks
p272
F1.2489250957044586
sVstarring
p273
F0.28588486140986386
sVstylish
p274
F0.8904502982864876
sVlosing
p275
F2.4814823088409965
sVbrokerage
p276
F0.8557052343921754
sVdollars
p277
F0.179374148840946
sVcitizens
p278
F0.36458053441799293
sVdespair
p279
F0.2735783211953806
sVnixon
p280
F1.3126328274074903
sVraised
p281
F0.14671136076260793
sVfacility
p282
F0.5634125150659849
sVscythes
p283
F0.2848006012385796
sVson
p284
F0.3846365963207105
sVundermining
p285
F0.179374148840946
sVbeings
p286
F0.2964832232007497
sVwrap
p287
F0.8729049096034581
sVsupport
p288
F1.3602736073875423
sVconstantly
p289
F1.0973837708882472
sVwaite
p290
F0.2329403875848967
sVjoseph
p291
F1.2489250957044586
sVhothead
p292
F0.737061254251595
sVshadowlands
p293
F1.1765439355977894
sVjane
p294
F0.18118600893024847
sVhappy
p295
F1.7692307326515513
sVoffer
p296
F0.505884483679544
sVeastwoods
p297
F0.9452309347397778
sVtalents
p298
F0.9083483492820461
sVduen
p299
F0.17058303075702122
sVinside
p300
F0.4625271247045142
sVtheobald
p301
F0.2193087509049554
sVcomplications
p302
F0.2193087509049554
sVlays
p303
F1.1533613720201836
sVlater
p304
F0.0046760410496542795
sVmisfitsrocket
p305
F0.30555861976643256
sVcrumble
p306
F1.0973837708882472
sVproves
p307
F0.7473782108651816
sVexist
p308
F1.003381684197693
sVdealer
p309
F0.05937877845577157
sVlees
p310
F0.06565673966414415
sVattitudes
p311
F0.7669888967898393
sVactor
p312
F0.025784125752126734
sVrole
p313
F0.8160080793301072
sVambitious
p314
F0.1030851293321816
sVroll
p315
F0.2791330692739319
sVmodels
p316
F0.17058303075702122
sVcomely
p317
F1.6338548983037968
sVinvested
p318
F0.17058303075702122
sVexplosions
p319
F0.2654527714775566
sVrockers
p320
F0.9836111010662612
sVcoastlines
p321
F0.18673214022713464
sVtime
p322
F8.77139182661659e-06
sVpush
p323
F0.9083483492820461
sVchilds
p324
F1.4356071917776048
sVtheaters
p325
F0.023792165238237246
sVbandits
p326
F0.03184295213744726
sVvet
p327
F0.7669888967898393
sVinhabited
p328
F0.798131721624983
sVobsessively
p329
F0.7153843917957906
sVcarpenters
p330
F1.6338548983037968
sVchoice
p331
F0.07079884541197548
sVembark
p332
F0.5656989829541139
sVmourn
p333
F0.22830487387195728
sVstays
p334
F0.7225382357137485
sVminute
p335
F0.168877200449451
sVepic
p336
F0.03967902623298404
sVleave
p337
F0.2418054815713867
sVsolved
p338
F0.18673214022713464
sVsettle
p339
F0.29058320705905477
sVreclusive
p340
F0.8904502982864876
sVteam
p341
F1.282271877259244
sVprevent
p342
F0.6246336969390899
sVaccomplishment
p343
F0.6739244576664531
sVminion
p344
F0.17580460327901115
sVkittisiriprasert
p345
F0.2400707282857106
sVlacote
p346
F0.7824053736153151
sVeducate
p347
F0.308645070471144
sVelton
p348
F0.9738723772933279
sVcelebrated
p349
F0.2781021337768379
sVcurrent
p350
F0.14143154112591041
sVextraterrestrial
p351
F0.9495415924365259
sVfalling
p352
F0.9358722126136414
sVcolortime
p353
F0.17058303075702122
sVjury
p354
F0.7153843917957906
sVhonour
p355
F0.14671136076260793
sVunderstanding
p356
F0.03972272584527696
sValone
p357
F0.5327008978401916
sValong
p358
F0.04784322073153374
sVbenson
p359
F1.1883093749537672
sVredemption
p360
F0.07733105377376977
sVbrilliant
p361
F1.539165222043838
sVstudied
p362
F0.14671136076260793
sVfunded
p363
F0.17058303075702122
sVcusack
p364
F0.17580460327901115
sVaccomplished
p365
F0.5634125150659849
sVstudies
p366
F0.3427993847089505
sVreclaim
p367
F0.28864271046832324
sVlove
p368
F0.10053982273716325
sVbloody
p369
F0.23061098370904776
sVips
p370
F0.7669888967898393
sVsky
p371
F0.2524429443935348
sVworking
p372
F0.33265116530024014
sVhomesick
p373
F0.3412772975051935
sVangry
p374
F0.14671136076260793
sVcharlies
p375
F0.15740458659047601
sVwondering
p376
F0.17404655724622103
sVfilms
p377
F0.37092399179381913
sVprosecutor
p378
F0.737061254251595
sVintroducing
p379
F1.1883093749537672
sVafford
p380
F0.7669888967898393
sVvisual
p381
F0.16260442872239037
sVeverywhere
p382
F0.05819714076450172
sVriders
p383
F1.2489250957044586
sVanything
p384
F0.3239513653353422
sVoriginally
p385
F0.16778300392716264
sVvalues
p386
F0.9546832440871756
sVbelieved
p387
F0.7225382357137485
sVgunfire
p388
F0.2654527714775566
sVmirrors
p389
F1.0973837708882472
sVallowed
p390
F0.20441008721127468
sVoffense
p391
F0.8642622867360972
sVstockbroker
p392
F0.4973071426137967
sVwinter
p393
F0.6775734503479607
sVdivided
p394
F0.7061795521188179
sVelephant
p395
F0.11526790915926297
sVdivides
p396
F0.15272951296415227
sVexplores
p397
F0.6489245584901949
sVspot
p398
F0.3811713571735518
sVdate
p399
F0.0321645981186336
sVsuch
p400
F0.02476812831883119
sVlessthancourageous
p401
F0.23061098370904776
sVrevealed
p402
F0.9546832440871756
sVsy
p403
F0.8223159109219417
sVsurfing
p404
F0.18673214022713464
sVbiographical
p405
F0.14671136076260793
sVinhabiting
p406
F1.003381684197693
sVso
p407
F3.296842830011497
sVtruce
p408
F0.30555861976643256
sVpulled
p409
F1.5858034674369885
sVprohibitionera
p410
F0.7593949473166726
sVkong
p411
F0.23836021953775852
sVcourse
p412
F0.046594318253695886
sVfolasakin
p413
F0.7824053736153151
sVtorn
p414
F0.5634125150659849
sVtroubles
p415
F0.7669888967898393
sVsuspicion
p416
F1.200192468703305
sVconstitutes
p417
F0.23529332079282497
sVtroubled
p418
F1.2243163373242414
sVdecades
p419
F0.019072527446338507
sVtwohour
p420
F0.2735783211953806
sVreveal
p421
F0.2654527714775566
sVnation
p422
F0.0855241655513932
sVrecords
p423
F2.4814823088409965
sVsingleminded
p424
F0.9083483492820461
sVarriving
p425
F0.8993548012693525
sVscorsese
p426
F1.6338548983037968
sVreckoning
p427
F0.179374148840946
sVtwilight
p428
F1.044123004136673
sVrereleased
p429
F0.9738723772933279
sVquarter
p430
F1.0973837708882472
sVquartet
p431
F0.30555861976643256
sVsquare
p432
F1.0235496560500665
sVdinermotel
p433
F0.23061098370904776
sVbreakthrough
p434
F1.0973837708882472
sVsexually
p435
F0.7225382357137485
sVcumberbatch
p436
F0.723803727352036
sVtroll
p437
F0.18118600893024847
sVjoker
p438
F0.08027409555544825
sVreveled
p439
F0.2819525952261938
sVswordsman
p440
F0.9452309347397778
sVboundless
p441
F0.17404655724622103
sVinvestigation
p442
F0.9042697614829933
sVcobb
p443
F8.780629526665237
sVinternet
p444
F0.7902294273514683
sVformula
p445
F0.8729049096034581
sVworthiness
p446
F0.2848006012385796
sVhairdresser
p447
F0.7153843917957906
sVmillion
p448
F0.3983576562085171
sVseventh
p449
F0.14671136076260793
sVpossibility
p450
F0.8223159109219417
sVquite
p451
F0.09814575701151265
sVdisrespect
p452
F0.24741932980010348
sVallstar
p453
F0.31491181560161613
sVcomplicated
p454
F1.7692307326515513
sVemblematic
p455
F0.28767737498846424
sVquits
p456
F0.2708425379834268
sVscarred
p457
F0.17580460327901115
sVfraudulent
p458
F1.1533613720201836
sVtraining
p459
F0.027663431335610292
sVdunne
p460
F2.4085022812178156
sValcon
p461
F0.38891067969957327
sVjarrat
p462
F0.17058303075702122
sVgordon
p463
F0.6250086083653171
sVsaving
p464
F0.17580460327901115
sVpotter
p465
F2.8241583412060227
sVone
p466
F0.5340329587182282
sVopen
p467
F0.562146105031825
sVcity
p468
F0.0009711727375419376
sVwrath
p469
F0.8993548012693525
sVgyllenhaal
p470
F1.3524069147107647
sVtwenties
p471
F0.8557052343921754
sVrealization
p472
F0.8557052343921754
sVwilliams
p473
F0.563158929931905
sVproving
p474
F0.31491181560161613
sVreclaims
p475
F0.798131721624983
sVridiculous
p476
F0.2193087509049554
sVspecialists
p477
F1.0235496560500665
sVinventor
p478
F0.9546832440871756
sVwaylaid
p479
F0.9174318327748666
sVrza
p480
F0.2400707282857106
sVrival
p481
F0.2944149845058418
sVstammer
p482
F1.0651098765198201
sVrehab
p483
F0.17580460327901115
sVfuture
p484
F0.08800112233742664
sVwandering
p485
F0.18118600893024847
sVdamned
p486
F1.003381684197693
sVsal
p487
F0.29058320705905477
sVgeneration
p488
F0.465264238142563
sVjinkuru
p489
F0.17058303075702122
sVturned
p490
F0.23344173437431479
sVlocations
p491
F0.14524424715498185
sVprestigious
p492
F1.0757609752850184
sVburied
p493
F0.36916650068191287
sVlurking
p494
F0.5633279114060527
sVturner
p495
F0.02442988449742626
sVzoe
p496
F0.16386137871890186
sVwarriors
p497
F0.798131721624983
sVaside
p498
F0.17058303075702122
sVzoo
p499
F0.12491852822922633
sVnote
p500
F0.17058303075702122
sVjefferson
p501
F0.8729049096034581
sVtake
p502
F0.006299128058595978
sVroadside
p503
F0.812466112157654
sVdestroy
p504
F0.8671624211290918
sVcoincide
p505
F0.2964832232007497
sVgibney
p506
F0.06435017054482768
sValtered
p507
F0.2524429443935348
sVknew
p508
F0.090274122183958
sVtartarus
p509
F0.168877200449451
sVdrive
p510
F1.1083576085971296
sVmanaging
p511
F0.17580460327901115
sVwind
p512
F0.12618033154467306
sVaxe
p513
F0.29058320705905477
sVlandlady
p514
F0.7225382357137485
sVwalking
p515
F0.7669888967898393
sVfriction
p516
F0.17230609167375882
sVbright
p517
F1.1883093749537672
sVaggressive
p518
F1.2489250957044586
sVimagined
p519
F0.8904502982864876
sVcloak
p520
F0.1963555141789025
sVgoing
p521
F0.18840149482926624
sVcarolina
p522
F0.14671136076260793
sVremastered
p523
F0.14969019565616562
sVatticus
p524
F0.18118600893024847
sVnovels
p525
F0.06565673966414415
sVimps
p526
F0.22152399081308627
sVassistant
p527
F0.17580460327901115
sVartist
p528
F0.4154664388233371
sVhinges
p529
F0.18486481882486328
sVabsurdly
p530
F0.2193087509049554
sVpriest
p531
F0.1963555141789025
sVtika
p532
F1.0235496560500665
sVwhere
p533
F1.5425537400596352
sVvision
p534
F0.2791330692739319
sVlynchs
p535
F0.22830487387195728
sVsubversives
p536
F0.8388444607314728
sVaudaciously
p537
F1.0973837708882472
sVgangster
p538
F0.13893625558255088
sVwielding
p539
F0.29058320705905477
sVharvey
p540
F1.2169920678629953
sVdormitory
p541
F0.168877200449451
sVscreen
p542
F0.08385995105998771
sVfaded
p543
F0.2735783211953806
sVawards
p544
F0.10743722385303976
sVspark
p545
F0.22830487387195728
sVsuppressed
p546
F0.2654527714775566
sVblame
p547
F1.1083576085971296
sVmans
p548
F0.12669240266215
sVmany
p549
F0.08331244996001472
sVmillionaire
p550
F0.8223159109219417
sVmadcap
p551
F0.22152399081308627
sVjeremie
p552
F0.7153843917957906
sVresidency
p553
F0.2193087509049554
sVblackwatertype
p554
F1.6833623355773
sVmann
p555
F0.7297636180708861
sVhomosexuality
p556
F0.8642622867360972
sVbetter
p557
F1.0391229733854497
sVteddy
p558
F3.096007308643466
sVwest
p559
F0.9313905664630022
sVvacation
p560
F0.2935183909687422
sVcarini
p561
F1.003381684197693
sVcombined
p562
F0.17404655724622103
sVwants
p563
F0.7142762304844963
sVchan
p564
F0.26389113340522286
sVthousand
p565
F0.2819525952261938
sVformed
p566
F0.9836111010662612
sVphotos
p567
F0.18118600893024847
sVformer
p568
F0.07577320655342104
sVtribal
p569
F0.3134351291643321
sVvoldemort
p570
F0.8904502982864876
sVbroomhilda
p571
F0.6541044390585402
sVhayek
p572
F0.22830487387195728
sVsituation
p573
F1.1883093749537672
sVspotlight
p574
F0.31491181560161613
sVtwists
p575
F0.14671136076260793
sVreviled
p576
F0.34345135531490256
sVbros
p577
F0.6468836681617253
sVquiet
p578
F0.308645070471144
sVtechnology
p579
F0.5598739973273349
sVfame
p580
F0.09814575701151265
sVdebilitating
p581
F0.4099566150632022
sVthreatens
p582
F0.40320730755328277
sVperpetually
p583
F0.17580460327901115
sVsurveillance
p584
F0.20236598633916195
sVverifies
p585
F0.1606005372823957
sVsingapore
p586
F0.22152399081308627
sVdefy
p587
F0.2654527714775566
sVintrepid
p588
F0.2964832232007497
sVexmarine
p589
F0.7225382357137485
sVtracking
p590
F1.6501934472868347
sVpacino
p591
F1.0235496560500665
sVcosts
p592
F0.179374148840946
sVcomes
p593
F0.011634580399812675
sVtrains
p594
F1.2365595006974839
sVsummer
p595
F0.29058320705905477
sVbeing
p596
F0.09746110156895238
sVelysian
p597
F1.1533613720201836
sVrest
p598
F0.11760831462020505
sVcolor
p599
F1.003381684197693
sVhungers
p600
F0.9083483492820461
sVaround
p601
F0.9669331947603281
sVdark
p602
F0.002511626152117418
sVtraffic
p603
F1.2489250957044586
sVworld
p604
F0.0032353531040807057
sVpostal
p605
F0.18118600893024847
sVnimchuk
p606
F1.1533613720201836
sVstranger
p607
F0.03432309637863498
sVshutter
p608
F3.4804699779673167
sVpotion
p609
F0.22152399081308627
sVcristina
p610
F0.17580460327901115
sVwrongly
p611
F1.2740284901281183
sVmemories
p612
F0.44935104732903275
sVnoon
p613
F0.31491181560161613
sVtoto
p614
F0.14671136076260793
sVtots
p615
F0.2329403875848967
sVfrancois
p616
F0.8223159109219417
sVrestoring
p617
F1.0545642341780397
sVavengersthe
p618
F0.2681341126035925
sVscientific
p619
F1.6338548983037968
sVpower
p620
F0.02336070692611598
sVintimate
p621
F0.14093034777023172
sViconic
p622
F0.21050912699710678
sVconfides
p623
F0.8993548012693525
sVleadership
p624
F1.003381684197693
sVthrowback
p625
F0.7669888967898393
sVthailand
p626
F0.8082520437415539
sVstone
p627
F0.3907233512189582
sVhostagetaking
p628
F0.22830487387195728
sVorigins
p629
F0.24494513650210245
sVpackage
p630
F0.663061256045242
sVindustry
p631
F0.0763398661379531
sVfavorite
p632
F0.0790275366729651
sVact
p633
F0.11095310740298954
sVmean
p634
F0.13004273068886296
sVclarice
p635
F0.17580460327901115
sVimage
p636
F1.003381684197693
sVcrossers
p637
F0.2193087509049554
sVlively
p638
F0.9738723772933279
sVparties
p639
F0.2400707282857106
sVportrayal
p640
F0.7424245115334618
sVhypnotist
p641
F0.2329403875848967
sVburglar
p642
F1.1083576085971296
sVher
p643
F0.003219212688825514
sVhes
p644
F0.26966682813602755
sVglean
p645
F1.0235496560500665
sVhey
p646
F0.18118600893024847
sVdesert
p647
F0.03450895174985443
sVhen
p648
F0.2400707282857106
sVtireless
p649
F0.31491181560161613
sVlang
p650
F0.9546832440871756
sVemergence
p651
F1.1083576085971296
sVcomplete
p652
F0.0042663083738928185
sVwits
p653
F0.24741932980010348
sVsocietal
p654
F0.8557052343921754
sVdestinies
p655
F0.7593949473166726
sVsurvived
p656
F0.6874703392655489
sVfighter
p657
F0.09619265644698355
sVwith
p658
F9.312022453241956e-20
sVescalates
p659
F0.8904502982864876
sVhandsome
p660
F0.2193087509049554
sVabused
p661
F0.20856043996661022
sVpull
p662
F0.2681341126035925
sVrush
p663
F0.11500304605454754
sVoctober
p664
F0.14819329369960396
sVrescuing
p665
F0.6541044390585402
sVagree
p666
F0.23529332079282497
sVdarker
p667
F0.2193087509049554
sVgone
p668
F1.4179146981313153
sVcarver
p669
F0.7669888967898393
sVcitizenship
p670
F0.2193087509049554
sVjohnny
p671
F0.02997950733573274
sVai
p672
F0.8904502982864876
sVstealing
p673
F1.182500611666487
sVam
p674
F0.2329403875848967
sVal
p675
F0.7802956230622516
sVan
p676
F1.0878324819384741e-14
sVas
p677
F6.370661691737571e-15
sVat
p678
F0.1120398909228812
sVgraduate
p679
F0.17580460327901115
sVforgot
p680
F0.33114102049199173
sVplanners
p681
F0.18486481882486328
sVmimis
p682
F0.34472454293453886
sVlapaglia
p683
F0.8388444607314728
sVmask
p684
F0.2735783211953806
sVhaving
p685
F0.9407985519828306
sVmimic
p686
F1.6338548983037968
sVmast
p687
F0.7225382357137485
sVmass
p688
F0.19244803944674235
sVadam
p689
F0.20503448680172862
sVsensibility
p690
F0.9174318327748666
sVoriginal
p691
F0.002954815477536075
sVtours
p692
F0.9836111010662612
sVnumber
p693
F0.751876185462052
sVhunting
p694
F1.003381684197693
sVtv
p695
F0.008035908516128499
sVcheney
p696
F0.28767737498846424
sVchampions
p697
F0.8642622867360972
sVto
p698
F1.030633432542284e-33
sVmidwest
p699
F0.28767737498846424
sVreturned
p700
F0.21359454571269074
sVcandie
p701
F0.6541044390585402
sVcandid
p702
F0.29058320705905477
sVmafrouza
p703
F0.09056347656298513
sVshowings
p704
F0.4257288855474377
sVlinguists
p705
F0.8642622867360972
sV17th
p706
F0.4387605114994839
sVheist
p707
F0.2193087509049554
sVlaying
p708
F0.9174318327748666
sVjoined
p709
F0.4768521071853803
sVswirling
p710
F0.17404655724622103
sVharry
p711
F9.508163562585366
sVsmall
p712
F0.20429765290376994
sVmaggie
p713
F0.044814309351162346
sVpretenses
p714
F0.6541044390585402
sVpast
p715
F0.009600118627665683
sVpass
p716
F0.751876185462052
sVinvestment
p717
F1.0757609752850184
sVrichard
p718
F0.5464597791466941
sVclock
p719
F1.1883093749537672
sVcontrast
p720
F1.0235496560500665
sVfull
p721
F0.02794285993495989
sVescaping
p722
F0.7669888967898393
sVlobbyist
p723
F0.179374148840946
sVhours
p724
F0.06869604890439449
sVnovember
p725
F0.20647483556694413
sVlegend
p726
F0.14462100665709918
sVharrelson
p727
F0.15740458659047601
sVexperience
p728
F0.16893623629622914
sVprior
p729
F0.1274548803481546
sVsocial
p730
F0.4770427366960094
sVaction
p731
F0.0181214603095752
sVmurdering
p732
F0.14671136076260793
sVfollowed
p733
F0.08273129783236739
sVreclaimed
p734
F0.31491181560161613
sVvis
p735
F0.2964832232007497
sVselect
p736
F0.02087812517921843
sVbritannia
p737
F0.15272951296415227
sV6
p738
F0.14671136076260793
sVfirth
p739
F0.6315744185070977
sVmore
p740
F0.0004230438327842419
sVcompany
p741
F0.14671136076260793
sVwaterways
p742
F1.0235496560500665
sVpursuers
p743
F0.2654527714775566
sVchunnam
p744
F0.7669888967898393
sVnonviolent
p745
F1.0235496560500665
sVcunning
p746
F1.1083576085971296
sVkeeping
p747
F0.21126836362267004
sVresources
p748
F0.17058303075702122
sVmorgan
p749
F1.339016747238381
sVlearn
p750
F0.019854889306003376
sVmale
p751
F0.168877200449451
sVbeautiful
p752
F0.8084537378595115
sVrodriguez
p753
F0.2376700210028535
sVdislikes
p754
F1.1533613720201836
sVstates
p755
F0.2819525952261938
sVstation
p756
F0.23061098370904776
sVlizzani
p757
F0.17404655724622103
sVscar
p758
F1.8968548145099144
sVinformation
p759
F0.2220784473594162
sVclint
p760
F0.9452309347397778
sVimminent
p761
F1.6833623355773
sVhugh
p762
F0.8223159109219417
sVscifi
p763
F5.001457136894962
sVcreature
p764
F0.2848006012385796
sVplans
p765
F0.11946339638280744
sVdisgraced
p766
F0.179374148840946
sVsoundtrack
p767
F1.0973837708882472
sVplane
p768
F0.18486481882486328
sVwilee
p769
F3.1196277893607784
sVappealed
p770
F0.9174318327748666
sVauthentic
p771
F1.0545642341780397
sVmalevolent
p772
F0.21126836362267
sVrefuse
p773
F0.09814575701151265
sVimagery
p774
F2.268918098120131
sVdjango
p775
F2.5062971319294065
sVgreats
p776
F0.9083483492820461
sVtrade
p777
F0.5803392707185226
sVresorts
p778
F1.1533613720201836
sVscott
p779
F0.29919357014444053
sVbroadway
p780
F0.9738723772933279
sVits
p781
F0.0010664136049605526
sVrapidly
p782
F0.07407249577378976
sVtermeh
p783
F0.8223159109219417
sVdeeds
p784
F0.1963555141789025
sVisaac
p785
F0.8904502982864876
sVally
p786
F0.4189921119680411
sVwry
p787
F0.2654527714775566
sVabandons
p788
F0.7153843917957906
sVmotley
p789
F0.8642622867360972
sVolivia
p790
F0.17580460327901115
sVskipper
p791
F0.2193087509049554
sVreticent
p792
F0.2654527714775566
sVtruths
p793
F1.0973837708882472
sViwajomo
p794
F0.7824053736153151
sVfound
p795
F0.092107052529291
sVshocking
p796
F0.023318701149996325
sVengland
p797
F0.6315744185070977
sVzohan
p798
F0.22830487387195728
sVbrunetti
p799
F1.1533613720201836
sVclockwork
p800
F0.15583054072457125
sVoperation
p801
F0.20236598633916195
sVernie
p802
F0.9738723772933279
sVbonham
p803
F1.0651098765198201
sVbihar
p804
F1.2365595006974839
sVsalute
p805
F0.4257288855474377
sVjeremiah
p806
F0.04219178266323495
sVsparked
p807
F0.22152399081308627
sVimagine
p808
F1.0865185850378685
sVrises
p809
F0.8704640725792758
sVdirector
p810
F0.010949342009542883
sVowners
p811
F0.6541044390585402
sVworkingmiddle
p812
F1.0973837708882472
sVcastle
p813
F1.1883093749537672
sVmajor
p814
F0.11826286854506846
sVrooted
p815
F0.8223159109219417
sVcontender
p816
F0.31809274303193547
sVbrutally
p817
F0.2654527714775566
sVanonymity
p818
F0.25756855871190165
sVexecutioners
p819
F1.1765439355977894
sVheads
p820
F0.06777823863907305
sValterego
p821
F0.14671136076260793
sVintroduction
p822
F0.10013851342874468
sVthreatening
p823
F0.168877200449451
sVheady
p824
F1.0973837708882472
sVbigscreen
p825
F0.549776139861579
sVrelationship
p826
F0.40644593021989306
sVsatirical
p827
F1.2740284901281183
sVrain
p828
F0.4387605114994839
sVendlessly
p829
F0.2400707282857106
sVgrace
p830
F0.2948274747848258
sVbruckheimer
p831
F0.05937877845577157
sVannihilation
p832
F0.07333177081605186
sVdetermined
p833
F0.5047727056299139
sVmarriage
p834
F0.3878037423216416
sVtoybox
p835
F0.4387605114994839
sVfights
p836
F0.18690022090855377
sVantarctica
p837
F0.17580460327901115
sVballerina
p838
F0.34472454293453886
sValso
p839
F2.8848145498001845
sVteshengs
p840
F0.798131721624983
sVplay
p841
F0.15308884184682017
sVfirsthand
p842
F0.31809274303193547
sVvirus
p843
F0.24741932980010348
sVplan
p844
F0.0015152255578548485
sVmarrese
p845
F0.2400707282857106
sVsometimes
p846
F0.8557052343921754
sV16mm
p847
F0.1606005372823957
sVgold
p848
F0.14671136076260793
sVsangil
p849
F0.9452309347397778
sVdicaprio
p850
F4.8816270921510805
sVoccupation
p851
F0.7669888967898393
sVwrites
p852
F0.706709294154622
sVwriter
p853
F2.8764612483155383
sVfailed
p854
F1.1648949857403854
sVwayne
p855
F0.5019789212434981
sVcondon
p856
F1.044123004136673
sVabilityand
p857
F0.9083483492820461
sVquizzes
p858
F0.9546832440871756
sVsunny
p859
F0.2524429443935348
sVactress
p860
F0.2696803574390883
sVreporters
p861
F1.0545642341780397
sVenemy
p862
F0.28587061445833
sVadapts
p863
F0.6912964837881239
sVlavish
p864
F0.418740779541298
sVharassing
p865
F0.25756855871190165
sVinductees
p866
F0.2791330692739319
sVriver
p867
F0.9546832440871756
sVrumored
p868
F0.2250519694756976
sVinsane
p869
F0.9546832440871756
sVnacho
p870
F0.2193087509049554
sVset
p871
F0.1713179825963319
sVsee
p872
F0.8702460377241206
sVsea
p873
F0.3117626974456
sVspirits
p874
F0.2654527714775566
sVmovie
p875
F0.00031399180654668226
sVpickup
p876
F0.17404655724622103
sVmonsters
p877
F0.3388965796191229
sV15th
p878
F0.3698501866941401
sVavailable
p879
F0.0559039412117887
sVlast
p880
F0.05999953131617753
sVinfluential
p881
F0.1357635016173808
sVthor
p882
F0.2860708039562421
sVconnection
p883
F0.168877200449451
sVwhole
p884
F1.0700205575321908
sVblaze
p885
F0.2329403875848967
sVbell
p886
F1.044123004136673
sVsmashing
p887
F0.23529332079282497
sVallegiance
p888
F0.2193087509049554
sVcommunity
p889
F1.4213932591857472
sVcoincidence
p890
F1.0757609752850184
sVagents
p891
F0.2654527714775566
sVadaptation
p892
F0.5437887238168501
sVtonto
p893
F0.17230609167375882
sVdevil
p894
F0.1963555141789025
sVacceptance
p895
F0.9738723772933279
sVconvicted
p896
F1.1765439355977894
sVsuburbs
p897
F0.6739244576664531
sVproprietor
p898
F0.6541044390585402
sVfirm
p899
F0.5335539441848477
sVfire
p900
F2.2021895524901276
sVmind
p901
F0.6240093442523711
sVwheeler
p902
F0.1358381731755556
sVsentimentality
p903
F0.9174318327748666
sVfund
p904
F0.7824053736153151
sVfritz
p905
F0.9546832440871756
sVraces
p906
F0.08356696750744182
sVtowns
p907
F0.3698501866941401
sVuncertain
p908
F0.21279506169432733
sVmid20thcentury
p909
F0.2376700210028535
sVadmire
p910
F0.4257288855474377
sVevaluating
p911
F0.8904502982864876
sVrobin
p912
F0.13738192750578948
sVkingdom
p913
F0.9738723772933279
sVvon
p914
F0.9546832440871756
sVowen
p915
F0.2193087509049554
sVbelmont
p916
F0.31809274303193547
sVfelixdider
p917
F0.1606005372823957
sVchase
p918
F1.2489250957044586
sVrenounced
p919
F0.1963555141789025
sVcuisine
p920
F0.28767737498846424
sVshorten
p921
F0.8642622867360972
sVyetc
p922
F0.3117626974456
sVdefeat
p923
F0.19504426426294286
sVlevels
p924
F2.158797718351267
sVinfamous
p925
F1.8410685950124424
sVrecent
p926
F0.34023787890063717
sVamy
p927
F1.0973837708882472
sVmakes
p928
F1.1038770624082022
sVpicks
p929
F1.2489250957044586
sVperson
p930
F1.0733429344055045
sVapproached
p931
F0.5634125150659849
sVcannes
p932
F1.2489250957044586
sVkelly
p933
F0.1076146325433802
sVrudolph
p934
F0.22830487387195728
sVbuchanan
p935
F0.0035750979199737245
sVarrests
p936
F0.8223159109219417
sVplagued
p937
F0.9083483492820461
sVusing
p938
F0.1102066770728821
sVforrest
p939
F7.340758313789523
sVsandal
p940
F1.666695381759703
sVreaders
p941
F1.0545642341780397
sVsurprises
p942
F0.1085224483364038
sVeager
p943
F0.22830487387195728
sVparents
p944
F4.270042265133853
sVhomeland
p945
F0.5634125150659849
sVsurprised
p946
F0.7153843917957906
sVniece
p947
F0.7669888967898393
sVvictims
p948
F0.24741932980010348
sVformat
p949
F0.9738723772933279
sVcouple
p950
F0.2453496089401793
sVsuffering
p951
F0.6739244576664531
sVquest
p952
F0.5661515571276969
sVentrenched
p953
F1.1533613720201836
sVabduct
p954
F0.2654527714775566
sV75th
p955
F0.28767737498846424
sVindividuals
p956
F0.8223159109219417
sVtribes
p957
F0.2437965382500478
sVcollective
p958
F0.4401007676846127
sVspins
p959
F1.1533613720201836
sVmethods
p960
F0.9083483492820461
sVspring
p961
F0.09814575701151265
sVlovitz
p962
F1.1533613720201836
sVsight
p963
F0.2193087509049554
sVirresistible
p964
F0.17404655724622103
sVsanity
p965
F0.9083483492820461
sVpryme
p966
F0.08699491423813203
sVbe
p967
F0.00023579337795875336
sVfeelings
p968
F0.4970585387682313
sVcinematic
p969
F0.20441008721127468
sVmeiwais
p970
F0.14671136076260793
sVcarol
p971
F0.17404655724622103
sVby
p972
F0.3035918351878132
sVdeserved
p973
F0.2964832232007497
sVhatchet
p974
F1.003381684197693
sVmelbourne
p975
F0.7902294273514683
sVambush
p976
F0.9174318327748666
sVstuart
p977
F0.3458467188075704
sVhatched
p978
F0.2193087509049554
sVterrorists
p979
F0.4172568807250437
sVhometown
p980
F0.2250519694756974
sVinto
p981
F2.07725395462365e-06
sVfilmgoing
p982
F0.2964832232007497
sVkatie
p983
F0.11879627739414651
sVarcade
p984
F1.0973837708882472
sVmythic
p985
F0.9738723772933279
sVoccupy
p986
F0.15272951296415227
sVwellc
p987
F0.7669888967898393
sVbridesmaids
p988
F0.2935183909687422
sVopens
p989
F0.34408730289369344
sVjewish
p990
F0.35024963164875644
sVatop
p991
F0.7669888967898393
sVpacific
p992
F0.31491181560161613
sVline
p993
F0.7690240865581186
sVcharmed
p994
F0.8557052343921754
sVnieces
p995
F0.2400707282857106
sVup
p996
F0.004175129977988231
sVus
p997
F0.19660102601829613
sVmaturity
p998
F1.3659309838578724
sVuk
p999
F1.1765439355977894
sVcharmer
p1000
F1.1533613720201836
sVcontinuously
p1001
F0.17580460327901115
sVchad
p1002
F1.1533613720201836
sVdefined
p1003
F0.3245513141842011
sVinfluence
p1004
F0.3558632739804225
sVthugs
p1005
F1.0973837708882472
sVcodes
p1006
F0.8642622867360972
sVretrace
p1007
F0.2708425379834268
sVedwards
p1008
F0.30185326794163214
sVelements
p1009
F0.9738723772933279
sVfansc
p1010
F0.2400707282857106
sVenergetic
p1011
F0.7444318667941109
sVago
p1012
F0.5408869877289072
sVlane
p1013
F0.9738723772933279
sVland
p1014
F0.7966563364186997
sVwalken
p1015
F0.32222282093076926
sVpedestrians
p1016
F1.2489250957044586
sVgeraldine
p1017
F0.8729049096034581
sVsawyer
p1018
F0.2329403875848967
sVsummit
p1019
F0.751876185462052
sVfresh
p1020
F0.17580460327901115
sVmenace
p1021
F0.30555861976643256
sVrescues
p1022
F0.3117626974456
sVhampton
p1023
F0.38891067969957327
sVcode
p1024
F0.24613602460418074
sVamiss
p1025
F0.23529332079282497
sVcenters
p1026
F0.36086254573734555
sVluxuries
p1027
F0.2193087509049554
sVlongstanding
p1028
F0.7824053736153151
sVyoung
p1029
F0.2685361881193518
sVsend
p1030
F0.751876185462052
sVsent
p1031
F0.10586409427156893
sVcontinues
p1032
F0.5348627303595598
sVcontinued
p1033
F0.2819525952261938
sVmagic
p1034
F0.08311689965605176
sVevo
p1035
F0.2193087509049554
sVexperiencing
p1036
F0.28767737498846424
sVmarry
p1037
F0.14671136076260793
sVeve
p1038
F0.2835785268914708
sVtry
p1039
F0.12120832302229008
sVrace
p1040
F0.004396900722244193
sVleonardo
p1041
F4.8816270921510805
sVthespian
p1042
F0.2329403875848967
sVvisuals
p1043
F0.9738723772933279
sVrecruitment
p1044
F0.2681341126035925
sVvideo
p1045
F0.08027409555544825
sVode
p1046
F1.0973837708882472
sVgraduating
p1047
F0.22830487387195728
sVlaurence
p1048
F0.19244803944674235
sVindian
p1049
F0.17404655724622103
sVtwins
p1050
F0.4353948616574626
sVbird
p1051
F0.17580460327901115
sVled
p1052
F0.06805671382550027
sVlee
p1053
F0.012452039951230603
sVgathered
p1054
F0.20236598633916195
sVleo
p1055
F0.005430096819938943
sVlet
p1056
F1.539165222043838
sVinvented
p1057
F1.0973837708882472
sVgreat
p1058
F0.15903426099177048
sVengage
p1059
F0.14671136076260793
sVinvolved
p1060
F0.41594445464928487
sVcasino
p1061
F6.137001049620123
sVderby
p1062
F0.2329403875848967
sVresidents
p1063
F0.17404655724622103
sVstephanie
p1064
F0.20441008721127468
sVinvolves
p1065
F2.0336851044504645
sVthats
p1066
F0.31992708352798754
sVdreamgirls
p1067
F1.044123004136673
sVsgt
p1068
F1.7517135966847042
sVtools
p1069
F0.36719669670084726
sVfrancis
p1070
F1.003381684197693
sVrico
p1071
F0.2193087509049554
sVillegal
p1072
F2.9388304947339354
sVnext
p1073
F0.027374470557347506
sVzimmer
p1074
F0.9738723772933279
sVmend
p1075
F0.23529332079282497
sVbaby
p1076
F0.5958052570569671
sVdepiction
p1077
F0.9546832440871756
sVanimals
p1078
F0.027663431335610292
sVthis
p1079
F1.0113679682265996e-10
sVasenath
p1080
F0.2329403875848967
sVchallenge
p1081
F0.03702417628479206
sVinsists
p1082
F1.003381684197693
sVbent
p1083
F1.1533613720201836
sVhigh
p1084
F0.0006846398053276891
sVnears
p1085
F0.17404655724622103
sVmartys
p1086
F0.15740458659047601
sVreynolds
p1087
F0.14379180468343203
sVdestroying
p1088
F0.2193087509049554
sVanimal
p1089
F0.1963555141789025
sVkravitz
p1090
F0.2935183909687422
sVcomedy
p1091
F0.12836299010503716
sVratha
p1092
F0.2400707282857106
sVsingular
p1093
F1.0973837708882472
sVdaring
p1094
F0.2681341126035925
sVclarkson
p1095
F0.9546832440871756
sV22nd
p1096
F1.6501934472868347
sVrobot
p1097
F2.4569131770702937
sVrealizes
p1098
F0.15234814701919608
sVallow
p1099
F1.1765439355977894
sVpyramids
p1100
F0.27634173858119254
sVhouston
p1101
F0.17058303075702122
sVholds
p1102
F0.07407249577378976
sVproducer
p1103
F0.32136996471111656
sVproduces
p1104
F2.5313601032487005
sVmove
p1105
F0.2524429443935348
sVproduced
p1106
F0.21911137891889024
sVdirects
p1107
F7.992427805249168
sVrogans
p1108
F0.2735783211953806
sVwarren
p1109
F0.41794588770130514
sVperfect
p1110
F0.2193087509049554
sVdecay
p1111
F1.6833623355773
sVchosen
p1112
F0.8904502982864876
sVshola
p1113
F0.22830487387195728
sVthieves
p1114
F2.158797718351267
sVlawlessness
p1115
F0.2329403875848967
sV2011
p1116
F0.09147825915453044
sV2010
p1117
F0.8729049096034581
sV2013
p1118
F0.09523072988251371
sV2012
p1119
F0.25756855871190165
sVdisrupted
p1120
F1.1765439355977894
sVsnake
p1121
F1.1533613720201836
sVlegendary
p1122
F0.10623521553949265
sVcage
p1123
F0.20236598633916195
sVrealize
p1124
F0.6299343759946893
sVliberia
p1125
F0.07711097589692233
sVinstallment
p1126
F0.0901929079650946
sVdelightful
p1127
F0.3412772975051935
sVtruth
p1128
F1.0142262602892005
sVbeneath
p1129
F0.6567589572941079
sVglasses
p1130
F0.18118600893024847
sVenigmatic
p1131
F0.1423538866365977
sVsuitors
p1132
F0.17404655724622103
sVsociety
p1133
F0.435917675257987
sVshannon
p1134
F0.2935183909687422
sVmakoto
p1135
F0.006506899071985785
sVconnors
p1136
F0.04304844675363223
sVmafias
p1137
F1.003381684197693
sVhilarious
p1138
F0.02684179976151133
sVburke
p1139
F1.0757609752850184
sVmendax
p1140
F0.8388444607314728
sVdubbed
p1141
F0.20236598633916195
sVlinnea
p1142
F0.29058320705905477
sVcould
p1143
F0.028448974265541552
sVscars
p1144
F0.1963555141789025
sVdavid
p1145
F0.0016770185602481592
sVlength
p1146
F0.18673214022713464
sVserenity
p1147
F0.8993548012693525
sVdavis
p1148
F0.16844706262870104
sVblown
p1149
F0.23061098370904776
sVscene
p1150
F0.1381258338496041
sVowner
p1151
F0.1395210442925294
sVblows
p1152
F0.2400707282857106
sVying
p1153
F2.9097331631029064
sVyippies
p1154
F0.8557052343921754
sVerstwhile
p1155
F1.2365595006974839
sVstart
p1156
F0.32011900026582335
sVfestival
p1157
F0.7674874986544511
sVsystem
p1158
F0.5634125150659849
sVsergeant
p1159
F0.2400707282857106
sVexhilarating
p1160
F0.7444318667941109
sVsongwriters
p1161
F0.9836111010662612
sVadopts
p1162
F0.5725571411712769
sVaccompany
p1163
F0.17058303075702122
sVrockwell
p1164
F0.15740458659047601
sVelite
p1165
F0.3984174837352468
sVsteel
p1166
F0.17230609167375882
sVroberts
p1167
F0.8388444607314728
sVcollecting
p1168
F0.2400707282857106
sVfalse
p1169
F0.6541044390585402
sVtonight
p1170
F0.9738723772933279
sVplushjoin
p1171
F0.2329403875848967
sVblockbuster
p1172
F0.1442021923709786
sVdocuments
p1173
F0.8388444607314728
sVdoraemon
p1174
F4.040717594517359
sVashore
p1175
F0.3117626974456
sVlinda
p1176
F0.2193087509049554
sVlily
p1177
F0.7669888967898393
sVworldwide
p1178
F0.2553117018043591
sVdoug
p1179
F0.23529332079282497
sVreignite
p1180
F0.31491181560161613
sVface
p1181
F0.1496377856946765
sVpainting
p1182
F0.3486769708128626
sVfact
p1183
F0.8729049096034581
sVbring
p1184
F0.03215332583846971
sVbrine
p1185
F0.2193087509049554
sVcammila
p1186
F0.1963555141789025
sVmarkovitz
p1187
F0.7824053736153151
sVasylum
p1188
F1.414869540060152
sVbrink
p1189
F1.0376691464464778
sVdecade
p1190
F2.432587304029994
sVjay
p1191
F0.22830487387195728
sVshould
p1192
F1.0235496560500665
sVjam
p1193
F0.7444318667941109
sVhighstakes
p1194
F0.7444318667941109
sVhope
p1195
F0.04888058760897817
sVjaa
p1196
F0.2400707282857106
sVmeans
p1197
F0.017155954550840815
sVfamiliar
p1198
F0.5389433779644927
sVcranky
p1199
F1.2489250957044586
sVsmash
p1200
F0.751876185462052
sVh
p1201
F3.6217910157574016
sVreid
p1202
F0.17230609167375882
sVkerrigan
p1203
F1.5239259624196417
sVohio
p1204
F0.2708425379834268
sVmotorcycle
p1205
F0.25756855871190165
sVmysteries
p1206
F0.18118600893024847
sVwire
p1207
F0.2376700210028535
sVdestiny
p1208
F0.12533770713544481
sVposse
p1209
F0.9174318327748666
sVunravel
p1210
F0.5492815392089396
sVnominees
p1211
F0.8223159109219417
sVyoull
p1212
F1.0865185850378685
sVends
p1213
F0.8904502982864876
sVexplosive
p1214
F0.5634125150659849
sVifans
p1215
F0.14671136076260793
sVhistorians
p1216
F0.05158506515078838
sVabsentee
p1217
F1.0757609752850184
sVmarty
p1218
F0.015599552515873855
sVchallengers
p1219
F0.2193087509049554
sVinvited
p1220
F0.20034232647577033
sVgalore
p1221
F0.29058320705905477
sVfollowup
p1222
F1.0235496560500665
sVfigures
p1223
F1.5328672493963538
sVglory
p1224
F0.08380547104821147
sVco
p1225
F0.21412922688444758
sVoutsider
p1226
F0.8993548012693525
sVdazzling
p1227
F0.7669888967898393
sVgenetic
p1228
F0.20856043996661022
sVroller
p1229
F0.14671136076260793
sVpsychotherapist
p1230
F0.5634125150659849
sVrecounts
p1231
F0.4095058881951416
sVbaums
p1232
F0.09427842258368857
sVtheyve
p1233
F0.047258340112393785
sVtoothless
p1234
F0.2681341126035925
sVarchival
p1235
F0.36745383723446523
sVsalma
p1236
F0.22830487387195728
sVvi
p1237
F0.3070595041065453
sVsite
p1238
F0.40037435138988886
sVpitt
p1239
F0.9546832440871756
sVmockingbird
p1240
F0.13402335845843702
sVsits
p1241
F0.23061098370904776
sVterrorist
p1242
F0.7768307196557491
sVmoviemakers
p1243
F0.17404655724622103
sVromance
p1244
F0.26389113340522286
sVmatthew
p1245
F0.3096807655348287
sVpainstaking
p1246
F0.9546832440871756
sVdigging
p1247
F1.003381684197693
sVchronicling
p1248
F0.9452309347397778
sVterrorism
p1249
F0.23061098370904776
sVglaring
p1250
F0.2193087509049554
sVtwoday
p1251
F0.16386137871890186
sVinfinity
p1252
F0.2735783211953806
sVbale
p1253
F0.798131721624983
sVupon
p1254
F3.053725932214623
sVbals
p1255
F0.7824053736153151
sVidentity
p1256
F0.23061098370904776
sVofa
p1257
F1.1883093749537672
sVoff
p1258
F0.47347812195232236
sVneorealism
p1259
F0.17404655724622103
sVdrawing
p1260
F0.28012575567458103
sVnewest
p1261
F0.4214715966919633
sVless
p1262
F0.32130580104235906
sVmoments
p1263
F1.0889659451762115
sVrooms
p1264
F0.23061098370904776
sVpaul
p1265
F0.8136449659130952
sVwei
p1266
F0.798131721624983
sVarrest
p1267
F0.042617962286095906
sVvillagers
p1268
F0.18118600893024847
sVgovernment
p1269
F0.8449904575483883
sVfamously
p1270
F0.8642622867360972
sVfairies
p1271
F0.22152399081308627
sVfive
p1272
F0.10424623086738063
sVdescendant
p1273
F0.6739244576664531
sVemma
p1274
F0.8557052343921754
sVparasite
p1275
F1.6338548983037968
sVbecome
p1276
F0.15345666357575605
sVpoor
p1277
F0.14671136076260793
sVguaranty
p1278
F0.7824053736153151
sVfootage
p1279
F0.03907069910130191
sVthief
p1280
F0.15944830880197938
sVscatters
p1281
F0.9174318327748666
sVhallways
p1282
F0.31809274303193547
sVdoes
p1283
F2.268918098120131
sVpassion
p1284
F0.9083483492820461
sVpilfer
p1285
F1.1765439355977894
sVblowing
p1286
F0.3265208456809211
sVpressure
p1287
F1.2067515021615838
sVsingin
p1288
F0.4387605114994839
sVr
p1289
F0.21482627807226048
sVhiding
p1290
F0.2654527714775566
sVgained
p1291
F0.17808722909309013
sVsister
p1292
F0.39766117142413526
sVlifestyle
p1293
F0.21279506169432733
sVputs
p1294
F0.8557052343921754
sVangeles
p1295
F0.18486481882486328
sVdocumentary
p1296
F0.00023976463137835704
sValliance
p1297
F0.8557052343921754
sVletters
p1298
F0.42634660004410146
sVdisaffected
p1299
F0.17580460327901115
sVhubert
p1300
F0.7824053736153151
sVausten
p1301
F0.18118600893024847
sVhousing
p1302
F0.9546832440871756
sVpairing
p1303
F1.0757609752850184
sVannette
p1304
F0.751876185462052
sVflynn
p1305
F1.0973837708882472
sVrhythmic
p1306
F0.9738723772933279
sVcosmopolitan
p1307
F0.7824053736153151
sVinterest
p1308
F1.0973837708882472
sVdelivery
p1309
F1.2489250957044586
sVserafino
p1310
F1.1533613720201836
sVaweinspiring
p1311
F1.1533613720201836
sVofficial
p1312
F0.16944377491144544
sVexcitement
p1313
F0.12120832302229008
sVmonument
p1314
F0.8557052343921754
sVproblem
p1315
F0.2193087509049554
sVyuki
p1316
F0.168877200449451
sVsibling
p1317
F0.14671136076260793
sVprogrammer
p1318
F0.8904502982864876
sVrenowned
p1319
F0.2735783211953806
sVvariety
p1320
F0.7669888967898393
sVdeadly
p1321
F0.2787564285955552
sVwitness
p1322
F0.17230609167375882
sVnobita
p1323
F1.6501934472868347
sVprofiteer
p1324
F0.20236598633916195
sVmonday
p1325
F0.2791330692739319
sVelitists
p1326
F0.2193087509049554
sVtreelike
p1327
F0.30555861976643256
sVchance
p1328
F0.34709407325483504
sVlauda
p1329
F0.8729049096034581
sVinspiration
p1330
F0.017248851947581988
sVsearches
p1331
F0.7153843917957906
sVrule
p1332
F1.1765439355977894
sVvillainous
p1333
F0.2193087509049554
sVrural
p1334
F1.1765439355977894
sVsuicidal
p1335
F1.2489250957044586
sVmagnetic
p1336
F0.2376700210028535
sVsaves
p1337
F0.6039637686470347
sVoldest
p1338
F0.2708425379834268
sVintegrity
p1339
F0.14671136076260793
sVebbed
p1340
F1.0235496560500665
sVrelationships
p1341
F1.0973837708882472
sVinvaders
p1342
F1.666695381759703
sVedward
p1343
F0.04583638101575425
sVworth
p1344
F0.7669888967898393
sVblistering
p1345
F0.9174318327748666
sVsuccumbing
p1346
F0.9546832440871756
sVtickets
p1347
F0.25756855871190165
sVbewildered
p1348
F0.2654527714775566
sVsamurai
p1349
F2.054021955494969
sVundercover
p1350
F0.06435017054482768
sVmonotonous
p1351
F0.2193087509049554
sVmidsummer
p1352
F0.22152399081308627
sVdepraved
p1353
F0.31809274303193547
sVmachines
p1354
F0.2376700210028535
sVcoed
p1355
F0.29058320705905477
sVincompatible
p1356
F0.2935183909687422
sVrockies
p1357
F1.6833623355773
sVtolo
p1358
F0.038542921164946384
sVabove
p1359
F0.2735783211953806
sVconsisting
p1360
F0.1963555141789025
sVcressida
p1361
F0.2848006012385796
sVtold
p1362
F0.15272951296415227
sVfestive
p1363
F0.14819329369960396
sVpursuit
p1364
F0.8002495482589641
sVcelebration
p1365
F0.28767737498846424
sVbalance
p1366
F0.5719276431279631
sVdaughter
p1367
F0.9196361172860092
sVemployees
p1368
F0.21279506169432733
sVcomanagers
p1369
F0.17404655724622103
sVbunker
p1370
F1.5545568742642766
sVglittering
p1371
F0.9452309347397778
sVspooky
p1372
F0.9546832440871756
sVhighly
p1373
F0.10276092301156935
sVromantically
p1374
F0.2329403875848967
sVtotal
p1375
F0.2964832232007497
sVabsolution
p1376
F0.06435017054482768
sVsarah
p1377
F0.19705381713929657
sVplot
p1378
F0.6064754511366651
sVinglourious
p1379
F0.8729049096034581
sVhahn
p1380
F0.31491181560161613
sVaward
p1381
F0.17817624003011368
sVmouawads
p1382
F1.0757609752850184
sVoverrun
p1383
F0.2329403875848967
sVpulitzer
p1384
F0.18118600893024847
sV1992
p1385
F0.28767737498846424
sVword
p1386
F0.1963555141789025
sVwork
p1387
F0.034165553469444915
sVrefusing
p1388
F1.0235496560500665
sVtheories
p1389
F0.31809274303193547
sVera
p1390
F0.6786246692618626
sValready
p1391
F1.0337851526105672
sVindie
p1392
F0.9836111010662612
sVindia
p1393
F1.1421130748345918
sVfanciful
p1394
F0.22152399081308627
sVrecovery
p1395
F1.1883093749537672
sVinhabitants
p1396
F0.2376700210028535
sVegyptian
p1397
F0.15272951296415227
sVmorbid
p1398
F0.2819525952261938
sVinterview
p1399
F0.1395210442925294
sVordinary
p1400
F0.23061098370904776
sVbeach
p1401
F0.05703901766328814
sVlam
p1402
F0.2193087509049554
sVtransforming
p1403
F0.2848006012385796
sVearlier
p1404
F0.8223159109219417
sVlab
p1405
F0.14671136076260793
sVcustoms
p1406
F1.0235496560500665
sVlaw
p1407
F0.10280203765892189
sVlas
p1408
F0.4359612713851255
sVschneider
p1409
F0.22830487387195728
sVmecamorph
p1410
F0.2964832232007497
sVgreek
p1411
F0.5634125150659849
sVgreen
p1412
F1.2554993146899285
sVorder
p1413
F0.009222301387148014
sVgreed
p1414
F0.29488644912578676
sVoffice
p1415
F0.3628346540225178
sVinnovative
p1416
F0.051069214499280494
sVadolescence
p1417
F1.0973837708882472
sVbefallen
p1418
F0.31809274303193547
sVdenver
p1419
F0.08190398485404372
sVproduction
p1420
F0.13784292882338742
sVversus
p1421
F0.7669888967898393
sVeventually
p1422
F1.7059011677001428
sVthem
p1423
F3.829250571797601
sVaffected
p1424
F0.7225382357137485
sVsafe
p1425
F0.5227270775813725
sVcuties
p1426
F0.2819525952261938
sVbane
p1427
F2.4569131770702937
sVband
p1428
F1.4131017341808971
sVrepulsive
p1429
F0.2819525952261938
sVthey
p1430
F0.017328337212674516
sVbank
p1431
F1.3628607135715864
sVrocky
p1432
F1.1060875051010712
sVclassified
p1433
F0.36793186177312026
sVl
p1434
F0.12333586943885524
sVworldclass
p1435
F0.22152399081308627
sVcostello
p1436
F0.9174318327748666
sVschemes
p1437
F1.1533613720201836
sVevolve
p1438
F0.17580460327901115
sVdesolated
p1439
F0.24741932980010348
sVgatherings
p1440
F1.0973837708882472
sVmaniacs
p1441
F0.2819525952261938
sVjulianne
p1442
F0.5305211866332079
sVnetwork
p1443
F0.08459275233807453
sVcameras
p1444
F0.23061098370904776
sVforty
p1445
F0.2779353142063305
sVtrainers
p1446
F0.4008152947695229
sVstrangers
p1447
F0.13864478102726238
sVdaniel
p1448
F0.189459555910069
sVmarigold
p1449
F0.0605844081785242
sVforth
p1450
F0.8557052343921754
sVwismitanan
p1451
F0.2400707282857106
sVlawless
p1452
F0.23061098370904776
sVcertified
p1453
F0.2329403875848967
sVdelves
p1454
F0.7153843917957906
sVmaniac
p1455
F0.168877200449451
sVcreates
p1456
F0.9836111010662612
sVprogramme
p1457
F0.2964832232007497
sVanother
p1458
F0.3644710496946288
sVcomic
p1459
F0.15899453190957175
sVtimothy
p1460
F1.0651098765198201
sVjohn
p1461
F0.3638518230493571
sVdogs
p1462
F0.16699623482536596
sValbert
p1463
F0.21279506169432733
sVrejected
p1464
F0.11072589361943047
sVtoronto
p1465
F0.18301617063661463
sVchases
p1466
F0.31809274303193547
sVtarget
p1467
F0.6701608404837097
sVunexplainable
p1468
F0.2329403875848967
sVscenes
p1469
F0.04392250459507421
sVhistorical
p1470
F0.24857252511173777
sVpowers
p1471
F0.07407249577378976
sVnavigate
p1472
F0.17404655724622103
sVassange
p1473
F1.3257591556815653
sVpricklepants
p1474
F0.2329403875848967
sVenchanted
p1475
F1.1883093749537672
sVmanner
p1476
F0.2819525952261938
sVforced
p1477
F0.30391286688171004
sVrealm
p1478
F0.4136836796761916
sVluxury
p1479
F0.9546832440871756
sVforces
p1480
F0.10913187303866938
sVmutants
p1481
F0.31491181560161613
sVbruce
p1482
F0.3936451912539226
sViceland
p1483
F0.18673214022713464
sVgermany
p1484
F0.09523072988251371
sVkhon
p1485
F0.2400707282857106
sVgrave
p1486
F0.24741932980010348
sVnewcomers
p1487
F0.7669888967898393
sVaunt
p1488
F0.14671136076260793
sVdeeply
p1489
F0.7153843917957906
sVdecidedly
p1490
F0.2819525952261938
sVlewis
p1491
F0.21860804958648097
sVprecarious
p1492
F1.1883093749537672
sVanniversary
p1493
F0.024327489043660687
sVlewin
p1494
F1.1533613720201836
sVjust
p1495
F2.9674495426258924e-05
sVsentence
p1496
F1.1765439355977894
sVbelfort
p1497
F2.5062971319294065
sVindepth
p1498
F0.2193087509049554
sVdo
p1499
F0.18198496319815055
sVde
p1500
F0.7153843917957906
sVdc
p1501
F0.09333563835785168
sVleisure
p1502
F0.9546832440871756
sVda
p1503
F1.1083576085971296
sVhaunted
p1504
F0.3835995543374371
sVbarbies
p1505
F0.2329403875848967
sVxiaogang
p1506
F1.0865185850378685
sVrebirth
p1507
F0.2735783211953806
sVruns
p1508
F0.2705177056343499
sVgunslinging
p1509
F0.23061098370904776
sVcovering
p1510
F0.2654527714775566
sVemo
p1511
F0.9836111010662612
sVstorythe
p1512
F0.28767737498846424
sVgears
p1513
F0.2935183909687422
sVjourneys
p1514
F0.28767737498846424
sVsteal
p1515
F0.5064919398340677
sVsteam
p1516
F1.6833623355773
sVtechniques
p1517
F0.17404655724622103
sVdraws
p1518
F0.3427308282600027
sVaway
p1519
F0.9738723772933279
sVcooperation
p1520
F1.0545642341780397
sVdrawn
p1521
F0.5268994421721215
sVencounters
p1522
F0.04618608217792902
sVcastandcrew
p1523
F0.17058303075702122
sVwe
p1524
F0.003560293048603302
sVwb
p1525
F0.8223159109219417
sVclues
p1526
F0.31809274303193547
sVcaledonia
p1527
F0.15272951296415227
sVreceived
p1528
F0.14671136076260793
sVlehane
p1529
F0.9546832440871756
sVreceives
p1530
F0.2654527714775566
sVbrad
p1531
F0.9546832440871756
sVexceeds
p1532
F0.2654527714775566
sVpeacefully
p1533
F1.1765439355977894
sVingenious
p1534
F0.23529332079282497
sVroyal
p1535
F2.0055110957447915
sVtony
p1536
F0.06565673966414415
sVspeak
p1537
F0.2964832232007497
sVscarecrow
p1538
F0.14671136076260793
sVwarmth
p1539
F0.31491181560161613
sVduties
p1540
F0.18673214022713464
sVfamilies
p1541
F0.22830487387195728
sVattacked
p1542
F0.14969019565616562
sVconcerning
p1543
F1.0757609752850184
sVfest
p1544
F1.0973837708882472
sVhas
p1545
F5.0646498255441e-07
sVunbossed
p1546
F0.22830487387195728
sVaim
p1547
F0.23061098370904776
sVproperty
p1548
F0.28074274162255614
sVlaunched
p1549
F0.21279506169432733
sVcylinder
p1550
F0.2376700210028535
sVgermanys
p1551
F0.8642622867360972
sVsting
p1552
F0.20236598633916195
sVexile
p1553
F2.158797718351267
sVwarthog
p1554
F0.9738723772933279
sVperform
p1555
F0.5276904239731633
sVsyncs
p1556
F1.0757609752850184
sVsheltered
p1557
F0.23061098370904776
sVavoids
p1558
F1.0973837708882472
sVmonarch
p1559
F0.07407249577378976
sVindependent
p1560
F0.21279506169432733
sVmobconnected
p1561
F1.1533613720201836
sVnic
p1562
F0.751876185462052
sVquentin
p1563
F0.16551654416050693
sVlyndon
p1564
F0.8557052343921754
sVhand
p1565
F0.1423538866365977
sVnorwegian
p1566
F1.6338548983037968
sVmountainous
p1567
F0.798131721624983
sVanimations
p1568
F0.4008152947695229
sVhans
p1569
F0.09651544229058308
sVkept
p1570
F0.31042492922012294
sV1979
p1571
F1.0235496560500665
sV1975
p1572
F0.4257288855474377
sV1974
p1573
F0.8642622867360972
sV1973
p1574
F1.0757609752850184
sVkyle
p1575
F0.17058303075702122
sVthe
p1576
F8.395535558769306e-75
sVmusical
p1577
F0.36489051430321723
sVthanks
p1578
F0.9546832440871756
sVvictim
p1579
F0.2400707282857106
sVunique
p1580
F0.19399381148762865
sVjosh
p1581
F0.8010502381205858
sVoccupants
p1582
F0.2654527714775566
sVweiss
p1583
F0.007642069040744877
sVwright
p1584
F0.23877777581795984
sVspread
p1585
F0.18118600893024847
sVtransformed
p1586
F0.08699491423813203
sVboard
p1587
F0.23061098370904776
sVviking
p1588
F0.19052355905227492
sVmaya
p1589
F0.22830487387195728
sVlcs
p1590
F0.2400707282857106
sVarab
p1591
F0.6562993639203993
sVsmashhit
p1592
F0.2400707282857106
sVcape
p1593
F0.6064452276882586
sVinsurgent
p1594
F0.41413900487341865
sVcooler
p1595
F0.30033272569440905
sVtheyre
p1596
F0.8237561584519205
sVgandhi
p1597
F1.1765439355977894
sVnight
p1598
F0.07603889073687697
sVsecurity
p1599
F0.11411523006767034
sVwebb
p1600
F1.1533613720201836
sVembroiled
p1601
F0.2708425379834268
sVhonored
p1602
F0.9738723772933279
sVborn
p1603
F0.17404655724622103
sVproductions
p1604
F0.17058303075702122
sVabramoff
p1605
F0.41376642882429204
sVhumor
p1606
F0.1784794719184585
sVfilming
p1607
F0.30555861976643256
sVasking
p1608
F1.0973837708882472
sVpeek
p1609
F0.43437290638448905
sVbiopic
p1610
F0.8388444607314728
sVposh
p1611
F0.29058320705905477
sVpsychopathetic
p1612
F0.15740458659047601
sVplc
p1613
F0.7824053736153151
sVindecency
p1614
F0.8642622867360972
sVprisoners
p1615
F0.9266061511026152
sVprofession
p1616
F0.23529332079282497
sVformidable
p1617
F0.2193087509049554
sVstumble
p1618
F1.5545568742642766
sVstrangely
p1619
F0.5327008978401919
sVdeception
p1620
F0.8388444607314728
sVfight
p1621
F0.0028263453523305975
sVway
p1622
F0.005443414812480528
sVwax
p1623
F0.2376700210028535
sVwas
p1624
F0.000997202479510981
sVwar
p1625
F0.027080384343174408
sVbecoming
p1626
F4.644700677873261
sVmysterious
p1627
F0.9580300186328699
sVtrue
p1628
F0.9601397903578165
sVflirtatious
p1629
F0.2193087509049554
sVcrystal
p1630
F0.04219178266323495
sVemotional
p1631
F1.1221871284848193
sVinquiring
p1632
F0.751876185462052
sVstranded
p1633
F0.9546832440871756
sVragtag
p1634
F0.30555861976643256
sVmoore
p1635
F0.34436269664873936
sVcomputing
p1636
F0.8642622867360972
sVevidence
p1637
F0.09332162280726311
sVexpertise
p1638
F0.14671136076260793
sVoctavius
p1639
F0.2193087509049554
sVenlist
p1640
F1.666695381759703
sVarchive
p1641
F0.6253212064426703
sVsophisticatedand
p1642
F0.8904502982864876
sVstake
p1643
F0.43657207516864166
sVreality
p1644
F0.17404655724622103
sVunwilling
p1645
F0.31809274303193547
sVbrothers
p1646
F0.6004707436996688
sVwelcome
p1647
F0.2524429443935348
sVthornes
p1648
F0.31809274303193547
sVpolite
p1649
F0.23061098370904776
sVmullins
p1650
F0.2935183909687422
sVtogether
p1651
F0.2982822253216729
sVloyal
p1652
F0.14819329369960396
sVclassmate
p1653
F1.6176781171324721
sVpaige
p1654
F1.1883093749537672
sVsongs
p1655
F0.48510082333676136
sVdance
p1656
F8.354467710208661
sVkeep
p1657
F0.2556566652301335
sVglobal
p1658
F0.005642391771482742
sVfoulmouthed
p1659
F0.2935183909687422
sVbattle
p1660
F0.16462500950472084
sVdevoted
p1661
F0.7061795521188179
sVhonoring
p1662
F0.18118600893024847
sVflash
p1663
F0.751876185462052
sVterror
p1664
F0.054243538253857373
sVbrown
p1665
F0.6148109161701822
sVedgerton
p1666
F2.3610452712653816
sVvegas
p1667
F0.25592530180329864
sVanonymous
p1668
F0.9546832440871756
sVtrouble
p1669
F0.7669888967898393
sVperceived
p1670
F0.14671136076260793
sVevaded
p1671
F0.24741932980010348
sVpresented
p1672
F0.4169439702559937
sV12th
p1673
F0.4387605114994839
sVbikes
p1674
F1.2489250957044586
sVguy
p1675
F2.3597465951888554
sVlloyd
p1676
F1.6338548983037968
sVupper
p1677
F0.20856043996661022
sVbrave
p1678
F0.2735783211953806
sVmurnau
p1679
F0.1606005372823957
sVdiscover
p1680
F0.10544146258944767
sVaffiliation
p1681
F0.22830487387195728
sVcost
p1682
F1.0865185850378685
sVrough
p1683
F1.0651098765198201
sVunravels
p1684
F0.18118600893024847
sVappear
p1685
F0.3633430037178097
sVhavoc
p1686
F0.2524429443935348
sVshared
p1687
F0.8388444607314728
sVsupporting
p1688
F0.5604341793785733
sVunsure
p1689
F0.5634125150659849
sVvocalists
p1690
F0.8729049096034581
sVmuslim
p1691
F0.308645070471144
sVteaches
p1692
F0.7243105926870417
sVteacher
p1693
F1.3126328274074903
sVchange
p1694
F0.6206486079089111
sVbuck
p1695
F0.9174318327748666
sVtrial
p1696
F0.22830487387195728
sVfranklin
p1697
F0.2654527714775566
sVhershell
p1698
F0.2819525952261938
sVplotted
p1699
F0.798131721624983
sVchurchill
p1700
F1.0651098765198201
sVretired
p1701
F0.6176457031373779
sVtranscend
p1702
F0.8557052343921754
sVlifealtering
p1703
F0.3156527130787505
sVbullock
p1704
F0.10320376855870683
sVmemorable
p1705
F0.8557052343921754
sVillumination
p1706
F0.17580460327901115
sVfbi
p1707
F0.06698983742898088
sVlizzy
p1708
F1.6016615021113585
sVmarket
p1709
F0.7669888967898393
sVangelo
p1710
F1.1533613720201836
sVprove
p1711
F0.16365664245136632
sVangela
p1712
F0.22830487387195728
sVlive
p1713
F0.18749928956801779
sVangels
p1714
F0.15583054072457125
sVcommissioner
p1715
F1.1083576085971296
sVabrams
p1716
F0.14671136076260793
sVimrie
p1717
F0.17404655724622103
sVenvelope
p1718
F1.2489250957044586
sVdefeats
p1719
F0.8557052343921754
sVcat
p1720
F0.5215782847056253
sVsunaina
p1721
F0.17404655724622103
sVlabeled
p1722
F0.25756855871190165
sVincidents
p1723
F0.4071986566907527
sVcan
p1724
F0.17793576340963962
sVheart
p1725
F0.8897825292612803
sVdedicated
p1726
F0.02476812831883119
sV1980s
p1727
F2.095307796800418
sVposing
p1728
F0.31809274303193547
sVchic
p1729
F0.2193087509049554
sVfortunately
p1730
F0.19244803944674235
sVspreads
p1731
F1.003381684197693
sVspecies
p1732
F0.3412772975051935
sVwrite
p1733
F0.1005951879172614
sVdehumanizing
p1734
F0.5634125150659849
sVnonstop
p1735
F0.14671136076260793
sVsacrifice
p1736
F1.9349815962815637
sVuse
p1737
F0.07259845310789134
sVsouthern
p1738
F0.16409913460654313
sVbrazen
p1739
F0.22830487387195728
sVosborne
p1740
F0.15899453190957175
sVheroes
p1741
F0.05055852235428769
sVflourish
p1742
F1.6338548983037968
sVremember
p1743
F0.2524429443935348
sVgrandson
p1744
F0.2964832232007497
sVundubbed
p1745
F0.7669888967898393
sVmeerkat
p1746
F0.9738723772933279
sVmichel
p1747
F1.0651098765198201
sVserving
p1748
F0.8468515760921824
sVindeed
p1749
F0.11297407776699364
sVended
p1750
F0.8642622867360972
sVnefarious
p1751
F0.9738723772933279
sVstill
p1752
F0.3440528941634041
sVbirds
p1753
F0.2193087509049554
sVno2
p1754
F0.2400707282857106
sVculmination
p1755
F0.17058303075702122
sVselves
p1756
F0.3412772975051935
sVbirthdays
p1757
F1.0973837708882472
sVenno
p1758
F0.1606005372823957
sVforms
p1759
F0.7187906017964893
sVwindow
p1760
F0.135377129755997
sVdisparate
p1761
F0.30555861976643256
sValist
p1762
F0.17580460327901115
sV1954
p1763
F0.49676037819381086
sVwealthy
p1764
F0.751876185462052
sVnot
p1765
F0.03276025887816248
sVnow
p1766
F4.6913391665417434e-05
sV1959
p1767
F0.1606005372823957
sVhall
p1768
F0.18673214022713464
sVwont
p1769
F0.5434081858867795
sVlies
p1770
F0.1744211495768571
sVservant
p1771
F0.8642622867360972
sVjames
p1772
F1.4269473192447248
sVwong
p1773
F0.06435017054482768
sVentirely
p1774
F1.7159101525658476
sVen
p1775
F0.9174318327748666
sVchallenged
p1776
F1.4213932591857472
sVcairo
p1777
F0.4030460488210872
sVdirecting
p1778
F0.3245513141842011
sVsnapshots
p1779
F1.0973837708882472
sVchallenges
p1780
F0.22957551406215912
sVeverpersistent
p1781
F0.30555861976643256
sVfires
p1782
F1.0973837708882472
sVex
p1783
F0.8904502982864876
sVyear
p1784
F0.4488793779604633
sVhappen
p1785
F1.0865185850378685
sVcalling
p1786
F0.10320376855870683
sValbum
p1787
F2.3254269869613076
sVwatanabe
p1788
F0.9452309347397778
sVspace
p1789
F0.16222276493171284
sVantiwar
p1790
F0.8557052343921754
sVthirst
p1791
F0.17058303075702122
sVlooking
p1792
F0.8729049096034581
sVwhiteley
p1793
F0.2935183909687422
sVreceiving
p1794
F0.3117626974456
sVshows
p1795
F0.07407249577378976
sVundead
p1796
F0.24741932980010348
sVhyung
p1797
F1.003381684197693
sVcars
p1798
F1.2489250957044586
sVsneak
p1799
F0.43437290638448905
sVrebel
p1800
F0.17580460327901115
sVcarl
p1801
F0.2964832232007497
sVcare
p1802
F4.673354262678628
sVgroot
p1803
F0.30555861976643256
sVtransition
p1804
F0.308645070471144
sVbritish
p1805
F0.14803769060690122
sVsprawling
p1806
F0.20856043996661022
sVtennis
p1807
F0.8557052343921754
sVimpossibly
p1808
F0.14671136076260793
sVstriking
p1809
F0.1963555141789025
sVyourself
p1810
F0.31491181560161613
sVdirectly
p1811
F0.25359419228571184
sVimpossible
p1812
F1.772329456826555
sVring
p1813
F0.5321684365938426
sVways
p1814
F0.0852637154447932
sVsilent
p1815
F0.9174318327748666
sVcaught
p1816
F0.09588531658515936
sVbreed
p1817
F0.5209527348909253
sVtragic
p1818
F2.432587304029994
sVspecters
p1819
F0.2654527714775566
sVfo
p1820
F0.7669888967898393
sVfriend
p1821
F0.26227297142976114
sVthat
p1822
F2.022904166907127e-05
sVpittsburgh
p1823
F0.17058303075702122
sVinmates
p1824
F1.0757609752850184
sVjunkyard
p1825
F0.29058320705905477
sVpeck
p1826
F0.048566314845024564
sVthan
p1827
F0.016838103478304143
sVtelevision
p1828
F0.09056347656298513
sVtransferred
p1829
F0.5634125150659849
sVaccesses
p1830
F0.8388444607314728
sVsublime
p1831
F0.9836111010662612
sVcraig
p1832
F0.35996147113111193
sV13th
p1833
F0.4214715966919633
sVloki
p1834
F0.8223159109219417
sVanger
p1835
F0.5634125150659849
sVbreakfast
p1836
F0.17404655724622103
sVrecover
p1837
F0.14671136076260793
sVveteran
p1838
F0.2887004476708529
sVdecadence
p1839
F0.2329403875848967
sVequipment
p1840
F0.2376700210028535
sVbegin
p1841
F0.024032490139633583
sVprice
p1842
F0.4214715966919633
sVamerica
p1843
F0.08724320127897627
sVmichelle
p1844
F0.9546832440871756
sVforever
p1845
F0.3823547536103582
sVparlays
p1846
F1.1533613720201836
sVegg
p1847
F0.2400707282857106
sVsidekick
p1848
F0.31491181560161613
sVimplications
p1849
F0.20856043996661022
sVmrs
p1850
F0.17404655724622103
sVwingshing
p1851
F0.14671136076260793
sVprofessional
p1852
F0.751876185462052
sVgerman
p1853
F1.822840193081626
sVclavey
p1854
F0.17058303075702122
sVfifty
p1855
F0.18118600893024847
sVdiscovered
p1856
F0.5064919398340677
sVfletcher
p1857
F1.6501934472868347
sV25milliondollar
p1858
F0.32130580104235906
sVreallife
p1859
F0.0866216205984522
sVfifth
p1860
F0.4486326246230075
sVground
p1861
F0.9546832440871756
sVadolf
p1862
F1.1765439355977894
sVtitle
p1863
F7.2680775384054686
sVbreadcrumbs
p1864
F0.14671136076260793
sVarquette
p1865
F1.0973837708882472
sVonly
p1866
F0.0023568553050305916
sVoftenfrustrated
p1867
F0.1606005372823957
sVsamuel
p1868
F0.6541044390585402
sVtruly
p1869
F0.39467005173632136
sV12yearold
p1870
F0.8993548012693525
sVvideogaming
p1871
F0.09619265644698355
sVcelebrate
p1872
F0.14093034777023172
sVhomegrown
p1873
F0.23061098370904776
sVultraviolent
p1874
F0.5634125150659849
sV20person
p1875
F0.17058303075702122
sVhusband
p1876
F1.3659309838578724
sVburst
p1877
F0.28767737498846424
sVphysically
p1878
F0.14671136076260793
sVincarcerated
p1879
F0.9546832440871756
sVanchored
p1880
F0.3811713571735518
sVelected
p1881
F0.179374148840946
sVsuspects
p1882
F2.768511264783867
sVpaletta
p1883
F1.1533613720201836
sVunapologetically
p1884
F0.2819525952261938
sVincite
p1885
F0.9546832440871756
sVmendelsohn
p1886
F0.6348673242659575
sV3
p1887
F0.11596740957022551
sVbetween
p1888
F4.404048671127475
sVdeceptivethan
p1889
F0.8904502982864876
sVnotice
p1890
F0.23529332079282497
sVantics
p1891
F1.1533613720201836
sVguntoting
p1892
F0.30555861976643256
sVstyle
p1893
F0.7669888967898393
sVcoolheaded
p1894
F1.1533613720201836
sVperceptions
p1895
F0.22830487387195728
sVtalented
p1896
F0.8388444607314728
sVreluctantly
p1897
F0.22061755658827328
sVevict
p1898
F1.1765439355977894
sVnearby
p1899
F0.29058320705905477
sVmadness
p1900
F0.9546832440871756
sVinexplicable
p1901
F0.2654527714775566
sVlearning
p1902
F1.1828554328118481
sVcharismatic
p1903
F0.2193087509049554
sVlioness
p1904
F0.23529332079282497
sVshim
p1905
F2.0135496083667963
sVcarey
p1906
F1.6833623355773
sVsisterhood
p1907
F0.8557052343921754
sVelvis
p1908
F0.8557052343921754
sVwounds
p1909
F0.9174318327748666
sVfourtime
p1910
F1.0235496560500665
sVcountless
p1911
F0.09056347656298513
sVdeveloping
p1912
F0.11411523006767034
sVthese
p1913
F0.035361346427741955
sVchinatown
p1914
F0.09619265644698355
sVcrump
p1915
F0.2400707282857106
sVdregr
p1916
F0.05819714076450172
sVcoolest
p1917
F0.33114102049199173
sV100th
p1918
F0.3698501866941401
sVdrug
p1919
F0.2935183909687422
sVheels
p1920
F1.1765439355977894
sVsomebody
p1921
F2.660484908936558
sVnorthward
p1922
F0.25756855871190165
sVdevelop
p1923
F0.751876185462052
sVmedia
p1924
F0.19397441210647987
sVceo
p1925
F0.37896685231921035
sVfollowers
p1926
F0.2819525952261938
sVnoble
p1927
F0.2735783211953806
sVfinish
p1928
F0.4794101508376047
sVcenturies
p1929
F0.08699491423813203
sVinvestigates
p1930
F0.2329403875848967
sVfavorites
p1931
F0.2329403875848967
sVringside
p1932
F0.8557052343921754
sVmentally
p1933
F1.003381684197693
sVtheater
p1934
F0.03089718461601294
sVdaytona
p1935
F0.168877200449451
sVcharges
p1936
F0.3497945802221796
sVtaxi
p1937
F0.14671136076260793
sVentertainments
p1938
F0.17580460327901115
sVdancers
p1939
F0.7444318667941109
sVfoot
p1940
F0.9174318327748666
sVspeed
p1941
F0.14671136076260793
sVdueling
p1942
F1.0973837708882472
sVdeath
p1943
F0.19363513996587
sVthinking
p1944
F1.0973837708882472
sVsmugglers
p1945
F2.095307796800418
sVtreatment
p1946
F2.3846557239780353
sVrepublic
p1947
F0.17404655724622103
sVreal
p1948
F0.31612646576242753
sVspectacular
p1949
F4.979747796703317
sVonscreen
p1950
F0.7669888967898393
sVrules
p1951
F0.8557052343921754
sVgekkoukan
p1952
F0.168877200449451
sVchildstar
p1953
F0.17580460327901115
sVearle
p1954
F0.9546832440871756
sVearly
p1955
F0.0369649696883767
sVlistening
p1956
F0.168877200449451
sVculprits
p1957
F0.31809274303193547
sVstunt
p1958
F0.2400707282857106
sVrebecca
p1959
F1.5687680948098053
sVrear
p1960
F0.135377129755997
sVfortune
p1961
F4.000710489621147
sVunrequited
p1962
F0.3245513141842011
sVt
p1963
F0.17580460327901115
sVruths
p1964
F0.7669888967898393
sVabidjan
p1965
F0.7824053736153151
sVunraveling
p1966
F0.17580460327901115
sVwillis
p1967
F0.3245513141842011
sVguillaume
p1968
F1.0651098765198201
sVbusiness
p1969
F0.7433157525169832
sVuneasy
p1970
F0.30555861976643256
sV1930
p1971
F0.798131721624983
sVinnocence
p1972
F0.14671136076260793
sV1939
p1973
F0.6912964837881244
sVexciting
p1974
F0.5953287796434318
sVthrow
p1975
F0.29058320705905477
sVrawdon
p1976
F0.31809274303193547
sVpaints
p1977
F1.4791075252956578
sVgump
p1978
F1.4644628963323345
sVwolf
p1979
F0.14158720920642956
sVgreatly
p1980
F0.1606005372823957
sVunderway
p1981
F0.08108494500550328
sVassassin
p1982
F0.4257288855474377
sVactionpacked
p1983
F0.30555861976643256
sVyouc
p1984
F1.0865185850378685
sVtransfers
p1985
F0.30679865251926397
sVyour
p1986
F0.604900584432996
sVgungho
p1987
F0.179374148840946
sVprepare
p1988
F0.27634173858119254
sVarea
p1989
F1.0235496560500665
sVassumed
p1990
F0.25756855871190165
sVlos
p1991
F0.18486481882486328
sVstealth
p1992
F0.14671136076260793
sVlow
p1993
F0.12366934294693407
sVstars
p1994
F1.066921482622488
sVneyman
p1995
F0.9083483492820461
sVfaulted
p1996
F0.2193087509049554
sVminnythree
p1997
F0.8557052343921754
sVsmuggling
p1998
F1.0235496560500665
sVpitched
p1999
F0.7444318667941109
sVtrying
p2000
F0.6271686155852038
sVlionsgate
p2001
F1.646484226273693
sVembedded
p2002
F0.18673214022713464
sVbening
p2003
F0.751876185462052
sVcharlatan
p2004
F0.25756855871190165
sVarabs
p2005
F0.25756855871190165
sVmoved
p2006
F1.003381684197693
sVquandary
p2007
F1.0235496560500665
sVcoproduction
p2008
F1.003381684197693
sVmoves
p2009
F2.831652189140558
sVhospitals
p2010
F0.9546832440871756
sVexfighterturned
p2011
F0.7225382357137485
sVyou
p2012
F0.00018942619124555832
sVforcing
p2013
F0.428740958670863
sVgaining
p2014
F1.2867687750293995
sVnudie
p2015
F0.2819525952261938
sVwields
p2016
F0.179374148840946
sVcoverage
p2017
F0.31491181560161613
sVbuilding
p2018
F0.32385418964395785
sVrestored
p2019
F0.6012820674398661
sVsince
p2020
F1.1083576085971296
sVnewburgh
p2021
F0.23061098370904776
sVreligious
p2022
F0.15740458659047601
sVcarpet
p2023
F0.08027409555544825
sVzuckerman
p2024
F1.1533613720201836
sV1930s
p2025
F0.3698501866941401
sVpledges
p2026
F0.14671136076260793
sVvery
p2027
F0.0741428645281908
sVtoughtalking
p2028
F0.29058320705905477
sVhorror
p2029
F0.1313562936251141
sVrogue
p2030
F0.14671136076260793
sVdecide
p2031
F0.3986167522536847
sVlaser
p2032
F0.751876185462052
sVstreets
p2033
F0.6013721707886149
sVbefriends
p2034
F2.3145233518923454
sVwitnesses
p2035
F0.5598739973273349
sVtooeys
p2036
F0.11072589361943047
sVjedi
p2037
F0.005825875655749415
sVturmoil
p2038
F0.2848006012385796
sViran
p2039
F0.8223159109219417
sVrecruits
p2040
F0.5352908131586324
sVanswers
p2041
F0.10217173087311976
sVtracks
p2042
F1.0973837708882472
sVglasgows
p2043
F0.9836111010662612
sVexcess
p2044
F0.8557052343921754
sVstrong
p2045
F2.054021955494969
sVconviction
p2046
F0.8642622867360972
sVinspired
p2047
F0.1851700819750222
sVsoldier
p2048
F0.25756855871190165
sVmiamis
p2049
F2.095307796800418
sVarent
p2050
F0.2193087509049554
sVinspires
p2051
F1.0651098765198201
sVfamily
p2052
F1.5370097413015764
sVdonnie
p2053
F0.7669888967898393
sVlagos
p2054
F0.7824053736153151
sVaimed
p2055
F0.168877200449451
sVtoys
p2056
F0.18861832346175217
sVsimba
p2057
F1.8968548145099144
sVspawned
p2058
F0.9738723772933279
sVhoning
p2059
F0.6541044390585402
sVkhan
p2060
F3.058158797530417
sVtakes
p2061
F0.14913718855764072
sVkham
p2062
F0.012758982226145561
sVrevelation
p2063
F0.20856043996661022
sVstrauss
p2064
F0.1963555141789025
sVbash
p2065
F0.29058320705905477
sVspitznagel
p2066
F0.0067738143863264495
sVtaken
p2067
F0.3464871017324153
sVstorys
p2068
F0.9174318327748666
sVstraightup
p2069
F0.32130580104235906
sVinstrumental
p2070
F0.2329403875848967
sVproducing
p2071
F0.21279506169432733
sVronan
p2072
F0.18673214022713464
sVcoalition
p2073
F0.798131721624983
sVnina
p2074
F1.003381684197693
sVtitillated
p2075
F0.2819525952261938
sVhistory
p2076
F0.024197674007424654
sVtriads
p2077
F0.14671136076260793
sVpushes
p2078
F0.20856043996661022
sVcowl
p2079
F1.1083576085971296
sVterrible
p2080
F5.446276826936813
sVpushed
p2081
F0.31771124161154307
sVironfisted
p2082
F0.2524429443935348
sVimpoverished
p2083
F1.0235496560500665
sVmenus
p2084
F0.28767737498846424
sVunearthly
p2085
F0.17580460327901115
sVkolchak
p2086
F0.17580460327901115
sVschultz
p2087
F1.119441184683101
sVrecording
p2088
F0.2376700210028535
sVfu
p2089
F3.081797671752434
sVrudo
p2090
F0.798131721624983
sVlong
p2091
F1.3503119780065307
sVtries
p2092
F0.3087375795932991
sVinvasion
p2093
F0.18673214022713464
sVhooliganism
p2094
F0.3117626974456
sVa
p2095
F5.204583384321475e-17
sVlogues
p2096
F0.19244803944674235
sVmorphing
p2097
F1.0973837708882472
sVovernight
p2098
F0.23061098370904776
sVdream
p2099
F3.379966745071073
sVremnants
p2100
F0.798131721624983
sVcasablanca
p2101
F0.05210612641493776
sVreservoir
p2102
F0.05479145278167411
sVsoon
p2103
F0.732029020840873
sVcyclists
p2104
F1.2489250957044586
sVlasers
p2105
F0.751876185462052
sVcommitted
p2106
F0.29527006999054606
sVhelm
p2107
F1.196118540213073
sVhell
p2108
F1.1533613720201836
sVlimelight
p2109
F0.2329403875848967
sVactually
p2110
F6.645492739027716
sVabsence
p2111
F0.641215997508617
sV15year
p2112
F1.1765439355977894
sVsystems
p2113
F0.14671136076260793
sVevening
p2114
F0.2329403875848967
sVfood
p2115
F0.048080651696574314
sVonehour
p2116
F0.2735783211953806
sVanticipated
p2117
F0.7669888967898393
sVcommodore
p2118
F0.8388444607314728
sVsweeping
p2119
F0.2735783211953806
sVbryan
p2120
F0.9358722126136414
sVimprisoned
p2121
F0.179374148840946
sVfully
p2122
F0.5659253191285094
sVstopped
p2123
F0.05703901766328814
sVpaula
p2124
F0.1606005372823957
sVifc
p2125
F0.045104302876703715
sVcandyland
p2126
F0.6541044390585402
sVfairy
p2127
F0.46259658955220856
sVflashbacks
p2128
F0.25756855871190165
sVjaws
p2129
F0.4257288855474377
sVhaley
p2130
F0.435917675257987
sVwasikowska
p2131
F0.26436658900018445
sVbeyond
p2132
F0.05819714076450172
sVevent
p2133
F0.0008379007321405815
sVrobert
p2134
F0.044581868191094116
sVsurrounded
p2135
F0.18673214022713464
sVchineseamerican
p2136
F0.28767737498846424
sVdouglas
p2137
F0.17404655724622103
sVsafety
p2138
F0.15740458659047601
sV7
p2139
F0.33448587928484014
sVass
p2140
F0.15899453190957175
sVdirt
p2141
F0.23061098370904776
sVput
p2142
F0.3966682105649714
sVheroic
p2143
F0.33448587928484014
sVrevolutionary
p2144
F1.0973837708882472
sVlaunch
p2145
F0.2400707282857106
sVbrazenly
p2146
F1.0235496560500665
sVlawler
p2147
F0.29058320705905477
sVterribly
p2148
F0.12243264951746473
sVamerican
p2149
F0.018001349414555407
sVkung
p2150
F3.081797671752434
sV1875
p2151
F0.2524429443935348
sVcinemagoers
p2152
F0.9546832440871756
sVultracompetitive
p2153
F0.15899453190957175
sVmiss
p2154
F0.041352166188236575
sVtranscendent
p2155
F1.0973837708882472
sVscheme
p2156
F0.2193087509049554
sVmerciless
p2157
F0.9836111010662612
sVselling
p2158
F0.23529332079282497
sVtrapped
p2159
F0.4631057512468141
sVjamie
p2160
F0.6541044390585402
sV1919
p2161
F0.9174318327748666
sVjordan
p2162
F0.8557052343921754
sVncm
p2163
F0.032489493049124844
sVinventing
p2164
F0.2819525952261938
sValbums
p2165
F0.39376330843394763
sV1916
p2166
F0.25756855871190165
sVgrew
p2167
F0.12120832302229008
sVkindly
p2168
F0.8993548012693525
sVperformers
p2169
F0.2524429443935348
sVgrey
p2170
F0.20236598633916195
sVtoward
p2171
F1.3257591556815653
sVbuilder
p2172
F0.29819294841338256
sValongside
p2173
F0.28043407896896577
sVcomrades
p2174
F0.168877200449451
sVsentences
p2175
F0.14671136076260793
sVblissful
p2176
F1.0973837708882472
sVlie
p2177
F0.6064452276882588
sVofficers
p2178
F2.0336851044504645
sVmachado
p2179
F0.18673214022713464
sVoffscreen
p2180
F0.2193087509049554
sVtowards
p2181
F0.7788143949281445
sVhires
p2182
F0.641215997508617
sVsets
p2183
F9.137158295772249
sVeaten
p2184
F0.18118600893024847
sVunbeknownst
p2185
F0.17580460327901115
sVmach
p2186
F0.04304844675363223
sVperformances
p2187
F0.5634125150659849
sVclear
p2188
F0.2735783211953806
sVpopularity
p2189
F0.18118600893024847
sVblend
p2190
F0.23061098370904776
sVphenomenon
p2191
F0.535799517202728
sVstunned
p2192
F0.14671136076260793
sVbooze
p2193
F0.29058320705905477
sVwinstead
p2194
F1.6338548983037968
sVstalker
p2195
F0.4370525927138002
sVcoaster
p2196
F0.14671136076260793
sVnorthern
p2197
F1.6833623355773
sVjustice
p2198
F0.737061254251595
sVakira
p2199
F1.379590293696451
sVpretty
p2200
F0.5071508404940632
sVcircle
p2201
F0.9738723772933279
sVrotterdam
p2202
F0.7824053736153151
sVmeanwhile
p2203
F0.03101791462363171
sVfamous
p2204
F6.718326245757911
sVcapsule
p2205
F1.0973837708882472
sVduring
p2206
F0.22992007633388073
sVsacrificed
p2207
F1.1083576085971296
sVsacrifices
p2208
F0.07259845310789134
sVselfdefense
p2209
F0.8993548012693525
sVwithdrawal
p2210
F0.21279506169432733
sVseventeen
p2211
F1.0973837708882472
sVculture
p2212
F0.3822592358059524
sVclose
p2213
F5.5557469911582436
sVembarking
p2214
F0.3928390704036094
sVpictures
p2215
F0.007856327561692888
sVwon
p2216
F0.18118600893024847
sVprobably
p2217
F1.0545642341780397
sVstatistically
p2218
F1.6833623355773
sVnotoriously
p2219
F0.31491181560161613
sVmissing
p2220
F0.2986256136923684
sVunstoppable
p2221
F0.7225382357137485
sVinvisible
p2222
F0.8388444607314728
sVabruptly
p2223
F0.2329403875848967
sVboth
p2224
F9.346479307529805
sVsecrets
p2225
F0.013015433430065448
sVkeaton
p2226
F0.7669888967898393
sVsensitive
p2227
F0.8388444607314728
sVbuzz
p2228
F0.2329403875848967
sVprotector
p2229
F0.11526790915926297
sVexperimental
p2230
F0.8729049096034581
sVhackers
p2231
F1.0235496560500665
sVheaded
p2232
F0.2735783211953806
sVhauntings
p2233
F0.17580460327901115
sVsteele
p2234
F0.18673214022713464
sVmanners
p2235
F0.8388444607314728
sVwhatever
p2236
F1.0973837708882472
sVferrera
p2237
F0.2848006012385796
sVlikes
p2238
F0.7669888967898393
sVmission
p2239
F0.3294892555457309
sVlangs
p2240
F0.9546832440871756
sVstamp
p2241
F0.18118600893024847
sVhelp
p2242
F0.032987097700461585
sVmaintenance
p2243
F1.6176781171324721
sVthreaten
p2244
F2.4206961887004512
sVterritory
p2245
F0.1671884284449565
sVsanders
p2246
F0.2848006012385796
sVlived
p2247
F0.6739244576664531
sVanthony
p2248
F0.2461360246041807
sVlives
p2249
F0.40047439574566385
sVimax
p2250
F0.9738723772933279
sVlook
p2251
F0.33333377825916527
sVbattling
p2252
F0.5604902284014133
sVimpersonating
p2253
F1.2365595006974839
sVwhile
p2254
F0.005242534371281749
sVsmart
p2255
F0.8223159109219417
sVguido
p2256
F0.14093034777023172
sVloot
p2257
F0.24741932980010348
sVanimated
p2258
F0.048241992013932575
sVmitchell
p2259
F0.2654527714775566
sVguide
p2260
F0.9174318327748666
sVuncompromising
p2261
F0.5634125150659849
sVrulers
p2262
F2.246453562495179
sVready
p2263
F0.1435977830900686
sVriotous
p2264
F1.1533613720201836
sVgrand
p2265
F1.700195958933073
sVshan
p2266
F0.7669888967898393
sVused
p2267
F3.1196277893607784
sVclassmates
p2268
F0.168877200449451
sVyoungsters
p2269
F0.5164141432728965
sVuses
p2270
F1.0545642341780397
sVcityscape
p2271
F0.9546832440871756
sVanticomingofage
p2272
F0.2708425379834268
sVfaceoff
p2273
F0.2654527714775566
sVdatabase
p2274
F1.4073200585997496
sVgrind
p2275
F0.29058320705905477
sVroyalty
p2276
F0.7225382357137485
sVchronicles
p2277
F0.2735783211953806
sVmobs
p2278
F1.130635596529932
sVscouring
p2279
F0.31809274303193547
sVexploits
p2280
F0.7225382357137485
sVteenage
p2281
F0.060351584959700805
sVtaiwan
p2282
F0.798131721624983
sV1800s
p2283
F0.9546832440871756
sVarmie
p2284
F0.17230609167375882
sVremaining
p2285
F0.18673214022713464
sVelves
p2286
F0.15120221783451074
sVmarch
p2287
F0.18861832346175217
sVselfdestructive
p2288
F0.9546832440871756
sVfinalize
p2289
F0.17058303075702122
sVshowing
p2290
F0.10320376855870683
sVgenetically
p2291
F0.6484381312993516
sVgame
p2292
F1.9936134736304914
sVwings
p2293
F1.003381684197693
sVparamilitary
p2294
F1.6833623355773
sVintoxication
p2295
F0.17404655724622103
sVvibrant
p2296
F0.751876185462052
sVtranslated
p2297
F0.18118600893024847
sVparade
p2298
F0.8557052343921754
sVbrakes
p2299
F1.2489250957044586
sVfathers
p2300
F0.7806467225569325
sVcreation
p2301
F0.0651400691227273
sVsome
p2302
F0.0007785996341034063
sVundress
p2303
F0.2819525952261938
sVphilandering
p2304
F1.2365595006974839
sVadmitted
p2305
F0.9546832440871756
sVsavage
p2306
F0.15272951296415227
sVdilapidated
p2307
F0.8223159109219417
sVforgets
p2308
F0.8557052343921754
sVcashonly
p2309
F0.2193087509049554
sVfoley
p2310
F1.0973837708882472
sVeating
p2311
F0.24741932980010348
sVnelle
p2312
F0.18118600893024847
sVstep
p2313
F10.821177059839053
sVlasts
p2314
F1.0865185850378685
sVplots
p2315
F0.2193087509049554
sVraspberry
p2316
F0.2329403875848967
sVabroad
p2317
F0.22830487387195728
sVtroops
p2318
F0.21279506169432733
sVfaith
p2319
F0.14093034777023172
sVwouldnt
p2320
F0.15740458659047601
sVtracing
p2321
F0.7593949473166726
sVariel
p2322
F0.2735783211953806
sVclassics
p2323
F2.0135496083667963
sVblock
p2324
F0.23061098370904776
sVcaretaker
p2325
F1.4938986005486143
sVwithin
p2326
F0.09619265644698355
sVpentagon
p2327
F1.4073200585997496
sVreworked
p2328
F0.2791330692739319
sVbehaving
p2329
F1.003381684197693
sVinstitut
p2330
F0.1606005372823957
sVimaginations
p2331
F1.1533613720201836
sVplacing
p2332
F0.7153843917957906
sVeons
p2333
F1.6338548983037968
sVhimself
p2334
F0.923044936668524
sVkoichi
p2335
F0.9452309347397778
sVlarry
p2336
F0.179374148840946
sValive
p2337
F0.5165174415960411
sVrussian
p2338
F0.20236598633916195
sVceremonies
p2339
F0.2964832232007497
sVchelsea
p2340
F0.7225382357137485
sVordered
p2341
F0.12120832302229008
sVadults
p2342
F0.9738723772933279
sVselfhelp
p2343
F0.17580460327901115
sVbasterds
p2344
F0.8729049096034581
sV1895
p2345
F0.798131721624983
sVrupert
p2346
F0.5634125150659849
sVpsychopath
p2347
F0.2193087509049554
sVfears
p2348
F0.620059345607121
sVapplication
p2349
F0.2193087509049554
sVpoliticians
p2350
F0.10961863468323617
sVmanhattan
p2351
F1.037772923738853
sVdraw
p2352
F0.8642622867360972
sVdrax
p2353
F0.30555861976643256
sVvisits
p2354
F0.7225382357137485
sVfrances
p2355
F0.23529332079282497
sVwilliam
p2356
F0.4965120476757844
sVdrag
p2357
F1.6833623355773
sVevan
p2358
F0.367123261033474
sVcomplicating
p2359
F0.9546832440871756
sVfbis
p2360
F0.22830487387195728
sVouting
p2361
F0.2935183909687422
sVyoutube
p2362
F0.23529332079282497
sVorbit
p2363
F0.2964832232007497
sVcrimethriller
p2364
F0.28767737498846424
sVliterally
p2365
F0.7513123363304288
sVhumiliates
p2366
F0.8993548012693525
sVbackin
p2367
F0.2654527714775566
sVwatergate
p2368
F0.8557052343921754
sVpearce
p2369
F0.6708313700601389
sVgo
p2370
F0.6543657099788389
sVpsycho
p2371
F0.29058320705905477
sVkate
p2372
F2.462447322050166
sVsuperpowered
p2373
F0.2524429443935348
sVwizard
p2374
F0.8387184974104708
sVculinary
p2375
F0.28767737498846424
sVsuite
p2376
F0.9836111010662612
sVfriendly
p2377
F0.23061098370904776
sVrelocated
p2378
F0.31491181560161613
sVunabridged
p2379
F0.2735783211953806
sVmurderous
p2380
F0.3801435313063895
sVnorthups
p2381
F0.9546832440871756
sVfacebook
p2382
F1.0973837708882472
sVenslaved
p2383
F1.666695381759703
sVhomicidal
p2384
F0.9783136522289452
sVstiff
p2385
F0.14671136076260793
sVmichael
p2386
F0.6300913620340872
sVryan
p2387
F0.751876185462052
sVdeformed
p2388
F1.003381684197693
sVdormonts
p2389
F0.17058303075702122
sVsultana
p2390
F1.2365595006974839
sVpunishing
p2391
F0.5634125150659849
sVboots
p2392
F0.1963555141789025
sVardent
p2393
F0.2819525952261938
sVhonors
p2394
F0.17058303075702122
sVplays
p2395
F2.0135496083667963
sVcolonel
p2396
F0.2524429443935348
sVcell
p2397
F0.9358722126136414
sVconning
p2398
F1.1533613720201836
sVexperiment
p2399
F5.181945526038136
sVvolatile
p2400
F0.5634125150659849
sVcollins
p2401
F1.003381684197693
sVfollowing
p2402
F0.5932782329982115
sVscythe
p2403
F0.2848006012385796
sVfocused
p2404
F0.4509717075718165
sVkidnapped
p2405
F0.7986505687246916
sVnathans
p2406
F0.8904502982864876
sVparanoid
p2407
F0.2735783211953806
sVproducts
p2408
F0.17404655724622103
sVbillys
p2409
F0.15740458659047601
sVgene
p2410
F0.4387605114994839
sVsalvation
p2411
F0.2524429443935348
sVclark
p2412
F0.35527661363614604
sVdanger
p2413
F0.2400707282857106
sVwin
p2414
F1.003381684197693
sVclout
p2415
F1.1533613720201836
sVkilik
p2416
F1.003381684197693
sVwiz
p2417
F0.8388444607314728
sVstrapped
p2418
F0.7225382357137485
sVremains
p2419
F0.23702914547315168
sVcamera
p2420
F0.06500017226750271
sVvehicle
p2421
F0.2193087509049554
sVjonathan
p2422
F1.0973837708882472
sVreflects
p2423
F0.2376700210028535
sVindiepop
p2424
F0.9836111010662612
sVstarted
p2425
F0.023318701149996325
sVbecomes
p2426
F0.6843146243519468
sVrnominated
p2427
F1.3691446289792737
sV70th
p2428
F0.21066711107738406
sVagent
p2429
F0.01232690521497892
sVrivalry
p2430
F0.8729049096034581
sVstafford
p2431
F0.17580460327901115
sVride
p2432
F0.366463000562743
sVmeet
p2433
F0.05703901766328814
sVcontrol
p2434
F1.1533613720201836
sVescapes
p2435
F0.2400707282857106
sVatone
p2436
F0.1963555141789025
sVdaku
p2437
F1.2365595006974839
sVdocumenting
p2438
F0.20236598633916195
sVsought
p2439
F0.25756855871190165
sVinvincibility
p2440
F0.1963555141789025
sVlocated
p2441
F0.17058303075702122
sVronald
p2442
F0.17404655724622103
sVbelongings
p2443
F0.24741932980010348
sVengineering
p2444
F0.20856043996661022
sVdiabolical
p2445
F0.1274548803481546
sVoctavia
p2446
F1.7517135966847042
sVcrazed
p2447
F1.2489250957044586
sVagenda
p2448
F1.1083576085971296
sVrovi
p2449
F0.0024176081213434794
sVunbreakable
p2450
F1.8410685950124424
sVkristen
p2451
F0.2193087509049554
sVsperm
p2452
F1.130635596529932
sVincluding
p2453
F0.023318701149996325
sVcruise
p2454
F0.31491181560161613
sVbrittle
p2455
F0.6541044390585402
sVrionda
p2456
F1.1533613720201836
sVouter
p2457
F0.2654527714775566
sVaffleck
p2458
F1.0973837708882472
sVguerrilla
p2459
F0.25756855871190165
sVhands
p2460
F1.1669352443607213
sVfront
p2461
F0.5316896765368493
sVdocumented
p2462
F0.23061098370904776
sVmasters
p2463
F0.35260418370640007
sVmods
p2464
F0.9836111010662612
sVcrossing
p2465
F0.2654527714775566
sVglobe
p2466
F0.05088568669880078
sV700
p2467
F0.24741932980010348
sVcaden
p2468
F0.31491181560161613
sVspecial
p2469
F0.008077398235399
sVkapoor
p2470
F0.0605844081785242
sVentertainment
p2471
F0.033149161360192685
sVcriminally
p2472
F0.9546832440871756
sVfathom
p2473
F0.006506899071985785
sVislamist
p2474
F1.2740284901281183
sVactivist
p2475
F0.22830487387195728
sVplayground
p2476
F0.3412772975051935
sVcause
p2477
F0.751876185462052
sVumbrella
p2478
F0.04304844675363223
sVcompletely
p2479
F0.8388444607314728
sVjill
p2480
F1.0235496560500665
sVintruder
p2481
F0.04304844675363223
sVprincess
p2482
F1.666695381759703
sVhostile
p2483
F0.11072589361943047
sVroute
p2484
F0.9174318327748666
sVflorida
p2485
F2.095307796800418
sVtimes
p2486
F0.8557052343921754
sVcounterpart
p2487
F0.2329403875848967
sVsamesex
p2488
F0.751876185462052
sVmad
p2489
F0.5604341793785733
sVchristoph
p2490
F0.6541044390585402
sVpowerful
p2491
F0.36345190726279075
sVwikileaks
p2492
F1.3257591556815653
sVprecisely
p2493
F0.12033871396485461
sVquality
p2494
F0.09056347656298513
sVmanagement
p2495
F0.5634125150659849
sVadopted
p2496
F0.14671136076260793
sVattack
p2497
F0.09089007869698287
sVfinal
p2498
F0.18383235635761883
sVviktor
p2499
F0.08190398485404372
sVexactly
p2500
F1.0235496560500665
sVnolte
p2501
F0.7225382357137485
sVherself
p2502
F0.4932211149686141
sVultimatum
p2503
F0.8729049096034581
sVben
p2504
F0.16794245350210393
sVselfimposed
p2505
F1.1083576085971296
sVproviding
p2506
F0.3698501866941401
sVrobocop
p2507
F0.2735783211953806
sVvillains
p2508
F0.2735783211953806
sVjulian
p2509
F3.7315349053258666
sVkeller
p2510
F0.8223159109219417
sVneed
p2511
F0.4052283588199727
sVkelley
p2512
F0.2735783211953806
sVpursued
p2513
F0.17058303075702122
sVable
p2514
F0.02645935585233433
sVbattles
p2515
F0.11999623979206718
sVbourne
p2516
F0.8729049096034581
sVrelatives
p2517
F1.1533613720201836
sVchambert
p2518
F0.34472454293453886
sVtruck
p2519
F0.2288420099738403
sVunleash
p2520
F1.5545568742642766
sVparenting
p2521
F1.0973837708882472
sVvengeance
p2522
F0.4214715966919633
sVawe
p2523
F0.14671136076260793
sVconsequences
p2524
F0.14671136076260793
sVpropels
p2525
F1.6833623355773
sVbusinessman
p2526
F0.7669888967898393
sVaffair
p2527
F0.2193087509049554
sVqualms
p2528
F0.9836111010662612
sVverbinski
p2529
F0.17230609167375882
sVparked
p2530
F0.8223159109219417
sVottoman
p2531
F0.25756855871190165
sVhollywoods
p2532
F0.20236598633916195
sVpartners
p2533
F0.17058303075702122
sVenvy
p2534
F0.17580460327901115
sVcyril
p2535
F1.4644628963323345
sVsheriff
p2536
F0.7764036882924827
sVearned
p2537
F0.2935183909687422
sVminiseries
p2538
F1.1765439355977894
sVwinner
p2539
F0.4766851503552134
sVcredited
p2540
F0.8642622867360972
sVdreamers
p2541
F0.17058303075702122
sVethan
p2542
F0.6911582314043314
sVlibre
p2543
F0.2193087509049554
sVemployee
p2544
F0.8642622867360972
sVachieve
p2545
F0.9083483492820461
sVdodge
p2546
F0.2193087509049554
sVrighteousness
p2547
F0.8557052343921754
sVsipping
p2548
F0.18673214022713464
sVcouric
p2549
F0.20441008721127468
sVlegitimate
p2550
F1.0973837708882472
sVyears
p2551
F0.0007063726497954162
sVascended
p2552
F0.19244803944674235
sVendless
p2553
F0.9546832440871756
sVconservatory
p2554
F0.9083483492820461
sVevolution
p2555
F1.0235496560500665
sVsowing
p2556
F1.0235496560500665
sVshy
p2557
F0.19244803944674235
sVshe
p2558
F0.002910675793100627
sVcontain
p2559
F0.14671136076260793
sVwidow
p2560
F0.2681341126035925
sVshake
p2561
F0.20856043996661022
sVterrain
p2562
F1.0973837708882472
sVimmigrant
p2563
F2.4678709411375177
sVcomputer
p2564
F7.638822537770215
sVdesperate
p2565
F2.707995304497977
sVnightmare
p2566
F0.4779023892227713
sVwritten
p2567
F2.3897881078616496
sVsupernatural
p2568
F0.2964832232007497
sVsold
p2569
F0.18118600893024847
sVken
p2570
F0.7387953486764899
sVcomparable
p2571
F1.0545642341780397
sVkicking
p2572
F0.2654527714775566
sVgamora
p2573
F0.30555861976643256
sVkey
p2574
F0.3412772975051935
sVpolice
p2575
F1.3233084255672336
sVprecious
p2576
F0.24741932980010348
sVhits
p2577
F0.06119637189749919
sVlimits
p2578
F1.1533613720201836
sVcareer
p2579
F0.024344525099732187
sVadmit
p2580
F0.20856043996661022
sVpublicized
p2581
F0.22830487387195728
sVstratton
p2582
F0.8557052343921754
sVjim
p2583
F0.7824053736153151
sVbronson
p2584
F0.2935183909687422
sVkeitel
p2585
F1.003381684197693
sVkings
p2586
F0.07071745768383482
sVyau
p2587
F0.14671136076260793
sVyam
p2588
F0.2400707282857106
sVslowly
p2589
F0.2524429443935348
sVufos
p2590
F0.03972272584527696
sVsonnys
p2591
F0.17404655724622103
sVsenses
p2592
F0.31809274303193547
sVcontrolled
p2593
F0.18118600893024847
sVpiques
p2594
F1.0973837708882472
sVours
p2595
F0.2654527714775566
sVkicks
p2596
F0.2400707282857106
sVnovel
p2597
F0.6008910410894471
sVkowalski
p2598
F0.2193087509049554
sVhealongside
p2599
F0.17580460327901115
sVharder
p2600
F0.23529332079282497
sV18yearold
p2601
F0.8388444607314728
sVmythology
p2602
F0.9738723772933279
sVbreakin
p2603
F0.8557052343921754
sVevelyn
p2604
F0.17404655724622103
sVsurface
p2605
F0.3430051363468478
sVswinging
p2606
F0.2329403875848967
sVcapture
p2607
F0.029722776261891626
sVbegan
p2608
F0.9836111010662612
sVcaptivated
p2609
F0.2964832232007497
sVblazed
p2610
F0.25756855871190165
sVparts
p2611
F0.8904502982864876
sVunderground
p2612
F0.9679977824188017
sVparty
p2613
F0.01869298415015637
sVbenjie
p2614
F0.17580460327901115
sVunconventional
p2615
F0.05646862748665526
sVflesh
p2616
F0.24741932980010348
sVeccentric
p2617
F0.7316268613000408
sVforgotten
p2618
F0.3747272187098839
sVsteals
p2619
F1.0235496560500665
sVdestruction
p2620
F1.0973837708882472
sVscarcely
p2621
F0.2524429443935348
sVi
p2622
F0.011892205207551462
sVwell
p2623
F0.021641290715978166
sVelude
p2624
F0.2654527714775566
sVrife
p2625
F0.38585023697166687
sVinsurmountable
p2626
F0.2735783211953806
sVpailhas
p2627
F1.5239259624196417
sVtrials
p2628
F0.2193087509049554
sVwarlord
p2629
F0.1963555141789025
sVunderdog
p2630
F0.7225382357137485
sVaccurate
p2631
F0.9174318327748666
sVmistaken
p2632
F1.2740284901281183
sVdetail
p2633
F0.22830487387195728
sVsources
p2634
F1.0973837708882472
sVdistant
p2635
F0.9174318327748666
sVlinklater
p2636
F1.0973837708882472
sVskill
p2637
F0.179374148840946
sVhess
p2638
F0.2193087509049554
sVlures
p2639
F0.2193087509049554
sVbrothels
p2640
F0.7225382357137485
sVnatwick
p2641
F0.9174318327748666
sVpatricia
p2642
F4.833294150644634
sVlured
p2643
F0.9568336479076853
sVmiramax
p2644
F0.28767737498846424
sVkick
p2645
F0.15899453190957175
sVfate
p2646
F0.1595599672770642
sVdisappearance
p2647
F0.2880803295013849
sVcrushed
p2648
F1.1083576085971296
sVsnowstorm
p2649
F0.7225382357137485
sVhistoric
p2650
F0.751876185462052
sVracially
p2651
F0.3698501866941401
sVprominent
p2652
F0.14671136076260793
sVnecessary
p2653
F0.0605844081785242
sVlost
p2654
F0.49611481164835375
sVfernando
p2655
F0.1606005372823957
sVclown
p2656
F0.2524429443935348
sVgangsters
p2657
F0.40316698682252744
sVmartin
p2658
F0.007109740698689677
sVadversity
p2659
F0.2400707282857106
sVgillian
p2660
F1.0973837708882472
sVbelonged
p2661
F0.14671136076260793
sVphenomena
p2662
F1.0973837708882472
sVshes
p2663
F0.5358263984995401
sVcleveland
p2664
F0.2329403875848967
sVhome
p2665
F0.08442367117626388
sVpeter
p2666
F0.025519890641122304
sVinvestor
p2667
F0.8557052343921754
sVtadpole
p2668
F0.3412772975051935
sVwendy
p2669
F0.3117626974456
sVlimitations
p2670
F0.2964832232007497
sVexpansion
p2671
F0.17404655724622103
sVridley
p2672
F0.7425730187114737
sVpoignant
p2673
F0.9836111010662612
sVprohibited
p2674
F0.8388444607314728
sVfreedom
p2675
F0.4673627502523912
sVsinister
p2676
F0.10320376855870683
sVstakes
p2677
F0.8904502982864876
sVequally
p2678
F0.9083483492820461
sVpreviously
p2679
F1.0571510374527238
sVsociopolitical
p2680
F1.2365595006974839
sVwashington
p2681
F0.13701147811048828
sVinterstellar
p2682
F0.19052355905227492
sVarticulate
p2683
F1.1533613720201836
sVterence
p2684
F0.9083483492820461
sVscandalous
p2685
F1.0651098765198201
sVartists
p2686
F1.8644133722157514
sVcouldnt
p2687
F0.2935183909687422
sVwhos
p2688
F1.4251648979016418
sVdrivein
p2689
F0.2819525952261938
sVmississippi
p2690
F0.8557052343921754
sVaccused
p2691
F1.2740284901281183
sVadditional
p2692
F0.2376700210028535
sVmuseum
p2693
F0.3928390704036094
sVdaniels
p2694
F0.9546832440871756
sVghost
p2695
F0.17580460327901115
sVcricket
p2696
F1.0973837708882472
sVwilliamson
p2697
F0.8557052343921754
sVnorth
p2698
F0.15914562951742015
sVdardenne
p2699
F0.7153843917957906
sVhp
p2700
F0.2329403875848967
sVhighest
p2701
F0.40147715212178176
sVeat
p2702
F0.20441008721127468
sVhd
p2703
F0.31491181560161613
sVhe
p2704
F4.324775263621096e-05
sVprevalent
p2705
F0.19244803944674235
sVforrests
p2706
F0.8557052343921754
sVcruel
p2707
F0.8993548012693525
sVprojecting
p2708
F1.0235496560500665
sVstories
p2709
F0.11805017622741001
sVpiece
p2710
F0.19244803944674235
sVuniversal
p2711
F0.04384131171456754
sVpenny
p2712
F0.8557052343921754
sVtwist
p2713
F0.2400707282857106
sVbeats
p2714
F0.29058320705905477
sVeducation
p2715
F0.6774041825993852
sVeric
p2716
F0.2809393401732476
sVrumors
p2717
F0.18118600893024847
sVradioaddress
p2718
F1.0651098765198201
sVoffensive
p2719
F0.8388444607314728
sVfinch
p2720
F0.023792165238237246
sVstar
p2721
F0.0005519654375638485
sVemerges
p2722
F0.14592121521966894
sVstay
p2723
F0.06549279463427528
sVfriends
p2724
F0.001355146944855588
sVtrilogystyled
p2725
F0.17058303075702122
sVportion
p2726
F1.0757609752850184
sVaided
p2727
F0.3934877567945583
sVdissolution
p2728
F0.641215997508617
sVdynamic
p2729
F1.2365595006974839
sVprotest
p2730
F0.751876185462052
sVknell
p2731
F0.2654527714775566
sVscheming
p2732
F1.1533613720201836
sVcaptain
p2733
F0.16386137871890186
sVwhose
p2734
F0.014537614157684625
sVbuddy
p2735
F1.973874726366823
sVpresents
p2736
F0.09749034574806378
sVswap
p2737
F0.9358722126136414
sVteaching
p2738
F0.4274565990785064
sVwinfrey
p2739
F0.18118600893024847
sVfists
p2740
F0.2400707282857106
sVconnects
p2741
F0.7669888967898393
sVvast
p2742
F3.278760159189424
sVskills
p2743
F0.28690165498263004
sVheading
p2744
F0.4827296860836075
sVwhirlwind
p2745
F0.18673214022713464
sVuncovers
p2746
F0.8388444607314728
sVforce
p2747
F0.5325143870709409
sVjapanese
p2748
F4.979747796703317
sVpovertystricken
p2749
F0.31707642241764217
sVpattinson
p2750
F0.17580460327901115
sVfixie
p2751
F1.2489250957044586
sVkidnap
p2752
F0.2193087509049554
sVquill
p2753
F0.11411523006767034
sVeven
p2754
F0.520769990214363
sVneo
p2755
F0.17404655724622103
sVwreck
p2756
F0.2524429443935348
sVasif
p2757
F1.1533613720201836
sVasia
p2758
F0.7669888967898393
sVlights
p2759
F0.07788987464335588
sVcheng
p2760
F0.8993548012693525
sVnew
p2761
F1.5312535687232827e-06
sVever
p2762
F0.3198949841794236
sVdescendents
p2763
F0.20856043996661022
sVdres
p2764
F0.8993548012693525
sVmen
p2765
F0.030692374448511434
sVmei
p2766
F2.9097331631029064
sVdrew
p2767
F0.31491181560161613
sVmet
p2768
F1.0757609752850184
sVactive
p2769
F0.9358722126136414
sVignoring
p2770
F1.0973837708882472
sVomar
p2771
F0.8223159109219417
sVdre
p2772
F5.233764981298518
sVjoshua
p2773
F0.1963555141789025
sVfantastic
p2774
F0.537167707499974
sVdigitally
p2775
F0.2601702613251532
sVcampaign
p2776
F0.308645070471144
sVcounty
p2777
F0.22830487387195728
sVguests
p2778
F0.17404655724622103
sVcriminals
p2779
F1.3149318418888294
sVarmy
p2780
F0.015598769918744449
sVarms
p2781
F0.08190398485404372
sVcall
p2782
F0.3117626974456
sVsurvive
p2783
F0.143525998556866
sVtype
p2784
F0.7191501049411407
sVtell
p2785
F0.013966876116779664
sVmckinney
p2786
F0.2193087509049554
sVoscar
p2787
F0.9846443227045756
sVexpose
p2788
F0.4627816744569419
sVwars
p2789
F0.0015920390513386755
sVjusticetaking
p2790
F0.17230609167375882
sVfrenzy
p2791
F1.6833623355773
sVadult
p2792
F0.5634125150659849
sVquindlen
p2793
F0.18118600893024847
sVwahshun
p2794
F0.14671136076260793
sVward
p2795
F1.934110684552742
sVshahid
p2796
F1.2365595006974839
sVdirectorial
p2797
F0.8904502982864876
sVroom
p2798
F0.33114102049199173
sVmovies
p2799
F0.0025451296082347297
sVstoriesc
p2800
F1.0235496560500665
sVguise
p2801
F0.1963555141789025
sVgive
p2802
F2.0900751116676832
sVclimax
p2803
F0.7225382357137485
sVlaughs
p2804
F0.31491181560161613
sVhadrians
p2805
F0.15272951296415227
sVunforgettable
p2806
F0.30138578466631527
sVaging
p2807
F0.49887612539631654
sVgoetheinstitut
p2808
F0.7824053736153151
sVtitular
p2809
F0.34472454293453886
sVamazing
p2810
F0.11948133804761295
sVinsemination
p2811
F0.20236598633916195
sVsato
p2812
F0.9452309347397778
sVbriefcase
p2813
F0.14671136076260793
sVmcgavin
p2814
F0.2964832232007497
sVvicious
p2815
F0.18118600893024847
sVpresident
p2816
F0.5327008978401918
sVattempt
p2817
F0.1420481156123058
sVthird
p2818
F0.5949716716630575
sVoperate
p2819
F0.8388444607314728
sVhelena
p2820
F1.0651098765198201
sVbefall
p2821
F0.9546832440871756
sVghastly
p2822
F1.003381684197693
sVpanthers
p2823
F0.22830487387195728
sVbefore
p2824
F0.09388788013388592
sVdeathly
p2825
F0.8904502982864876
sVpersonal
p2826
F0.9122625489517462
sVcolliery
p2827
F1.2365595006974839
sVcrew
p2828
F0.07572398013326259
sVplantation
p2829
F1.2489250957044586
sVovercome
p2830
F0.4099566150632022
sVgunning
p2831
F0.29058320705905477
sVghouls
p2832
F0.24741932980010348
sVcombination
p2833
F2.095307796800418
sVweakness
p2834
F1.0235496560500665
sVunemployed
p2835
F0.15740458659047601
sVconvinces
p2836
F0.7669888967898393
sVarrested
p2837
F0.14671136076260793
sVmcfarland
p2838
F4.040717594517359
sVside
p2839
F0.7757438632814974
sVluck
p2840
F0.2400707282857106
sVdomenic
p2841
F1.1533613720201836
sVprinciples
p2842
F0.179374148840946
sVpostapocalyptic
p2843
F0.2935183909687422
sVtaught
p2844
F0.23529332079282497
sVtrading
p2845
F0.179374148840946
sVawry
p2846
F0.31809274303193547
sVdawn
p2847
F0.367123261033474
sVpaleontologist
p2848
F1.6338548983037968
sVtales
p2849
F0.09946979466183425
sVsparkly
p2850
F0.3412772975051935
sVmccarthy
p2851
F0.2935183909687422
sVsurprise
p2852
F0.4976553969014106
sVturning
p2853
F0.6376988147794276
sVrevenge
p2854
F0.056091514804370864
sVaboriginal
p2855
F0.798131721624983
sVstruggle
p2856
F0.019265179238725765
sVjackman
p2857
F1.3524069147107647
sVstarts
p2858
F0.20441008721127468
sV100000
p2859
F0.29058320705905477
sVarrived
p2860
F0.269680357439088
sVstewart
p2861
F0.2601702613251532
sVplaywright
p2862
F0.23529332079282497
sVfeatures
p2863
F0.018506054308654804
sVhaunting
p2864
F1.7343698977076278
sVfeatured
p2865
F0.1802101927653993
sVfassbender
p2866
F0.9546832440871756
sVleaders
p2867
F0.193480415058115
sVgoblins
p2868
F0.22152399081308627
sVgirls
p2869
F0.014539802342901325
sVtwisted
p2870
F0.15899453190957175
sV2
p2871
F0.15211215316147397
sVhollywood
p2872
F0.02338993142853401
sVtwister
p2873
F1.1765439355977894
sVhawke
p2874
F1.0973837708882472
sVlovelorn
p2875
F0.14671136076260793
sVmodernist
p2876
F0.9546832440871756
sVbegins
p2877
F0.04980076948481397
sVdisciplined
p2878
F0.8729049096034581
sVmatter
p2879
F0.17580460327901115
sVsolomon
p2880
F0.9546832440871756
sVextracting
p2881
F0.9174318327748666
sVsees
p2882
F0.8388444607314728
sVmodern
p2883
F0.9384022957810605
sVcaleb
p2884
F1.5858034674369885
sVseen
p2885
F1.2001920686072098
sVseem
p2886
F0.8223159109219417
sVtells
p2887
F0.087509698005687
sVchess
p2888
F0.8642622867360972
sVpanties
p2889
F0.14093034777023172
sVtunnels
p2890
F0.27634173858119254
sVmarin
p2891
F0.22830487387195728
sVregular
p2892
F0.4434805450808001
sVmarie
p2893
F0.7824053736153151
sVmaria
p2894
F0.43591767525798697
sVdon
p2895
F1.3869910205471525
sVdom
p2896
F1.0235496560500665
sVdoc
p2897
F0.4356126244127627
sVdog
p2898
F0.07601229312138229
sVpoints
p2899
F0.2400707282857106
sVmildred
p2900
F0.9174318327748666
sVdover
p2901
F1.3524069147107647
sVhunger
p2902
F7.715210763147917
sVending
p2903
F0.10424623086738063
sVunleashes
p2904
F0.2193087509049554
sVweekends
p2905
F0.17058303075702122
sVdebts
p2906
F0.6739244576664531
sVunleashed
p2907
F0.1395210442925294
sVlennie
p2908
F1.0235496560500665
sVboyfriend
p2909
F0.05233851828170784
sVgalaxys
p2910
F0.30555861976643256
sVwearing
p2911
F0.18118600893024847
sVcolorful
p2912
F0.4534816092071449
sVstop
p2913
F0.24467574996624541
sVallvolunteer
p2914
F0.17058303075702122
sVcoast
p2915
F1.8594792809625669
sVchristopher
p2916
F2.1195434335867076
sVearl
p2917
F0.9738723772933279
sVbar
p2918
F0.14671136076260793
sVfields
p2919
F0.7337517650659536
sVdisney
p2920
F0.6054750371949489
sVdecides
p2921
F3.1196277893607784
sVfascinating
p2922
F0.14969019565616562
sVdomhnall
p2923
F0.8904502982864876
sVdecided
p2924
F0.2654527714775566
sVbrazil
p2925
F0.17058303075702122
sVsaid
p2926
F0.18118600893024847
sVscrap
p2927
F1.2365595006974839
sVsail
p2928
F0.24741932980010348
sVartificial
p2929
F0.12671774494396143
sVprince
p2930
F2.3145233518923454
sVnarrates
p2931
F0.19244803944674235
sVpets
p2932
F0.14671136076260793
sVwarrior
p2933
F0.026573381763896217
sVvows
p2934
F0.21086731479605145
sVphysicist
p2935
F0.31809274303193547
sVcawley
p2936
F0.9546832440871756
sVagainst
p2937
F0.057736236664760264
sVrussia
p2938
F0.3245513141842011
sVappeared
p2939
F0.6739244576664531
sVinitiative
p2940
F0.7824053736153151
sVasks
p2941
F0.751876185462052
sVthree
p2942
F0.66302777061308
sVfriedrichwilhelmmurnaustiftung
p2943
F0.9546832440871756
sVtina
p2944
F0.17404655724622103
sVbasic
p2945
F0.179374148840946
sVentered
p2946
F0.8642622867360972
sVjordin
p2947
F0.31491181560161613
sVdeeper
p2948
F0.10217173087311976
sVchun
p2949
F0.06603536136816905
sVsunshine
p2950
F0.8904502982864876
sVaviation
p2951
F0.20236598633916195
sVlionel
p2952
F0.24309051721281452
sVtank
p2953
F0.9174318327748666
sVlizard
p2954
F0.06766650245351603
sVmurders
p2955
F0.9738723772933279
sVstudy
p2956
F1.6338548983037968
sVseven
p2957
F0.3567361921513959
sVsettles
p2958
F1.0757609752850184
sVmetropolitan
p2959
F0.7824053736153151
sVmexico
p2960
F0.2524429443935348
sViq
p2961
F0.8557052343921754
sVip
p2962
F0.0005491025241667124
sVis
p2963
F2.168074741607286e-12
sVit
p2964
F1.682206547652509e-08
sViv
p2965
F0.09619265644698355
sVii
p2966
F3.8830501859370674
sVcant
p2967
F1.0235496560500665
sVin
p2968
F1.5903110661605654e-19
sVmouse
p2969
F0.34472454293453886
sVif
p2970
F1.5037904338003414
sVgrown
p2971
F0.038542921164946384
sVbello
p2972
F0.22830487387195728
sVbelle
p2973
F1.2679906921875796
sVmake
p2974
F0.13716907124160554
sVpotentially
p2975
F0.2193087509049554
sV80s
p2976
F0.8557052343921754
sVgrows
p2977
F1.6501934472868347
sVmeets
p2978
F1.614041982426912
sVsacramento
p2979
F0.23061098370904776
sVkip
p2980
F0.31809274303193547
sVoverc
p2981
F1.003381684197693
sVdelight
p2982
F0.3951044493883807
sVrenaissance
p2983
F1.1883093749537672
sVkim
p2984
F0.2735783211953806
sVnurtured
p2985
F0.9836111010662612
sVopportunity
p2986
F0.07594390941561437
sVjeremiahs
p2987
F0.2193087509049554
sVkid
p2988
F0.21860804958648083
sVpracticed
p2989
F0.1963555141789025
sVprograms
p2990
F0.21279506169432733
sVsettled
p2991
F1.2740284901281183
sVyoure
p2992
F0.14969019565616562
sVromy
p2993
F0.24741932980010348
sVmaterials
p2994
F1.0545642341780397
sVclaims
p2995
F0.1848740319442988
sV800
p2996
F0.21279506169432733
sVleft
p2997
F0.03592452122495744
sVconsciousness
p2998
F0.8904502982864876
sVyen
p2999
F0.7669888967898393
sVassigned
p3000
F0.8642622867360972
sVfighters
p3001
F0.017956405989633446
sVpsych
p3002
F0.17580460327901115
sVhuman
p3003
F0.12665431429900373
sVfacts
p3004
F0.2654527714775566
sVpeacekeeping
p3005
F0.2681341126035925
sVyet
p3006
F0.07092640448049584
sVimpending
p3007
F0.21279506169432733
sVnicolas
p3008
F0.20236598633916195
sVagile
p3009
F1.2489250957044586
sVcharacter
p3010
F0.11072589361943047
sVjules
p3011
F0.751876185462052
sVpotential
p3012
F0.17580460327901115
sVmegastar
p3013
F0.7669888967898393
sVsave
p3014
F0.044989420189791525
sVmcdormand
p3015
F0.23529332079282497
sVlillete
p3016
F0.17404655724622103
sVflamingoes
p3017
F0.2819525952261938
sVwanting
p3018
F0.17404655724622103
sVtriggerhappy
p3019
F0.29058320705905477
sVdepicts
p3020
F0.5689611905201133
sVdreams
p3021
F0.35689670810598656
sVnude
p3022
F0.1963555141789025
sVperforming
p3023
F0.2329403875848967
sVdisillusioned
p3024
F1.0973837708882472
sVzombies
p3025
F0.2400707282857106
sVnotorious
p3026
F0.5789192053988675
sVdean
p3027
F0.2848006012385796
sVdeal
p3028
F0.3412772975051935
sVdead
p3029
F0.023792165238237246
sVstatistic
p3030
F0.14671136076260793
sVoutspoken
p3031
F0.22830487387195728
sVpopular
p3032
F0.03701121327378949
sVkeeper
p3033
F0.17404655724622103
sVsuper
p3034
F0.030923454547720365
sVwarhammer
p3035
F0.29058320705905477
sVmccann
p3036
F0.4172568807250437
sVmarshal
p3037
F0.9546832440871756
sVautomatically
p3038
F0.19244803944674235
sVfarrell
p3039
F0.15740458659047601
sVintellectual
p3040
F0.14671136076260793
sVdown
p3041
F0.008383966926155676
sVcontrasts
p3042
F0.1963555141789025
sVoverkill
p3043
F0.17580460327901115
sVnarration
p3044
F0.1606005372823957
sVweathered
p3045
F0.2735783211953806
sVamazingly
p3046
F0.2400707282857106
sVinitial
p3047
F0.798131721624983
sVconlon
p3048
F0.7225382357137485
sVeditor
p3049
F0.2964832232007497
sVfactions
p3050
F0.2654527714775566
sVform
p3051
F0.562146105031825
sVbatman
p3052
F0.040695763930515244
sVford
p3053
F0.46319838629208854
sVpenned
p3054
F1.539165222043838
sVberk
p3055
F0.4008152947695229
sVbuilds
p3056
F0.3117626974456
sVcosmos
p3057
F0.10636285161450937
sVstages
p3058
F0.14671136076260793
sVtemper
p3059
F0.5634125150659849
sVclassic
p3060
F0.00044158812734671924
sVcovert
p3061
F0.2193087509049554
sVsticky
p3062
F0.2329403875848967
sVship
p3063
F1.400020624295297
sVadelaide
p3064
F0.2935183909687422
sVdigital
p3065
F1.3200703465724646
sVgarland
p3066
F0.8904502982864876
sVdelivered
p3067
F0.2400707282857106
sVhandicap
p3068
F0.8223159109219417
sVdies
p3069
F1.3257591556815653
sVjourney
p3070
F2.1782048384979835
sVexported
p3071
F0.17404655724622103
sVauthorities
p3072
F0.3761727089841266
sVfusco
p3073
F0.7297636180708861
sVshatters
p3074
F1.003381684197693
sVweekend
p3075
F0.35021460668559173
sVrusso
p3076
F0.18118600893024847
sVdied
p3077
F1.4394165468806575
sVwriterdirector
p3078
F1.1424557772952508
sVjones
p3079
F0.8503309694087307
sVkurosawas
p3080
F0.7297636180708861
sVgrownup
p3081
F0.22830487387195728
sVagainstallodds
p3082
F1.4213932591857472
sVwiig
p3083
F0.2193087509049554
sVskip
p3084
F0.3245513141842011
sVthemes
p3085
F0.9546832440871756
sVmanages
p3086
F0.4401007676846127
sV21st
p3087
F0.3624901679789267
sVjija
p3088
F0.2400707282857106
sVfather
p3089
F17.52836633944126
sVfinally
p3090
F3.569473472972475
sVmarks
p3091
F1.1533613720201836
sVsuffered
p3092
F0.4099566150632022
sVtimon
p3093
F0.9738723772933279
sVstring
p3094
F0.2791330692739319
sVlynch
p3095
F0.22830487387195728
sVdid
p3096
F0.5622023252643513
sVdie
p3097
F0.2555416824557493
sVaccidentally
p3098
F0.23061098370904776
sVtravels
p3099
F0.8944216817172375
sVdip
p3100
F0.2708425379834268
sVround
p3101
F0.9546832440871756
sVunexpected
p3102
F0.21711566339590585
sVcorner
p3103
F0.5268994421721215
sVrun
p3104
F0.01584402577371491
sVtargets
p3105
F1.0235496560500665
sVreunite
p3106
F0.3538582748322995
sVsuspect
p3107
F1.547576736407125
sVinternational
p3108
F0.5113009615060444
sVfilled
p3109
F0.09240228197427316
sVguardian
p3110
F0.2400707282857106
sVbox
p3111
F0.8223159109219417
sVboy
p3112
F0.15787748043290054
sVhbo
p3113
F0.23061098370904776
sVcanadian
p3114
F0.2702607779611495
sVboo
p3115
F0.18118600893024847
sVraccoon
p3116
F0.30555861976643256
sVpriceless
p3117
F1.1883093749537672
sVbob
p3118
F0.12541293608766502
sVbreathtaking
p3119
F2.9979009876780878
sVmerely
p3120
F1.0757609752850184
sVfredersen
p3121
F0.9546832440871756
sVwealth
p3122
F1.1533613720201836
sVsake
p3123
F0.2964832232007497
sVvisit
p3124
F0.25756855871190165
sVfrance
p3125
F1.1765439355977894
sVperu
p3126
F0.18673214022713464
sVsharing
p3127
F0.23529332079282497
sVacceptable
p3128
F1.0235496560500665
sVdowntown
p3129
F0.2735783211953806
sVtandem
p3130
F1.003381684197693
sVeffort
p3131
F0.2681341126035925
sVcapturing
p3132
F0.8388444607314728
sVwalled
p3133
F1.4073200585997496
sVtokyo
p3134
F0.6739244576664531
sVdrago
p3135
F0.33448587928484014
sVsoul
p3136
F3.51527467774699
sV9th
p3137
F0.20441008721127468
sVgrowing
p3138
F1.1552079346282873
sVmaking
p3139
F0.21256103326928483
sVcrazy
p3140
F0.7669888967898393
sVwinston
p3141
F1.0651098765198201
sVboxoffice
p3142
F0.7669888967898393
sVsample
p3143
F0.2848006012385796
sVcouncil
p3144
F0.6874703392655489
sVspanning
p3145
F0.5884920471854082
sVdennis
p3146
F0.43591767525798714
sVpink
p3147
F0.10661309299802645
sVbehindthescenes
p3148
F0.11760831462020505
sVsteve
p3149
F0.29753761229358483
sVsunday
p3150
F0.28767737498846424
sVsword
p3151
F0.6545296573300571
sVirreverent
p3152
F0.8223159109219417
sVstaying
p3153
F1.2365595006974839
sVmay
p3154
F0.014536889681812399
sVmax
p3155
F0.3637792988621207
sVmankind
p3156
F0.02501831143316282
sVdestructive
p3157
F0.2193087509049554
sVguys
p3158
F0.21773532037307064
sVman
p3159
F1.8245832756774766e-07
sVjohnson
p3160
F0.2510833586987249
sVtooey
p3161
F0.11072589361943047
sVborrowing
p3162
F0.9738723772933279
sVtale
p3163
F0.08334993698187797
sVprovide
p3164
F0.2848006012385796
sVafrican
p3165
F2.2930970003568794
sVbungle
p3166
F1.0651098765198201
sVshield
p3167
F0.2681341126035925
sVdistributors
p3168
F0.1606005372823957
sVpitch
p3169
F0.23529332079282497
sVpeterson
p3170
F0.29058320705905477
sVgroup
p3171
F0.17932016264273928
sVmaid
p3172
F0.641215997508617
sVjasons
p3173
F2.4085022812178156
sVhitlers
p3174
F0.2964832232007497
sVmail
p3175
F0.2654527714775566
sVtexas
p3176
F0.17058303075702122
sVviews
p3177
F0.2654527714775566
sVkiller
p3178
F0.07975398013458106
sVaspirations
p3179
F1.6501934472868347
sVkilled
p3180
F0.14969019565616562
sVpeasant
p3181
F0.18118600893024847
sVrock
p3182
F0.025383729699564896
sVshowcasing
p3183
F0.6530586565151938
sVlatin
p3184
F1.0235496560500665
sVpreaching
p3185
F0.1963555141789025
sVgirl
p3186
F1.119105012844899
sVrelive
p3187
F0.14671136076260793
sVliving
p3188
F0.5426479087302415
sVafghans
p3189
F0.21279506169432733
sVjackson
p3190
F0.6541044390585402
sVstupid
p3191
F1.4644628963323345
sVafter
p3192
F9.508222903702569e-07
sVhefty
p3193
F0.24741932980010348
sVromans
p3194
F0.06698983742898088
sVcalifornia
p3195
F0.15522395489719779
sVuncover
p3196
F1.038395805483539
sVcowells
p3197
F0.2848006012385796
sVorb
p3198
F0.18673214022713464
sVadvance
p3199
F0.4214715966919633
sVlanguage
p3200
F0.7153843917957906
sVheadphones
p3201
F0.168877200449451
sVthing
p3202
F0.9591329216530563
sVthink
p3203
F0.15740458659047601
sVremorseful
p3204
F1.1765439355977894
sVfirst
p3205
F0.04703200098028284
sVexotic
p3206
F0.0605844081785242
sVeone
p3207
F0.2708425379834268
sVdwelling
p3208
F0.3117626974456
sVlone
p3209
F0.31615818696506126
sVrachel
p3210
F0.9546832440871756
sVamericans
p3211
F0.20236598633916195
sVfast
p3212
F0.14671136076260793
sVcarry
p3213
F0.1606005372823957
sVlittle
p3214
F0.0014621574176946154
sVpersonalities
p3215
F0.17404655724622103
sVanyone
p3216
F0.0537011028713188
sVpsychotic
p3217
F0.31809274303193547
sValfred
p3218
F0.2601702613251532
sVspeaking
p3219
F0.19244803944674235
sVeyes
p3220
F1.7505750041328325
sVpaynes
p3221
F0.3245513141842011
sVkynes
p3222
F0.9174318327748666
sVbutt
p3223
F0.07711097589692233
sV10
p3224
F0.4788591983326276
sV13
p3225
F0.35279823785560266
sV12
p3226
F0.6065058782760868
sV15
p3227
F0.2654527714775566
sV17
p3228
F0.2193087509049554
sV18
p3229
F0.2791330692739319
sVventure
p3230
F0.17404655724622103
sVwere
p3231
F0.04443941230365802
sV20s
p3232
F0.2708425379834268
sVdugan
p3233
F0.22830487387195728
sVpreston
p3234
F1.1533613720201836
sVmarijuana
p3235
F2.095307796800418
sVvoices
p3236
F0.2848006012385796
sVcomedian
p3237
F1.003381684197693
sVvoiced
p3238
F2.696510622834086
sVnazi
p3239
F0.14671136076260793
sVkevin
p3240
F0.35005697934218216
sVwarsaw
p3241
F2.224211448015029
sVsquad
p3242
F0.29058320705905477
sVperformance
p3243
F4.35805015605276
sVjungle
p3244
F0.10148943440652405
sVnorman
p3245
F0.40147715212178176
sVtrace
p3246
F0.31809274303193547
sVnormal
p3247
F0.641215997508617
sVarguing
p3248
F0.23061098370904776
sVinvertebrate
p3249
F0.3117626974456
sVnolan
p3250
F1.0235496560500665
sVpair
p3251
F2.3933756593949567
sVcoveted
p3252
F0.30555861976643256
sVhardships
p3253
F0.14671136076260793
sVespecially
p3254
F0.11999623979206718
sVsurprising
p3255
F0.28767737498846424
sVlenny
p3256
F0.31491181560161613
sVshop
p3257
F0.31491181560161613
sVshot
p3258
F0.09056347656298513
sVshow
p3259
F0.0840320629111772
sVcontemporary
p3260
F0.641215997508617
sVtherapist
p3261
F0.0963129624158939
sVhickenlooper
p3262
F1.1533613720201836
sVinterpretation
p3263
F0.17404655724622103
sVsnider
p3264
F1.1533613720201836
sVfeng
p3265
F1.0865185850378685
sVstormy
p3266
F0.2193087509049554
sVtreasure
p3267
F2.4569131770702937
sVenough
p3268
F0.34472454293453886
sVblack
p3269
F0.03450895174985443
sVrotwang
p3270
F0.9546832440871756
sVmoreau
p3271
F0.17058303075702122
sVget
p3272
F0.29706171093543127
sVhostage
p3273
F0.9358722126136414
sVmohseni
p3274
F0.21279506169432733
sVhailed
p3275
F0.23061098370904776
sVnearly
p3276
F0.35643313948336597
sVmiles
p3277
F0.47208358611352647
sVfinishing
p3278
F0.15740458659047601
sVyukari
p3279
F0.168877200449451
sVhonesty
p3280
F0.3869708828432009
sVseat
p3281
F0.44525810889822715
sVrelative
p3282
F0.8557052343921754
sVsean
p3283
F1.130635596529932
sVentrepeneur
p3284
F0.20236598633916195
sVcamping
p3285
F0.2848006012385796
sVboundaries
p3286
F0.6503864641494685
sVbehind
p3287
F0.004241421381969975
sVacross
p3288
F3.1077940724359854
sVaugust
p3289
F0.3597815263880939
sVjr
p3290
F2.0135496083667963
sVkilling
p3291
F1.210316651935633
sVjj
p3292
F0.14671136076260793
sVmitsuru
p3293
F0.168877200449451
sVchildbirth
p3294
F0.9174318327748666
sVdates
p3295
F0.17404655724622103
sVupperclass
p3296
F0.7669888967898393
sVtrader
p3297
F1.0757609752850184
sVsketchy
p3298
F0.7669888967898393
sVremake
p3299
F0.2780743235634604
sVguardians
p3300
F0.15740458659047601
sVamong
p3301
F1.56430350866073
sVaccusation
p3302
F0.8642622867360972
sVspans
p3303
F0.3928390704036094
sVunassuming
p3304
F0.31809274303193547
sVfreak
p3305
F0.2524429443935348
sVmastersfrom
p3306
F0.17580460327901115
sVcomprehend
p3307
F0.2524429443935348
sVtub
p3308
F0.35527661363614604
sVspecializing
p3309
F0.29058320705905477
sVarts
p3310
F7.179941309781604
sVunderworld
p3311
F0.20171941791516085
sVbarry
p3312
F1.1533613720201836
sVucla
p3313
F0.22830487387195728
sVmark
p3314
F0.17032727846516463
sVmary
p3315
F0.7688702894310473
sVhowsam
p3316
F1.1533613720201836
sVtestcharging
p3317
F0.8904502982864876
sVunturned
p3318
F0.22830487387195728
sVdramatic
p3319
F0.34522472357709166
sVwake
p3320
F0.7535697706713693
sVodyssey
p3321
F1.003381684197693
sVthose
p3322
F0.11464710907811948
sVsound
p3323
F0.2601702613251532
sVongoing
p3324
F0.179374148840946
sVpromising
p3325
F0.15899453190957175
sVinvestigating
p3326
F0.31809274303193547
sVthen
p3327
F0.19379018241162102
sVmandeville
p3328
F1.044123004136673
sVmiddle
p3329
F0.2687649555180832
sVsudden
p3330
F1.0235496560500665
sVdangerously
p3331
F0.33114102049199173
sVbeetlejuice
p3332
F0.29058320705905477
sVdifferent
p3333
F12.308734840534028
sVpay
p3334
F0.17058303075702122
sVtour
p3335
F0.3652190800270468
sVsame
p3336
F0.8854327471680132
sVspeech
p3337
F0.11070922979155881
sVstruggling
p3338
F0.057747824146027894
sVpal
p3339
F0.6382092034793694
sVextended
p3340
F0.31491181560161613
sVassist
p3341
F0.24680152316484114
sVincarceration
p3342
F0.04304844675363223
sVcompanion
p3343
F0.19244803944674235
sVrunning
p3344
F0.7753949688705827
sVdriven
p3345
F0.9546832440871756
sVclimbing
p3346
F0.14671136076260793
sVbreak
p3347
F0.29058320705905477
sVconor
p3348
F0.04304844675363223
sVlargely
p3349
F0.1963555141789025
sVfathomeventscom
p3350
F0.25756855871190165
sVbumping
p3351
F0.29058320705905477
sVuncomplicated
p3352
F0.2193087509049554
sVamazed
p3353
F0.2654527714775566
sVgangs
p3354
F0.1274548803481546
sVmoney
p3355
F0.0742319185700054
sVsights
p3356
F0.09240228197427316
sVunofficial
p3357
F0.19244803944674235
sVwifes
p3358
F1.2243163373242414
sVsupersecret
p3359
F0.15899453190957175
sVmeteorite
p3360
F0.24741932980010348
sV4
p3361
F0.3911925241469115
sVheavies
p3362
F0.06973778438761251
sVcareers
p3363
F0.9452309347397778
sVchungsok
p3364
F0.04304844675363223
sVjake
p3365
F0.24128617253620302
sVmom
p3366
F1.1533613720201836
sVmob
p3367
F2.3145233518923454
sVkinemathek
p3368
F0.1606005372823957
sVarsonist
p3369
F0.9546832440871756
sVtwin
p3370
F0.2400707282857106
sVserves
p3371
F2.7961963774317056
sVfacing
p3372
F0.25533732064714704
sVaudience
p3373
F0.05878499067121386
sVanarchic
p3374
F0.7225382357137485
sVclimactic
p3375
F0.8904502982864876
sVpronounce
p3376
F0.22830487387195728
sVeverybodys
p3377
F0.14671136076260793
sVslavery
p3378
F0.20856043996661022
sVimages
p3379
F1.003381684197693
sVgross
p3380
F0.8642622867360972
sVellis
p3381
F1.0235496560500665
sVstaffa
p3382
F1.1883093749537672
sVpioneer
p3383
F0.8642622867360972
sVmcclane
p3384
F0.3245513141842011
sVvistas
p3385
F1.6833623355773
sVunusual
p3386
F0.24741932980010348
sVbroken
p3387
F0.8223159109219417
sVdespicable
p3388
F0.17580460327901115
sVrefers
p3389
F1.0757609752850184
sVuntamed
p3390
F0.2329403875848967
sVisland
p3391
F2.0822519641084587
sVviolence
p3392
F0.9210628834615451
sVmeaning
p3393
F0.04052925808109067
sVpractical
p3394
F0.17058303075702122
sVroam
p3395
F0.15272951296415227
sVmixed
p3396
F1.8410685950124424
sVroad
p3397
F0.11096420382337177
sVlands
p3398
F2.1374234835161063
sVskilled
p3399
F1.2489250957044586
sVyyz
p3400
F0.2329403875848967
sVdreaming
p3401
F0.308645070471144
sVjerusalem
p3402
F0.9174318327748666
sVstage
p3403
F0.09523072988251371
sVhiccup
p3404
F0.2681341126035925
sVgore
p3405
F0.03089718461601294
sVromantic
p3406
F0.17230609167375882
sVlorelei
p3407
F1.0973837708882472
sVoscorp
p3408
F0.14671136076260793
sVstrawberry
p3409
F0.3412772975051935
sVarranges
p3410
F1.0651098765198201
sVdvd
p3411
F0.2654527714775566
sVelectrifying
p3412
F0.7444318667941109
sVdeep
p3413
F0.10064045142842457
sVgeneral
p3414
F0.007565648350337428
sVimagination
p3415
F0.31491181560161613
sVgirlfriend
p3416
F0.116432231474003
sVlifetime
p3417
F0.4899518315701295
sVfilm
p3418
F1.992292374902713e-05
sVagain
p3419
F0.009988926278138476
sVmohave
p3420
F0.9174318327748666
sVfield
p3421
F0.2510833586987249
sVastronaut
p3422
F0.2654527714775566
sVobsessed
p3423
F0.43309325844504876
sVstudents
p3424
F0.31809274303193547
sVimportant
p3425
F0.05646862748665526
sVchris
p3426
F0.22702987615309742
sVhavana
p3427
F0.17580460327901115
sVresembles
p3428
F0.5634125150659849
sVupperclassmen
p3429
F0.168877200449451
sVstarting
p3430
F0.13268312487385264
sVmotel
p3431
F0.40486393411062915
sVadventurefilled
p3432
F0.3928390704036094
sVfounder
p3433
F0.6109802418862703
sVdollar
p3434
F0.2193087509049554
sVsunk
p3435
F0.2329403875848967
sVlooper
p3436
F0.14671136076260793
sVchildren
p3437
F1.0980971548715743
sVemily
p3438
F4.121936018167158
sVtrixie
p3439
F0.33114102049199173
sVhideous
p3440
F1.1883093749537672
sVpremium
p3441
F0.6498663370499419
sVreturning
p3442
F0.22830487387195728
sVcarefree
p3443
F0.9738723772933279
sVscout
p3444
F0.17058303075702122
sVfall
p3445
F0.050052937130744816
sVoconnell
p3446
F0.6348673242659575
sValien
p3447
F0.008764176554390468
sVbroderick
p3448
F0.9738723772933279
sVcelebrity
p3449
F0.17580460327901115
sVbiological
p3450
F0.751876185462052
sVeconomically
p3451
F1.4213932591857472
sV20th
p3452
F0.0716894061686053
sVneighborhood
p3453
F2.5313601032487005
sVhouellebecq
p3454
F1.0651098765198201
sVzero
p3455
F1.1883093749537672
sVperspective
p3456
F0.2735783211953806
sVlawyer
p3457
F0.14671136076260793
sVfurther
p3458
F0.9546832440871756
sVcreatures
p3459
F1.0341984253103593
sVabc
p3460
F0.40486393411062915
sVcentering
p3461
F1.1765439355977894
sVskeptic
p3462
F0.2964832232007497
sVlargescreen
p3463
F0.9738723772933279
sVpublic
p3464
F0.16404990978897122
sVvideogame
p3465
F0.2193087509049554
sV5000
p3466
F1.0235496560500665
sVcomponent
p3467
F0.8904502982864876
sVjonah
p3468
F0.2848006012385796
sVranger
p3469
F0.17230609167375882
sVdisastrous
p3470
F0.9642300765280474
sVtable
p3471
F1.3126328274074903
sVsearch
p3472
F0.2100885084705755
sVjackie
p3473
F1.7171979185224038
sVagatha
p3474
F0.061814517068181
sVuncharted
p3475
F0.33114102049199173
sVpublished
p3476
F0.24912001405889736
sVwhimsical
p3477
F0.15899453190957175
sVdetourroad
p3478
F0.23061098370904776
sVmodernday
p3479
F0.8642622867360972
sVcowardly
p3480
F0.14671136076260793
sVafrica
p3481
F0.45723841996720355
sVsadist
p3482
F0.25756855871190165
sVarmed
p3483
F0.14671136076260793
sVmarauders
p3484
F0.2524429443935348
sVhutcherson
p3485
F1.5088375865541006
sVtwo
p3486
F1.2865092897865893
sVfreston
p3487
F0.21279506169432733
sVstaggering
p3488
F0.14671136076260793
sVlanded
p3489
F0.13268312487385264
sVtown
p3490
F0.002086263433206698
sVhour
p3491
F0.025271021649659414
sVcreated
p3492
F0.1313562936251141
sVohara
p3493
F1.1883093749537672
sVroosevelt
p3494
F0.2654527714775566
sVremain
p3495
F1.6016615021113585
sVdel
p3496
F1.1533613720201836
sVdea
p3497
F0.20236598633916195
sVspall
p3498
F1.0651098765198201
sVcollision
p3499
F0.2120091355291559
sVnumbers
p3500
F0.2400707282857106
sVsharp
p3501
F1.0235496560500665
sVrobinson
p3502
F0.35527661363614604
sVneeds
p3503
F0.02308551413849636
sVensemble
p3504
F0.34612352072894864
sVuprising
p3505
F7.488307555896692
sVadvice
p3506
F2.2021895524901276
sVrosanne
p3507
F0.18118600893024847
sVblood
p3508
F0.0763398661379531
sVcoming
p3509
F0.2825594287162998
sVcrippling
p3510
F0.19244803944674235
sVdragon
p3511
F0.08190398485404372
sVcoal
p3512
F1.2365595006974839
sVplaying
p3513
F1.0651098765198201
sVwedding8203
p3514
F0.17404655724622103
sVnarratives
p3515
F1.0973837708882472
sVthrough
p3516
F1.061758299136624
sVsuffer
p3517
F0.40486393411062915
sVarrogant
p3518
F0.5634125150659849
sVariah
p3519
F0.17058303075702122
sV25
p3520
F0.49676037819381075
sVthrilling
p3521
F0.10327085895812961
sV22
p3522
F0.2601702613251532
sV28
p3523
F0.5123248087375031
sV29
p3524
F0.31491181560161613
sVlate
p3525
F0.6678192606163216
sVpena
p3526
F0.1606005372823957
sVpenn
p3527
F0.8557052343921754
sVreteam
p3528
F1.0235496560500665
sVgood
p3529
F0.6479518527280734
sVblahyis
p3530
F0.1963555141789025
sVseeking
p3531
F0.6246336969390898
sVfrigid
p3532
F0.17580460327901115
sVcompound
p3533
F0.6541044390585402
sVwally
p3534
F0.18118600893024847
sVstepped
p3535
F0.19244803944674235
sVmystery
p3536
F0.28767737498846424
sVevade
p3537
F0.13402335845843702
sVhabits
p3538
F1.6338548983037968
sVinordinately
p3539
F0.25756855871190165
sVeveryone
p3540
F0.3446554865788251
sVmental
p3541
F0.9546832440871756
sVhouse
p3542
F0.041147961703102844
sVhard
p3543
F0.05878499067121386
sVrachelle
p3544
F1.1533613720201836
sVharb
p3545
F1.0973837708882472
sVobtains
p3546
F0.14671136076260793
sVfist
p3547
F0.7669888967898393
sVperry
p3548
F0.9546832440871756
sVacting
p3549
F0.05210612641493776
sVflowed
p3550
F1.0235496560500665
sVprint
p3551
F0.03325042017309953
sVbully
p3552
F0.42322435552327375
sVlawrence
p3553
F0.5343281082532575
sVcommits
p3554
F0.30555861976643256
sVextraordinary
p3555
F1.539165222043838
sVmembers
p3556
F0.15936860059081487
sVfirstever
p3557
F0.17580460327901115
sVbeginning
p3558
F1.113078203501037
sVcomputers
p3559
F0.8557052343921754
sVfincher
p3560
F1.0973837708882472
sVdons
p3561
F0.6064452276882586
sVdont
p3562
F0.004670200136499578
sVbullies
p3563
F0.31491181560161613
sVdone
p3564
F0.6382092034793694
sVembraced
p3565
F0.9738723772933279
sVwages
p3566
F0.31491181560161613
sVbullied
p3567
F0.6874703392655489
sVcarter
p3568
F3.4804699779673167
sVtwenty
p3569
F0.21830219717083318
sVconstruct
p3570
F0.1606005372823957
sVpaint
p3571
F0.7225382357137485
sVmortdecai
p3572
F0.14671136076260793
sVstatement
p3573
F0.2329403875848967
sVpart
p3574
F4.075616656179924
sVgruesome
p3575
F0.07333177081605186
sVbelieve
p3576
F0.1671884284449565
sVcarnage
p3577
F1.5545568742642766
sVyipeekiyay
p3578
F0.4214715966919633
sVunbought
p3579
F0.22830487387195728
sVbohemian
p3580
F0.9836111010662612
sVtreated
p3581
F0.2601702613251532
sVnominee
p3582
F0.7153843917957906
sVconcludes
p3583
F0.1606005372823957
sVages
p3584
F0.17580460327901115
sVawoken
p3585
F0.31491181560161613
sVbaruchel
p3586
F0.22830487387195728
sVaged
p3587
F0.2735783211953806
sVmountain
p3588
F0.2633506398137364
sVbuilt
p3589
F0.5141982193098379
sVescapades
p3590
F1.1533613720201836
sVabilene
p3591
F0.9174318327748666
sVchilai
p3592
F0.798131721624983
sVonset
p3593
F0.2964832232007497
sVmajority
p3594
F0.798131721624983
sVbuild
p3595
F0.18021019276539946
sVcommentary
p3596
F0.2329403875848967
sVrushs
p3597
F0.2329403875848967
sVgodfather
p3598
F0.6026967122538808
sVharbingers
p3599
F0.2735783211953806
sVsonneborn
p3600
F0.31809274303193547
sVdepths
p3601
F0.9546832440871756
sVmost
p3602
F0.0005162966091486981
sVcharm
p3603
F0.14671136076260793
sVsignificant
p3604
F0.7902294273514683
sVservices
p3605
F0.24912001405889736
sVevoker
p3606
F0.168877200449451
sVextremely
p3607
F0.15740458659047601
sVlovecraft
p3608
F0.2329403875848967
sVka
p3609
F0.7824053736153151
sVks
p3610
F0.2654527714775566
sVcameramen
p3611
F0.18673214022713464
sVorganism
p3612
F1.6338548983037968
sVdodging
p3613
F1.2489250957044586
sVthomas
p3614
F0.7177849487918544
sVcarefully
p3615
F0.8729049096034581
sVjared
p3616
F0.2193087509049554
sVheadlines
p3617
F1.1533613720201836
sVfine
p3618
F0.2193087509049554
sVfind
p3619
F5.0488992584317996e-05
sVgiant
p3620
F0.8904502982864876
sVtownspeople
p3621
F0.24741932980010348
sVruin
p3622
F0.7225382357137485
sVexpress
p3623
F1.6833623355773
sVcourage
p3624
F1.6263560513945183
sVtheft
p3625
F0.37409069181236915
sVcontagious
p3626
F0.24741932980010348
sVdoubled
p3627
F0.23061098370904776
sVredefined
p3628
F0.28767737498846424
sVcommon
p3629
F0.42360544796405797
sVdoubles
p3630
F0.9836111010662612
sVblahyi
p3631
F0.011892205207551462
sVscruffy
p3632
F0.3117626974456
sVlion
p3633
F1.9791117039001935
sVarouse
p3634
F0.6541044390585402
sVsahid
p3635
F1.2365595006974839
sVfeared
p3636
F0.4856105531445222
sVrepairs
p3637
F0.3117626974456
sVmalkovich
p3638
F0.2193087509049554
sVbrendans
p3639
F0.7225382357137485
sVfans
p3640
F0.04462201194166492
sVrosie
p3641
F0.2935183909687422
sViron
p3642
F0.15831228918279297
sVrevengedriven
p3643
F0.30555861976643256
sVaircraft
p3644
F0.798131721624983
sVpremise
p3645
F1.003381684197693
sVrestaurant
p3646
F0.28767737498846424
sVmackenzies
p3647
F0.5634125150659849
sVforeign
p3648
F0.304460531574688
sV700pm
p3649
F0.27634173858119254
sVseminal
p3650
F0.7297636180708861
sVpoint
p3651
F0.5634125150659849
sVsimple
p3652
F0.8043010988971281
sVfashion
p3653
F0.3412772975051935
sVsimply
p3654
F0.4257288855474377
sVunsuccessful
p3655
F0.05158506515078838
sVthroughout
p3656
F0.09680543789337342
sVexpensive
p3657
F0.7669888967898393
sVplatinum
p3658
F0.2329403875848967
sVweaving
p3659
F0.2376700210028535
sVperspectives
p3660
F1.0973837708882472
sVcreate
p3661
F0.17058303075702122
sVtrilogy
p3662
F0.039844064542832854
sVrivals
p3663
F0.4549351474555145
sVsecret
p3664
F0.032569177599963674
sVexcon
p3665
F0.8223159109219417
sVslips
p3666
F0.2654527714775566
sVgas
p3667
F0.3681158829066661
sV35mm
p3668
F0.1606005372823957
sVunderstand
p3669
F0.14671136076260793
sVhitchcock
p3670
F0.2601702613251532
sVpolitician
p3671
F0.06119637189749919
sVbill
p3672
F0.1952296210887451
sVschultzs
p3673
F0.6541044390585402
sVfun
p3674
F0.04618608217792902
sVakihiko
p3675
F0.168877200449451
sVcentury
p3676
F5.042133817754873
sVembarks
p3677
F1.1301267111720892
sVmystic
p3678
F0.9546832440871756
sVitself
p3679
F0.1606005372823957
sVmonroe
p3680
F1.7517135966847042
sVitaly
p3681
F0.021089015332543867
sVruth
p3682
F2.768511264783867
sVdevelopment
p3683
F0.17404655724622103
sVkeys
p3684
F0.8993548012693525
sVassignment
p3685
F0.31491181560161613
sVmoment
p3686
F0.5268994421721215
sVpurpose
p3687
F0.23061098370904776
sVinfused
p3688
F0.17230609167375882
sVtask
p3689
F2.3610452712653816
sVdystopian
p3690
F0.9546832440871756
sVnewsreels
p3691
F1.0545642341780397
sVlandmark
p3692
F0.18301617063661463
sVentry
p3693
F0.14671136076260793
sVspend
p3694
F0.8904502982864876
sValluring
p3695
F0.9546832440871756
sVprofoundly
p3696
F0.7225382357137485
sVshape
p3697
F0.14671136076260793
sValternative
p3698
F0.37843664344789313
sVrundown
p3699
F0.7669888967898393
sVcut
p3700
F0.05997856409673896
sVdragout
p3701
F0.7669888967898393
sVsparta
p3702
F0.7225382357137485
sValternate
p3703
F0.14671136076260793
sVdormont
p3704
F0.17058303075702122
sVsnag
p3705
F0.23529332079282497
sVsource
p3706
F0.17404655724622103
sVanticrime
p3707
F1.1083576085971296
sVmod
p3708
F0.17580460327901115
sVsinise
p3709
F0.8557052343921754
sVbik
p3710
F0.14671136076260793
sVadversaries
p3711
F0.20856043996661022
sVbig
p3712
F0.0009556139767515493
sVbid
p3713
F0.7225382357137485
sVdisplace
p3714
F0.751876185462052
sVmatters
p3715
F1.5701024430069193
sVbiz
p3716
F0.2193087509049554
sVbit
p3717
F0.7153843917957906
sVfunfilled
p3718
F0.09240228197427316
sVhardy
p3719
F0.42415652072018634
sVfollows
p3720
F0.07644679666586562
sVhumorous
p3721
F0.09913712829445723
sVtriceratops
p3722
F0.33114102049199173
sVback
p3723
F0.0008551268491977623
sVmartial
p3724
F0.6999918939351674
sVuptons
p3725
F0.2329403875848967
sVdeceits
p3726
F1.0973837708882472
sVmirror
p3727
F0.7669888967898393
sVpet
p3728
F0.23061098370904776
sVsaad
p3729
F0.21279506169432733
sVinvade
p3730
F0.4172568807250437
sVpatient
p3731
F0.9546832440871756
sVufo
p3732
F0.005944164529894312
sV300
p3733
F0.20856043996661022
sVcontinuing
p3734
F0.14671136076260793
sVrosamund
p3735
F1.0973837708882472
sVsubconscious
p3736
F1.0235496560500665
sVgalifianakis
p3737
F0.2193087509049554
sVannalise
p3738
F0.14671136076260793
sVdystopia
p3739
F1.1765439355977894
sVaibileen
p3740
F0.8557052343921754
sVdrama
p3741
F8.431261528926065
sVbestseller
p3742
F0.5467605208633715
sVgrammy
p3743
F0.2329403875848967
sValiens
p3744
F0.042617962286095906
sVinvading
p3745
F0.18673214022713464
sVharasses
p3746
F0.8993548012693525
sVsteven
p3747
F2.5566737042811876
sVlesson
p3748
F0.17404655724622103
sVdelusional
p3749
F0.33114102049199173
sVoverpower
p3750
F0.2654527714775566
sVlogue
p3751
F0.5178362215433592
sVopponent
p3752
F0.8729049096034581
sVspiliotopoulos
p3753
F1.044123004136673
sVboseman
p3754
F2.095307796800418
sVinvite
p3755
F0.2791330692739319
sVselfesteemed
p3756
F0.14671136076260793
sVhoped
p3757
F1.1083576085971296
sVboys
p3758
F0.17058303075702122
sVhopes
p3759
F0.741385792553453
sVdirected
p3760
F1.133408621936504
sVlegacy
p3761
F0.17058303075702122
sVplanet
p3762
F0.14093034777023172
sVexploration
p3763
F0.31809274303193547
sVviacom
p3764
F0.21279506169432733
sVteerada
p3765
F0.2400707282857106
sVcurt
p3766
F0.14671136076260793
sVconstant
p3767
F2.4085022812178156
sVexpedition
p3768
F1.6338548983037968
sVscarlet
p3769
F0.17580460327901115
sVsingle
p3770
F2.3610452712653816
sVbrethren
p3771
F0.17580460327901115
sVbrokaw
p3772
F0.18118600893024847
sVdakar
p3773
F0.7824053736153151
sVintensifies
p3774
F0.14671136076260793
sVlend
p3775
F0.3412772975051935
sVrestoration
p3776
F0.1606005372823957
sVprepares
p3777
F0.2888737285827203
sVsong
p3778
F2.116260874768422
sVphenomenally
p3779
F0.31491181560161613
sVpowerhungry
p3780
F0.12120832302229008
sVmantel
p3781
F1.1883093749537672
sV2002
p3782
F0.9738723772933279
sV2003
p3783
F0.2699771838984627
sV2004
p3784
F0.09716429944139753
sVcolonial
p3785
F3.0278799975548685
sV2008
p3786
F0.20236598633916195
sV2009
p3787
F0.23061098370904776
sVafghanistans
p3788
F0.09056347656298513
sVjason
p3789
F0.0015681005183846859
sVcynthia
p3790
F0.7669888967898393
sVcompose
p3791
F0.17058303075702122
sVspecatular
p3792
F0.25756855871190165
sVbruhl
p3793
F0.8729049096034581
sVhelps
p3794
F0.3471635024836965
sVfatal
p3795
F0.2400707282857106
sVexpertize
p3796
F1.0545642341780397
sVputting
p3797
F1.2489250957044586
sVclemens
p3798
F0.2935183909687422
sVentire
p3799
F0.0587056707295733
sVrecreation
p3800
F0.8729049096034581
sVknight
p3801
F0.03829893050242919
sVjoel
p3802
F1.6338548983037968
sVshock
p3803
F0.08273129783236739
sVchuchu
p3804
F0.7824053736153151
sVmin
p3805
F0.24741932980010348
sVsquarepants
p3806
F0.3117626974456
sVhavent
p3807
F0.7669888967898393
sVcarlo
p3808
F0.17404655724622103
sVdepression
p3809
F0.17580460327901115
sVmarked
p3810
F0.9174318327748666
sVgiving
p3811
F0.9546832440871756
sVanthem
p3812
F0.2791330692739319
sVaccess
p3813
F0.18953535868217844
sVexercise
p3814
F0.05997856409673896
sV3d
p3815
F1.1883093749537672
sVbody
p3816
F0.14500475561912268
sV50th
p3817
F0.3698501866941401
sVbeasts
p3818
F1.1883093749537672
sVsprung
p3819
F0.31809274303193547
sVbachelor
p3820
F0.2329403875848967
sVothers
p3821
F0.07445867048908167
sVsing
p3822
F0.31491181560161613
sVextreme
p3823
F0.2400707282857106
sVtalent
p3824
F0.3560412590093614
sVweinstein
p3825
F5.781332597544703
sV30
p3826
F0.20441008721127468
sVhonor
p3827
F4.979747796703317
sVnamed
p3828
F0.1337421460922667
sVcrashing
p3829
F0.2964832232007497
sVprivate
p3830
F0.13191575191319116
sVlimo
p3831
F0.17580460327901115
sVscandal
p3832
F1.1533613720201836
sVfestivals
p3833
F1.0973837708882472
sVstaple
p3834
F0.28767737498846424
sVseamless
p3835
F0.2735783211953806
sVdebbie
p3836
F0.4387605114994839
sVbutler
p3837
F0.2848006012385796
sVthemselves
p3838
F0.011468242334445473
sVupcoming
p3839
F1.822840193081626
sVmoustafa
p3840
F1.1883093749537672
sVtrail
p3841
F0.28690165498263004
sVtrain
p3842
F0.9021469661243915
sVminions
p3843
F0.02173455330011045
sVaccount
p3844
F0.14671136076260793
sVf
p3845
F0.8557052343921754
sVfeig
p3846
F0.2935183909687422
sVsmear
p3847
F1.2489250957044586
sVtarantino
p3848
F0.16551654416050693
sVreconstructed
p3849
F0.9546832440871756
sVreserves
p3850
F0.9358722126136414
sVscarface
p3851
F0.29058320705905477
sVnative
p3852
F0.43469875210890313
sVlamb
p3853
F0.18118600893024847
sVvaried
p3854
F0.1606005372823957
sVdemocracy
p3855
F0.179374148840946
sVdinners
p3856
F1.0973837708882472
sVboxing
p3857
F0.7669888967898393
sVregions
p3858
F1.0235496560500665
sVneverbeforeseen
p3859
F0.04665260826053436
sVresponsibilities
p3860
F1.0973837708882472
sVforest
p3861
F0.22152399081308627
sVcarvers
p3862
F0.7669888967898393
sVwaters
p3863
F0.09814575701151265
sVcollection
p3864
F0.2376700210028535
sVmilos
p3865
F0.7669888967898393
sVcomingofage
p3866
F1.9158233626550136
sVlines
p3867
F1.4644628963323345
sVcorrespond
p3868
F1.0757609752850184
sVfilmbuff
p3869
F0.21279506169432733
sVchief
p3870
F0.2848006012385796
sVlaurie
p3871
F0.20441008721127468
sVdespite
p3872
F4.463466057442217
sVcrossedeven
p3873
F0.8557052343921754
sVcharting
p3874
F0.5634125150659849
sVaustrian
p3875
F0.8729049096034581
sVgalaxy
p3876
F0.06435017054482768
sVbunch
p3877
F1.1765439355977894
sVtso
p3878
F0.16551654416050693
sVlc
p3879
F0.11526790915926297
sVaspiring
p3880
F0.9083483492820461
sVdr
p3881
F0.16073708581259413
sVrelativity
p3882
F0.2193087509049554
sVwinning
p3883
F0.01869298415015637
sVage
p3884
F0.7910592499886951
sVlt
p3885
F1.7517135966847042
sVwilling
p3886
F1.0973837708882472
sVcriminal
p3887
F32.011368843529354
sVdad
p3888
F1.1533613720201836
sVadangerous
p3889
F0.2193087509049554
sVgreater
p3890
F0.8247453086718266
sVpatalas
p3891
F0.1606005372823957
sVdebonair
p3892
F0.14671136076260793
sVdan
p3893
F0.34920040491865406
sVday
p3894
F0.0330333032801916
sVfebruary
p3895
F0.4214715966919633
sVthrill
p3896
F1.0973837708882472
sVestranged
p3897
F0.5634125150659849
sVidentified
p3898
F0.17404655724622103
sVmemoir
p3899
F0.9546832440871756
sVmichaels
p3900
F0.7067092941546217
sVwarner
p3901
F0.6468836681617253
sVeinstein
p3902
F0.31809274303193547
sVprogrammed
p3903
F0.9546832440871756
sVtsos
p3904
F0.28767737498846424
sVfilmmaking
p3905
F0.17230609167375882
sVhuntington
p3906
F0.2935183909687422
sVrex
p3907
F0.17580460327901115
sVretrievals
p3908
F0.2654527714775566
sVdefend
p3909
F0.24441900316599813
sVsocalled
p3910
F0.8642622867360972
sVred
p3911
F0.08027409555544825
sVharold
p3912
F0.22830487387195728
sVjessica
p3913
F0.31809274303193547
sVfrank
p3914
F0.044814309351162346
sVfourteen
p3915
F0.7225382357137485
sVanalytical
p3916
F0.14671136076260793
sVapproaches
p3917
F0.3389982689301928
sVlotsohuggin
p3918
F0.2329403875848967
sVretriever
p3919
F0.31491181560161613
sVmortal
p3920
F0.2329403875848967
sVsouth
p3921
F1.7686994268931673
sVejiofor
p3922
F0.9546832440871756
sVchiwetel
p3923
F0.9546832440871756
sVreached
p3924
F0.17058303075702122
sVancient
p3925
F0.13674457551110808
sVpakistani
p3926
F0.23061098370904776
sVexplanation
p3927
F0.2654527714775566
sVnobody
p3928
F0.2524429443935348
sVloved
p3929
F1.2365595006974839
sVlover
p3930
F2.3610452712653816
sVvisited
p3931
F0.9738723772933279
sVgambon
p3932
F1.0651098765198201
sVimaginative
p3933
F0.4257288855474377
sVsurvives
p3934
F0.2400707282857106
sVhalf
p3935
F0.4973071426137967
sVcomfortably
p3936
F0.20856043996661022
sVunlikely
p3937
F1.6335275991098328
sVhave
p3938
F0.941267209724624
sVtenyearold
p3939
F0.2964832232007497
sVmia
p3940
F0.26436658900018445
sVgravity
p3941
F0.31809274303193547
sVconcerns
p3942
F0.8729049096034581
sVintouchables
p3943
F1.3524069147107647
sVmariareplica
p3944
F0.9546832440871756
sVunless
p3945
F0.3402549487842709
sVsymbolism
p3946
F0.9174318327748666
sVgrandmaster
p3947
F0.34522472357709116
sVcomputeranimated
p3948
F0.32130580104235906
sVeight
p3949
F2.768511264783867
sVprisoner
p3950
F1.1883093749537672
sVsally
p3951
F0.8557052343921754
sVherman
p3952
F0.14671136076260793
sVenthusiastic
p3953
F0.751876185462052
sVgather
p3954
F0.22830487387195728
sVrequest
p3955
F0.641215997508617
sVoccasion
p3956
F1.0973837708882472
sVmi5
p3957
F0.14671136076260793
sVmorocco
p3958
F0.11760831462020505
sVselection
p3959
F0.3427993847089505
sVgalvanizing
p3960
F0.23061098370904776
sVhamlet
p3961
F0.9738723772933279
sVstaff
p3962
F0.21279506169432733
sVinspiring
p3963
F0.6874703392655489
sVsparks
p3964
F0.31491181560161613
sVcommunist
p3965
F0.22830487387195728
sVamplify
p3966
F0.9836111010662612
sVyanin
p3967
F0.2400707282857106
sVbear
p3968
F0.1664710258529414
sVperfection
p3969
F1.8594792809625669
sVareas
p3970
F0.20236598633916195
sVunauthorized
p3971
F0.27634173858119254
sVfixer
p3972
F0.14671136076260793
sVteams
p3973
F0.20326853297948697
sVwormholes
p3974
F0.31809274303193547
sVexcesses
p3975
F1.1533613720201836
sVnational
p3976
F0.22707528894013254
sVshowdown
p3977
F1.3257591556815653
sVenhanced
p3978
F1.5545568742642766
sVawaits
p3979
F0.24741932980010348
sVturks
p3980
F0.13268312487385264
sVattempting
p3981
F0.46204177885674674
sVicecream
p3982
F1.0757609752850184
sVturka
p3983
F0.17058303075702122
sVroutine
p3984
F1.2489250957044586
sVprogress
p3985
F0.25756855871190165
sVmonarchs
p3986
F1.0651098765198201
sV20032005
p3987
F0.17058303075702122
sVdeliver
p3988
F1.0651098765198201
sVhandpicked
p3989
F0.28767737498846424
sVspitzfire
p3990
F0.17058303075702122
sVempathy
p3991
F0.168877200449451
sVinstant
p3992
F1.1083576085971296
sVnicloux
p3993
F1.0651098765198201
sVrobberies
p3994
F0.14671136076260793
sVtaking
p3995
F0.34225131686077287
sVruffalo
p3996
F1.4356071917776048
sVequal
p3997
F1.2489250957044586
sVtrips
p3998
F1.0973837708882472
sVpassing
p3999
F0.22830487387195728
sVreborn
p4000
F0.43437290638448905
sVdenis
p4001
F1.7692307326515513
sVmanhood
p4002
F0.15427223531732553
sVmafia
p4003
F5.72409168073733
sVtremendous
p4004
F0.1963555141789025
sVcopies
p4005
F0.36359744558698154
sVdarren
p4006
F0.2964832232007497
sVteamwork
p4007
F0.21279506169432733
sVdefine
p4008
F3.5504274245244596
sVjuggles
p4009
F0.17404655724622103
sVcop
p4010
F0.774774869962662
sVperplexes
p4011
F0.2654527714775566
sVfellow
p4012
F0.0960772887252428
sVnapoleon
p4013
F0.2193087509049554
sVvolunteer
p4014
F0.5634125150659849
sVappearance
p4015
F1.0235496560500665
sVvalue
p4016
F0.17404655724622103
sVcarved
p4017
F0.29058320705905477
sValmost
p4018
F1.1419419524952312
sVhelped
p4019
F0.8642622867360972
sVarrangements
p4020
F0.2791330692739319
sVclaimed
p4021
F1.0973837708882472
sVpartner
p4022
F0.05733638885588204
sVfoxx
p4023
F0.6541044390585402
sVmahatma
p4024
F1.1765439355977894
sVamazteur
p4025
F1.0651098765198201
sVmysteryshrouded
p4026
F1.0757609752850184
sVinjured
p4027
F0.14671136076260793
sVkidnapping
p4028
F0.23529332079282497
sVselfish
p4029
F0.23529332079282497
sVsamantha
p4030
F1.0973837708882472
sVscholars
p4031
F0.27760197520545804
sVpeewee
p4032
F0.24741932980010348
sVweapon
p4033
F1.0235496560500665
sVthought
p4034
F0.5869051825447857
sV19yearold
p4035
F0.5634125150659849
sVinterpol
p4036
F0.2400707282857106
sVposition
p4037
F1.0235496560500665
sVlatest
p4038
F1.786923039978067
sVtheron
p4039
F0.2935183909687422
sVmadnessor
p4040
F0.2329403875848967
sVproximity
p4041
F1.0235496560500665
sVexecutive
p4042
F1.8047922703778476
sVcattype
p4043
F0.6739244576664531
sVscanlon
p4044
F1.1533613720201836
sVlake
p4045
F0.10424623086738063
sVadd
p4046
F0.17058303075702122
sVspirals
p4047
F0.9083483492820461
sVcitizen
p4048
F0.9546832440871756
sVghen
p4049
F0.03628739517672469
sVmatch
p4050
F1.700195958933073
sVstoryboard
p4051
F0.17058303075702122
sVdesperately
p4052
F0.1313562936251141
sVlike
p4053
F0.03355606743666904
sVsuccess
p4054
F0.5074044920046901
sVhousekeeper
p4055
F0.7225382357137485
sVstrawberryscented
p4056
F0.2329403875848967
sVkingsman
p4057
F0.15899453190957175
sVworks
p4058
F0.20696061182932718
sVitalian
p4059
F0.17404655724622103
sVclassical
p4060
F0.9738723772933279
sVhail
p4061
F0.2654527714775566
sVproper
p4062
F1.6016615021113585
sVhappens
p4063
F0.6397747047584662
sVunpredictable
p4064
F0.22520956888779098
sVhurricane
p4065
F0.9546832440871756
sVshelter
p4066
F0.2654527714775566
sVmasked
p4067
F0.3819535354284901
sVassuming
p4068
F1.1083576085971296
sVleafie
p4069
F0.2400707282857106
sVpepper
p4070
F1.1533613720201836
sVstellar
p4071
F0.2735783211953806
sVhost
p4072
F0.04759984517960857
sValthough
p4073
F0.6526341763241107
sVretribution
p4074
F0.2654527714775566
sVabout
p4075
F0.14832648714457844
sVjustin
p4076
F0.09619265644698355
sVintroduces
p4077
F0.17404655724622103
sVjennys
p4078
F0.2400707282857106
sVchildrens
p4079
F0.2848006012385796
sVdoret
p4080
F0.7153843917957906
sVdoesnt
p4081
F0.10349831633226139
sVfemale
p4082
F0.15638472392825062
sV1987
p4083
F1.4213932591857472
sVdizzying
p4084
F0.9546832440871756
sV1982
p4085
F1.6338548983037968
sVlegends
p4086
F0.2601702613251532
sV1981
p4087
F0.7842461497903859
sV1989
p4088
F0.32942347080610485
sVglimmer
p4089
F0.2471225898466812
sVbiggest
p4090
F0.22820211661949322
sVbus
p4091
F0.8557052343921754
sVbrand
p4092
F0.2964832232007497
sVsequel
p4093
F0.09814575701151265
sVbut
p4094
F2.4008986006707127e-05
sVknockdown
p4095
F0.7669888967898393
sVwise
p4096
F1.003381684197693
sVmaggies
p4097
F0.31809274303193547
sVdangerous
p4098
F0.5858200645539783
sVpeeta
p4099
F1.003381684197693
sVj
p4100
F0.03972272584527696
sVminutes
p4101
F1.5701024430069193
sVdeaths
p4102
F1.1765439355977894
sVpia
p4103
F0.2193087509049554
sVcircus
p4104
F0.1274548803481546
sVcrusade
p4105
F0.1963555141789025
sVperiods
p4106
F0.3412772975051935
sVrelates
p4107
F1.6833623355773
sVmysteriously
p4108
F0.17580460327901115
sVpit
p4109
F1.6338548983037968
sVcampus
p4110
F0.4172568807250437
sV3dtm
p4111
F1.1883093749537672
sV46
p4112
F0.25756855871190165
sVmortimer
p4113
F1.822840193081626
sVgadon
p4114
F0.17580460327901115
sVmockingjay
p4115
F2.0135496083667963
sVdetours
p4116
F0.40486393411062915
sVhusky
p4117
F0.2193087509049554
sVdinklage
p4118
F1.6016615021113585
sV4x
p4119
F0.2329403875848967
sVkardashian
p4120
F0.2735783211953806
sVlimited
p4121
F0.17058303075702122
sVassembles
p4122
F1.4073200585997496
sVjaipur
p4123
F0.17404655724622103
sVparis
p4124
F0.8729049096034581
sVcrises
p4125
F0.2708425379834268
sVpoorest
p4126
F0.308645070471144
sVunder
p4127
F0.5197294391034895
sVmerchant
p4128
F0.20236598633916195
sVrisk
p4129
F3.214155631006199
sVincurs
p4130
F0.8993548012693525
sVrise
p4131
F1.3126328274074903
sVevery
p4132
F0.40915787049346014
sVjack
p4133
F1.1365297521259208
sVsupersmart
p4134
F1.0973837708882472
sVencounter
p4135
F0.26073021370854954
sVdreamworks
p4136
F0.39072335121895824
sVschool
p4137
F0.5014016977369202
sVmagnate
p4138
F0.20236598633916195
sVmuchanticipated
p4139
F0.8904502982864876
sVvitetzakis
p4140
F1.1533613720201836
sVkatniss
p4141
F2.0135496083667963
sVforged
p4142
F0.798131721624983
sVenjoy
p4143
F0.9546832440871756
sVveritable
p4144
F0.17404655724622103
sVbicycle
p4145
F4.121936018167158
sVwaterbound
p4146
F0.9546832440871756
sVsinghs
p4147
F1.2365595006974839
sVsurrounding
p4148
F0.18118600893024847
sVstreet
p4149
F0.6207104720567296
sVellar
p4150
F1.0973837708882472
sVblue
p4151
F1.0973837708882472
sVhide
p4152
F0.4257288855474377
sVorganisms
p4153
F0.17580460327901115
sVbeaten
p4154
F0.6874703392655489
sVrevolves
p4155
F0.737061254251595
sVpoison
p4156
F0.798131721624983
sVconduct
p4157
F0.9546832440871756
sVseeks
p4158
F0.751876185462052
sVphilippe
p4159
F0.7824053736153151
sVzach
p4160
F0.2193087509049554
sVstudio
p4161
F0.30555861976643256
sVpath
p4162
F1.3933861966334156
sVvoice
p4163
F5.522510656085984
sVtx
p4164
F0.17058303075702122
sVhideously
p4165
F1.003381684197693
sVventures
p4166
F0.9546832440871756
sVleaves
p4167
F0.7919302014869183
sVchanged
p4168
F0.35732538178307494
sVmentor
p4169
F0.9174318327748666
sVchanges
p4170
F0.048566314845024564
sVpunishment
p4171
F0.14671136076260793
sVprints
p4172
F0.1606005372823957
sVmadge
p4173
F0.17404655724622103
sVviscera
p4174
F0.2819525952261938
sVdonnelly
p4175
F0.17404655724622103
sVwould
p4176
F3.1888615129271725
sVhospital
p4177
F0.9546832440871756
sVnotforprofit
p4178
F0.17058303075702122
sVasser
p4179
F0.5634125150659849
sVraids
p4180
F0.25756855871190165
sVcoffins
p4181
F0.168877200449451
sVmuse
p4182
F0.17404655724622103
sVcompanys
p4183
F0.8904502982864876
sVmust
p4184
F0.00028634950705473477
sVjoin
p4185
F0.04512911078557516
sVcandelabra
p4186
F1.1883093749537672
sVms
p4187
F0.30250303356876823
sVmr
p4188
F0.4189921119680411
sVmy
p4189
F0.2329403875848967
sVestate
p4190
F1.8780740737721926
sVtinchi
p4191
F0.04304844675363223
sVgadgets
p4192
F0.6739244576664531
sVteamthe
p4193
F0.30555861976643256
sVend
p4194
F1.2017534110174857
sVdrummer
p4195
F1.6501934472868347
sVelizabeth
p4196
F3.4804699779673167
sVmess
p4197
F0.22830487387195728
sVturing
p4198
F2.660484908936558
sVpacinos
p4199
F0.3811713571735518
sVdanny
p4200
F1.003381684197693
sVhypotheses
p4201
F0.31809274303193547
sVdaredevil
p4202
F0.2400707282857106
sVupside
p4203
F0.4861936647613558
sVultimate
p4204
F0.03475483792050573
sVenter
p4205
F1.5701024430069193
sVhedgehog
p4206
F0.2329403875848967
sVuntold
p4207
F0.05055852235428769
sVover
p4208
F0.0006183092724065078
sVjerry
p4209
F0.03450895174985443
sVlondon
p4210
F0.1617044559048036
sVdestroyer
p4211
F0.30555861976643256
sVwriting
p4212
F0.979096655461074
sVcompelling
p4213
F0.27289519549847163
sVinternetsearch
p4214
F0.8904502982864876
sVbouts
p4215
F0.20236598633916195
sVrevelations
p4216
F0.28767737498846424
sVziles
p4217
F0.14671136076260793
sVkhams
p4218
F0.2400707282857106
sVshadows
p4219
F0.0970331934146169
sValex
p4220
F4.8804059634408885
sVrastovich
p4221
F0.18673214022713464
sVchuck
p4222
F0.43591767525798714
sVdetroit
p4223
F0.8993548012693525
sVfrantically
p4224
F0.27634173858119254
sVvictory
p4225
F0.19906416615327843
sVeach
p4226
F0.8470631848530158
sVyoakam
p4227
F1.6016615021113585
sVdiana
p4228
F0.17404655724622103
sVdiane
p4229
F0.7669888967898393
sVcelebrating
p4230
F0.12243264951746473
sVjuggling
p4231
F0.14671136076260793
sVovercame
p4232
F0.2964832232007497
sVdriving
p4233
F0.23061098370904776
sVgod
p4234
F0.3862749270038838
sVpsychic
p4235
F1.0235496560500665
sVgot
p4236
F0.14671136076260793
sVnewly
p4237
F0.33567541796773054
sVgop
p4238
F0.179374148840946
sVwinnertakesall
p4239
F0.7225382357137485
sVarizona
p4240
F0.9174318327748666
sVassociate
p4241
F1.1533613720201836
sVfree
p4242
F0.4214715966919633
sVfred
p4243
F0.22830487387195728
sVmasterpiece
p4244
F0.19244803944674235
sVevil
p4245
F0.03176502320930048
sVmastering
p4246
F0.8993548012693525
sVwanted
p4247
F0.08273129783236739
sVlaborer
p4248
F0.7669888967898393
sVlongterm
p4249
F0.17404655724622103
sVdays
p4250
F0.21712641142140857
sVcharlize
p4251
F0.2935183909687422
sVjunpei
p4252
F0.168877200449451
sVonto
p4253
F0.28767737498846424
sVindustrial
p4254
F0.22152399081308627
sV18951952
p4255
F0.19244803944674235
sVresearcher
p4256
F0.2654527714775566
sVattractions
p4257
F1.003381684197693
sVlovable
p4258
F0.17580460327901115
sVfantasy
p4259
F0.14671136076260793
sVtoy
p4260
F0.06370666883937941
sVdesai
p4261
F0.17404655724622103
sVtop
p4262
F0.7765589923253586
sVfiction
p4263
F0.280686595881659
sVtoo
p4264
F0.7951839436160206
sVtom
p4265
F0.018678965854213088
sVinconvenient
p4266
F0.20441008721127468
sVunbroken
p4267
F0.5634125150659849
sVurban
p4268
F0.7444318667941109
sVmurder
p4269
F2.1420237609183963
sVcentered
p4270
F0.09240228197427316
sVserve
p4271
F0.17580460327901115
sVtook
p4272
F0.45007062048902763
sVkidnaps
p4273
F1.6833623355773
sVscenario
p4274
F0.18486481882486328
sVimmigrants
p4275
F0.798131721624983
sVscreenplay
p4276
F0.24858491323608073
sVbridge
p4277
F0.7669888967898393
sVrae
p4278
F1.003381684197693
sVraj
p4279
F0.2193087509049554
sVraw
p4280
F1.0973837708882472
sVspade
p4281
F0.22830487387195728
sVray
p4282
F0.6319534958242055
sVharper
p4283
F0.0852637154447932
sVthoroughly
p4284
F0.9546832440871756
sV1962
p4285
F0.25756855871190165
sV1963
p4286
F0.2819525952261938
sVeducator
p4287
F0.22830487387195728
sVthough
p4288
F0.03689112223834272
sVvisionary
p4289
F0.6008612962408497
sVaudition
p4290
F1.0973837708882472
sVcommanding
p4291
F0.8557052343921754
sVcoin
p4292
F1.003381684197693
sVunorthodox
p4293
F1.0651098765198201
sVdevastating
p4294
F0.8642622867360972
sVflow
p4295
F0.29058320705905477
sVpossesses
p4296
F1.0235496560500665
sVentertaining
p4297
F0.12618033154467306
sVcontacted
p4298
F1.003381684197693
sVsaga
p4299
F0.12164544070438164
sVqueen
p4300
F1.8594792809625669
sVpops
p4301
F0.9836111010662612
sVradio
p4302
F0.2329403875848967
sVmusicals
p4303
F0.8545934847928776
sVsabella
p4304
F0.9738723772933279
sVearth
p4305
F0.038860275459983794
sVlodge
p4306
F0.8729049096034581
sVoct
p4307
F0.31491181560161613
sVwaltz
p4308
F0.6541044390585402
sVgoong
p4309
F0.2400707282857106
sVwatch
p4310
F0.516414143272896
sVgoons
p4311
F0.14671136076260793
sVwedding
p4312
F1.0973837708882472
sVoverbearing
p4313
F0.14671136076260793
sVgareth
p4314
F1.6833623355773
sVtwice
p4315
F0.15740458659047601
sVquintessential
p4316
F0.28767737498846424
sVghantt
p4317
F0.2193087509049554
sVswept
p4318
F0.17404655724622103
sVhabit
p4319
F0.1963555141789025
sV1960s
p4320
F0.5149186370130754
sVbonnies
p4321
F0.33114102049199173
sVrobby
p4322
F1.1883093749537672
sVcorrupt
p4323
F2.158797718351267
sVfeline
p4324
F0.23529332079282497
sVdiscovers
p4325
F0.5755419586385644
sVmum
p4326
F0.2400707282857106
sVdiscovery
p4327
F0.1348164283753609
sVbargains
p4328
F1.003381684197693
sVconfusion
p4329
F0.3537521279652442
sVhowever
p4330
F2.173092173842625
sVboss
p4331
F0.03506379297530289
sVnightmares
p4332
F1.003381684197693
sVadage
p4333
F0.179374148840946
sVnews
p4334
F0.21279506169432733
sVimprove
p4335
F0.14671136076260793
sVprotect
p4336
F1.0194634310098603
sVsumpter
p4337
F1.0235496560500665
sV10time
p4338
F0.28767737498846424
sValzheimersuffering
p4339
F0.641215997508617
sVgames
p4340
F3.5566458306876227
sVfaces
p4341
F0.0559039412117887
sVvariance
p4342
F0.7669888967898393
sVsuchart
p4343
F0.11526790915926297
sVreconstructs
p4344
F0.17404655724622103
sVsmuggler
p4345
F0.06904040654373639
sVmajestic
p4346
F0.18673214022713464
sVesposito
p4347
F0.8642622867360972
sVtrust
p4348
F1.2867687750293995
sVhitler
p4349
F1.1765439355977894
sVbeen
p4350
F0.18282394254536535
sVquickly
p4351
F0.3562905876121354
sVmiraculously
p4352
F0.7669888967898393
sVexpected
p4353
F0.2935183909687422
sVspeeches
p4354
F0.19244803944674235
sVcatch
p4355
F0.4214715966919633
sVteapot
p4356
F1.1883093749537672
sVstrangest
p4357
F0.10743722385303976
sVdepp
p4358
F0.02997950733573274
sVsubnormal
p4359
F0.8557052343921754
sVculturechanging
p4360
F1.0973837708882472
sVprovocative
p4361
F0.2654527714775566
sVbrutal
p4362
F2.3610452712653816
sVexterior
p4363
F1.1883093749537672
sVcontaining
p4364
F0.16138135404719542
sVniki
p4365
F0.8729049096034581
sVturow
p4366
F0.18118600893024847
sVcomplex
p4367
F0.25756855871190165
sVseveral
p4368
F0.1653593426920573
sVpick
p4369
F1.0235496560500665
sVcharacters
p4370
F0.015443556990715116
sVgroundbreaking
p4371
F0.6313849651281459
sVcharlie
p4372
F0.02908908598835414
sVboxer
p4373
F0.7669888967898393
sVimpediment
p4374
F1.0651098765198201
sVgreatest
p4375
F0.03058821276985281
sVmother
p4376
F0.1717984264654158
sVhearts
p4377
F1.003381684197693
sVspencer
p4378
F1.7517135966847042
sVdads
p4379
F0.31491181560161613
sVagency
p4380
F0.1423538866365977
sVmeetandgreet
p4381
F0.17058303075702122
sVtransporting
p4382
F0.2193087509049554
sVcampbell
p4383
F0.2193087509049554
sVdepart
p4384
F0.2329403875848967
sVbloodbath
p4385
F0.168877200449451
sVbrandnew
p4386
F0.2735783211953806
sVhumanity
p4387
F0.14671136076260793
sVbreaks
p4388
F0.8557052343921754
sVcultural
p4389
F0.10897375675483592
sVbando
p4390
F0.17058303075702122
sVjudge
p4391
F0.22830487387195728
sVburns
p4392
F0.2193087509049554
sVtwotime
p4393
F3.51527467774699
sVapart
p4394
F1.5858034674369885
sVzeal
p4395
F0.2376700210028535
sVhunt
p4396
F0.005851858898265456
sVunsuspecting
p4397
F0.2819525952261938
sVofficer
p4398
F0.4408055278092449
sVhung
p4399
F1.8047922703778476
sVgifted
p4400
F0.8729049096034581
sVspongebob
p4401
F0.3117626974456
sVjennifer
p4402
F0.34231977739305347
sVdonald
p4403
F1.0120988510626443
sVescape
p4404
F0.09320969843163911
sVice
p4405
F1.6338548983037968
sVeverything
p4406
F2.1683171103882004
sVchristmas
p4407
F0.18486481882486328
sVespionage
p4408
F0.9190386713554265
sVcore
p4409
F0.20856043996661022
sVbrawl
p4410
F0.7669888967898393
sVcorn
p4411
F0.28767737498846424
sVlaughaminute
p4412
F0.31491181560161613
sVnewcomer
p4413
F1.0973837708882472
sVwolflike
p4414
F0.15272951296415227
sVnighy
p4415
F0.17404655724622103
sVchapter
p4416
F0.5330206302759225
sVcowboy
p4417
F0.9174318327748666
sVattacks
p4418
F0.25756855871190165
sVsardar
p4419
F1.2365595006974839
sVmontana
p4420
F0.29058320705905477
sVensure
p4421
F0.06904040654373639
sVnerveracking
p4422
F0.2400707282857106
sV42s
p4423
F1.0235496560500665
sVsept
p4424
F0.31491181560161613
sVduke
p4425
F0.35527661363614604
sVpresence
p4426
F0.28767737498846424
sVcivil
p4427
F0.44401306781120914
sVcoastal
p4428
F1.0235496560500665
sVexisted
p4429
F0.5845330024742877
sVclass
p4430
F0.05915650406940957
sVstuck
p4431
F0.13004273068886296
sVcrews
p4432
F1.6338548983037968
sVhead
p4433
F0.25003088418997
sVamateur
p4434
F0.20236598633916195
sVhirsch
p4435
F1.0235496560500665
sV26th
p4436
F0.29058320705905477
sVuncle
p4437
F0.28575628336363995
sVheilbroner
p4438
F0.23061098370904776
sVdubey
p4439
F0.17404655724622103
sVversions
p4440
F0.9174318327748666
sVheartwarming
p4441
F0.3117626974456
sVprematurely
p4442
F0.5634125150659849
sVtrio
p4443
F0.06525743271096512
sVfury
p4444
F0.15740458659047601
sVacclaimed
p4445
F0.15899453190957175
sVtrip
p4446
F0.07557646747657357
sVradically
p4447
F0.30555861976643256
sVfaithful
p4448
F0.33448587928484014
sVno
p4449
F1.6737923136115556
sVwhen
p4450
F4.555445078883061e-06
sVng
p4451
F0.04304844675363223
sVtim
p4452
F0.9738723772933279
sVtin
p4453
F0.14671136076260793
sVsetting
p4454
F0.18118600893024847
sVvanished
p4455
F0.7051210239579542
sVpseudonym
p4456
F0.8388444607314728
sVpicture
p4457
F0.2977459719577213
sVfootball
p4458
F0.8557052343921754
sVtrailers
p4459
F0.28767737498846424
sVskeeter
p4460
F0.8557052343921754
sVyounger
p4461
F0.44232893582297456
sVlonger
p4462
F0.6739244576664531
sVverve
p4463
F0.28767737498846424
sVvietnam
p4464
F1.4644628963323345
sVserious
p4465
F0.0852637154447932
sVcoach
p4466
F0.22830487387195728
sVremarkable
p4467
F1.1443997011815834
sVrob
p4468
F0.2439794227220027
sVfocus
p4469
F0.017174837428685082
sVleads
p4470
F0.4239443435451255
sVparker
p4471
F0.26389113340522286
sVchadwick
p4472
F1.0235496560500665
sVjungledwelling
p4473
F0.23529332079282497
sVdeblois
p4474
F0.2848006012385796
sV1942
p4475
F1.0865185850378685
sV1940
p4476
F1.1765439355977894
sV1944
p4477
F2.224211448015029
sVpassage
p4478
F0.2848006012385796
sVcharge
p4479
F0.28012575567458087
sVtanks
p4480
F0.9174318327748666
sVwelldeserved
p4481
F0.2935183909687422
sVroving
p4482
F0.2735783211953806
sVlevel
p4483
F0.8557052343921754
sVphilippines
p4484
F0.24741932980010348
sVcamaraderie
p4485
F0.8223159109219417
sVbrother
p4486
F0.5610228802587861
sVculminating
p4487
F0.33641475382589864
sVbobventures
p4488
F0.17580460327901115
sVhighsociety
p4489
F0.18486481882486328
sVsays
p4490
F0.3360448825693074
sVtrend
p4491
F0.17404655724622103
sVcolin
p4492
F0.6315744185070977
sVdev
p4493
F0.17404655724622103
sVsoldiers
p4494
F0.6045377348053265
sVfear
p4495
F0.010647546249815542
sVstands
p4496
F0.23061098370904776
sVcecile
p4497
F0.7153843917957906
sVbonechilling
p4498
F1.003381684197693
sVtranscontinental
p4499
F1.6833623355773
sVgoes
p4500
F1.7655190611455018
sVtormentor
p4501
F0.8993548012693525
sVmoviegoers
p4502
F0.15899453190957175
sVlowlands
p4503
F0.15272951296415227
sVangelina
p4504
F0.2376700210028535
sVevolved
p4505
F0.2193087509049554
sVwater
p4506
F1.6833623355773
sVentertain
p4507
F0.360934729073813
sVwitch
p4508
F0.18118600893024847
sV20063013
p4509
F0.14671136076260793
sVjetstreams
p4510
F0.18673214022713464
sVbased
p4511
F1.2120115586862736
sVthirty
p4512
F0.22830487387195728
sVsharpening
p4513
F0.2193087509049554
sVeberle
p4514
F1.1533613720201836
sVcrecilius
p4515
F0.20856043996661022
sVmccormick
p4516
F0.751876185462052
sVcrisis
p4517
F0.23873002265057403
sVvivid
p4518
F1.0235496560500665
sVhandles
p4519
F0.2964832232007497
sVarabian
p4520
F0.25756855871190165
sVandy
p4521
F0.11184433698932371
sVmemory
p4522
F0.2524429443935348
sVaustralian
p4523
F0.19244803944674235
sVtoday
p4524
F0.0403553477508706
sVkerry
p4525
F0.6541044390585402
sVriot
p4526
F0.9546832440871756
sVconnellys
p4527
F0.8388444607314728
sVcases
p4528
F0.14093034777023172
sVinsights
p4529
F0.2964832232007497
sVjudi
p4530
F0.17404655724622103
sVlocal
p4531
F0.07482070280180783
sVjudd
p4532
F0.1457316314167082
sVsandstorm
p4533
F0.9174318327748666
sVferry
p4534
F0.9546832440871756
sVlaughter
p4535
F0.14671136076260793
sVattain
p4536
F0.2193087509049554
sVfigure
p4537
F0.04304844675363223
sVconcierge
p4538
F1.1883093749537672
sVcritic
p4539
F0.2819525952261938
sVmiddleaged
p4540
F0.14671136076260793
sVafterlife
p4541
F0.2654527714775566
sV1
p4542
F2.022529983315348
sVsundance
p4543
F0.4309547091686892
sVfourth
p4544
F0.20384866968049078
sVplus
p4545
F0.2654527714775566
sVspeaks
p4546
F0.8557052343921754
sVparamount
p4547
F0.11350063798733831
sV83
p4548
F0.9546832440871756
sVlittleknown
p4549
F0.798131721624983
sVcrashed
p4550
F0.2654527714775566
sVheartbreaking
p4551
F0.6874703392655489
sVbirthday
p4552
F0.3117626974456
sVefforts
p4553
F2.5062971319294065
sVbadlands
p4554
F0.4257288855474377
sVgerard
p4555
F0.2848006012385796
sVexclusive
p4556
F0.002197733797768181
sVbluray
p4557
F0.4387605114994839
sVmidnight
p4558
F0.04759984517960857
sVtopsecret
p4559
F0.31491181560161613
sVducklings
p4560
F0.2400707282857106
sVblart
p4561
F0.17230609167375882
sVworship
p4562
F0.1963555141789025
sVoffers
p4563
F0.29058320705905477
sVhanks
p4564
F1.4644628963323345
sVmarvels
p4565
F0.16386137871890186
sVleggy
p4566
F0.14671136076260793
sVwarranted
p4567
F0.8557052343921754
sVcaine
p4568
F0.33448587928484014
sVwagon
p4569
F0.9174318327748666
sVname
p4570
F0.3691665006819132
sVrealism
p4571
F0.17404655724622103
sVpopulated
p4572
F0.45366304720805967
sVquigley
p4573
F0.29058320705905477
sVdench
p4574
F0.17404655724622103
sVsuzanne
p4575
F1.003381684197693
sVobsession
p4576
F0.309897628807337
sVintended
p4577
F0.9546832440871756
sVhacker
p4578
F3.7315349053258666
sVultimately
p4579
F0.2856276679291345
sVtensions
p4580
F0.3698501866941401
sVfactory
p4581
F1.1533613720201836
sVsixyearold
p4582
F0.8223159109219417
sVcostumes
p4583
F0.17058303075702122
sVboobs
p4584
F0.29058320705905477
sVhulk
p4585
F0.2681341126035925
sVjacobsons
p4586
F1.003381684197693
sVcostar
p4587
F0.43591767525798686
sVexplorers
p4588
F0.19052355905227492
sVestella
p4589
F0.18118600893024847
sVestelle
p4590
F0.23529332079282497
sVmotion
p4591
F0.8904502982864876
sVturn
p4592
F0.0767224893388493
sVplace
p4593
F4.461679451463638
sVfuturistic
p4594
F0.9546832440871756
sVview
p4595
F0.17404655724622103
sVchildhood
p4596
F2.267216584594254
sVteammates
p4597
F0.22830487387195728
sVsoderbergh
p4598
F0.8729049096034581
sVsurviving
p4599
F0.2400707282857106
sVwaves
p4600
F0.18673214022713464
sVclumsy
p4601
F0.6739244576664531
sVsoaring
p4602
F0.7225382357137485
sVarray
p4603
F0.8557052343921754
sVgeorge
p4604
F0.06123306174998294
sVmillions
p4605
F0.03450895174985443
sVearths
p4606
F0.2964832232007497
sVgiven
p4607
F0.08965784179735528
sVian
p4608
F0.28767737498846424
sVdistrict
p4609
F0.504621288960902
sVseibert
p4610
F0.9546832440871756
sVeurope
p4611
F0.8223159109219417
sVplastic
p4612
F0.2329403875848967
sVreturns
p4613
F0.06540440189506157
sVterrifying
p4614
F0.9957845093666027
sVbounty
p4615
F0.5229362206955687
sVgives
p4616
F0.7715661853066814
sVexploring
p4617
F1.386991020547153
sVcope
p4618
F0.3117626974456
sVseason
p4619
F1.0865185850378685
sValabamas
p4620
F0.18118600893024847
sValan
p4621
F1.7692307326515513
sVcheerleading
p4622
F0.29058320705905477
sVreleased
p4623
F0.08637076926618652
sVenigma
p4624
F0.8642622867360972
sVeyeopening
p4625
F0.21279506169432733
sVmilton
p4626
F0.1963555141789025
sVschooler
p4627
F0.14671136076260793
sVnathan
p4628
F2.797454545626072
sVunfortunately
p4629
F1.1765439355977894
sVcryptanalyst
p4630
F0.8642622867360972
sVofficials
p4631
F0.3100526241172339
sVand
p4632
F7.846557111923277e-44
sVtwentyeight
p4633
F1.0235496560500665
sVarmored
p4634
F0.2193087509049554
sVmykelti
p4635
F0.8557052343921754
sVany
p4636
F0.7032547165091129
sVsuperman
p4637
F0.2329403875848967
sVideas
p4638
F1.0235496560500665
sVgustave
p4639
F1.1883093749537672
sVphillips
p4640
F1.7517135966847042
sVideal
p4641
F0.7669888967898393
sVanimation
p4642
F0.08367985079926364
sVsure
p4643
F0.25756855871190165
sVmultiple
p4644
F0.3524808464192678
sVfalls
p4645
F0.22061755658827312
sVheinous
p4646
F0.9546832440871756
sVproud
p4647
F0.17058303075702122
sVrenier
p4648
F0.7153843917957906
sVdetective
p4649
F0.5049746651995336
sVutoyamassacre
p4650
F0.30555861976643256
sVrecipe
p4651
F0.8557052343921754
sVspacey
p4652
F6.137001049620123
sVrajs
p4653
F0.2193087509049554
sVfavor
p4654
F0.179374148840946
sVstate
p4655
F1.5308757171703022
sVcrime
p4656
F0.010973469260316195
sVafricanamerican
p4657
F0.14671136076260793
sVdekker
p4658
F2.0135496083667963
sVjazz
p4659
F1.6501934472868347
sVoconnor
p4660
F0.4387605114994839
sVtailor
p4661
F1.0865185850378685
sVinstalled
p4662
F0.6739244576664531
sVallout
p4663
F0.8904502982864876
sVorphans
p4664
F0.24741932980010348
sVyounggu
p4665
F1.003381684197693
sVnaked
p4666
F0.01759907351043974
sVvilleneuve
p4667
F1.7692307326515513
sVmuriel
p4668
F0.0605844081785242
sVdiscussing
p4669
F0.23529332079282497
sVreveals
p4670
F0.013827207355611867
sVemoto
p4671
F0.9452309347397778
sVpsychopaths
p4672
F0.15740458659047601
sVcollege
p4673
F0.11712708366592757
sV1927
p4674
F0.9546832440871756
sVfails
p4675
F0.23529332079282497
sVvisceral
p4676
F1.0973837708882472
sVgenerosity
p4677
F0.17058303075702122
sVfederal
p4678
F0.3424909886417002
sVweapons
p4679
F1.0235496560500665
sVfreder
p4680
F0.9546832440871756
sVarrival
p4681
F0.6870922011189448
sVfearless
p4682
F1.0235496560500665
sVinseparable
p4683
F0.33448587928484014
sV20
p4684
F0.28767737498846424
sVcities
p4685
F0.20856043996661022
sVcome
p4686
F2.334631438963324
sVacquiring
p4687
F1.9349815962815637
sVregion
p4688
F1.6338548983037968
sVjokmok
p4689
F0.2400707282857106
sVminionkindfrom
p4690
F0.17580460327901115
sVberry
p4691
F0.2329403875848967
sVrailway
p4692
F1.6833623355773
sVduty
p4693
F1.028320312673926
sVcabal
p4694
F0.7669888967898393
sVpov
p4695
F1.0973837708882472
sVpot
p4696
F2.095307796800418
sVcolony
p4697
F1.7517135966847042
sVperiod
p4698
F0.168877200449451
sV60
p4699
F0.308645070471144
sV64
p4700
F0.8388444607314728
sV65
p4701
F1.003381684197693
sVkowloon
p4702
F1.4073200585997496
sV69
p4703
F0.30555861976643256
sVrunaway
p4704
F0.17230609167375882
sVhoward
p4705
F0.46343005498120765
sVsegrand
p4706
F0.17580460327901115
sVfilmmakers
p4707
F0.7444318667941109
sVmemento
p4708
F1.0235496560500665
sVfeaturing
p4709
F0.045418877848679186
sV500
p4710
F0.14671136076260793
sV630
p4711
F0.31491181560161613
sVdirection
p4712
F0.2964832232007497
sVcowrote
p4713
F0.9546832440871756
sVandrew
p4714
F1.0863554302508853
sV6s
p4715
F0.14671136076260793
sVstandup
p4716
F0.2735783211953806
sVtamil
p4717
F0.7669888967898393
sVspirit
p4718
F0.03497449557753694
sVpilot
p4719
F1.6338548983037968
sVpaying
p4720
F0.2735783211953806
sVhughes
p4721
F0.2654527714775566
sVspiderman
p4722
F0.04304844675363223
sVmount
p4723
F0.798131721624983
sVcash
p4724
F0.10529922309836427
sVcast
p4725
F0.006950857105391169
sVmouna
p4726
F0.798131721624983
sVpunches
p4727
F0.8993548012693525
sVcandies
p4728
F0.6541044390585402
sVsomeone
p4729
F0.43913356195104664
sVresentful
p4730
F0.23529332079282497
sVauthor
p4731
F1.0651098765198201
sVgranted
p4732
F0.34001684176175356
sVpostwar
p4733
F0.14671136076260793
sVevents
p4734
F0.0033214127488113304
sVmusters
p4735
F0.751876185462052
sVweek
p4736
F0.8904502982864876
sVtwosome
p4737
F0.2819525952261938
sVdriver
p4738
F0.28913384497930117
sVdrives
p4739
F0.42715746921007813
sVunearths
p4740
F1.0973837708882472
sVproducers
p4741
F1.1533613720201836
sVhawkeye
p4742
F0.2681341126035925
sVchanging
p4743
F3.694589015174125
sVperennial
p4744
F0.2329403875848967
sVeerie
p4745
F0.9546832440871756
sVmagical
p4746
F0.765264898105021
sVwithout
p4747
F0.20506521163932126
sVreward
p4748
F0.14379180468343203
sVdesolate
p4749
F0.8249102824792197
sVcaptures
p4750
F2.6080628457372397
sVactions
p4751
F0.07788987464335588
sVinception
p4752
F1.0973837708882472
sVviolent
p4753
F1.301716781805831
sVpariah
p4754
F0.179374148840946
sVkill
p4755
F0.1004393616277439
sVharrison
p4756
F1.0757609752850184
sVwomans
p4757
F0.5007254787232364
sVseems
p4758
F2.9801150549346467
sVexcept
p4759
F0.10424623086738063
sVlets
p4760
F0.23529332079282497
sVbriggs
p4761
F0.2819525952261938
sVstyles
p4762
F0.22505196947569758
sVjoni
p4763
F1.130635596529932
sVkennedy
p4764
F0.8557052343921754
sVbuddies
p4765
F0.2935183909687422
sVmouthwateringly
p4766
F0.28767737498846424
sVrecalls
p4767
F0.4257288855474377
sVtower
p4768
F0.168877200449451
sVcompetition
p4769
F0.5815011688666643
sVthenyou
p4770
F0.2193087509049554
sVcowboys
p4771
F1.0235496560500665
sVcaribbean
p4772
F0.352727681736014
sVfrees
p4773
F1.6338548983037968
sVteachings
p4774
F0.308645070471144
sVslick
p4775
F1.5239259624196417
sVmoon
p4776
F1.0757609752850184
sVprovides
p4777
F0.3245513141842011
sVmetropolis
p4778
F10.488756000855233
sVwarlords
p4779
F1.1765439355977894
sVcalmer
p4780
F1.0235496560500665
sVmclafferty
p4781
F0.31809274303193547
sVsupervillain
p4782
F0.17580460327901115
sVon
p4783
F2.046045303150174e-08
sVof
p4784
F8.651824926124016e-25
sVshrimp
p4785
F0.8557052343921754
sVaddition
p4786
F0.14969019565616562
sVoz
p4787
F1.4873395592220329
sVequalize
p4788
F0.17058303075702122
sVgregory
p4789
F0.13402335845843702
sVdiscusses
p4790
F0.8557052343921754
sVor
p4791
F0.05023594822111058
sVtribe
p4792
F0.4546167883727554
sVtrainwrecking
p4793
F0.25756855871190165
sVrevolutionaries
p4794
F1.0973837708882472
sVgary
p4795
F1.973874726366823
sVfrostnixon
p4796
F1.5239259624196417
sVthere
p4797
F1.944777486985426
sVstrict
p4798
F0.8388444607314728
sVdeteriorating
p4799
F0.21279506169432733
sVhighdefinition
p4800
F0.31491181560161613
sVsagaftra
p4801
F0.17058303075702122
sVamongst
p4802
F0.3698501866941401
sVidea
p4803
F1.0235496560500665
sVilluminates
p4804
F0.179374148840946
sV10yearold
p4805
F0.31491181560161613
sVapplying
p4806
F1.0545642341780397
sVhallows
p4807
F0.8904502982864876
sVcastles
p4808
F1.1883093749537672
sVtaylor
p4809
F1.1421130748345905
sVcinema
p4810
F0.08967574616149686
sVreknown
p4811
F0.17404655724622103
sVpolitics
p4812
F0.5634125150659849
sVnelsan
p4813
F1.0235496560500665
sVspends
p4814
F0.34472454293453886
sVstumbled
p4815
F1.6338548983037968
sV20thcentury
p4816
F0.798131721624983
sVseediq
p4817
F2.0336851044504645
sVstumbles
p4818
F0.2524429443935348
sVign
p4819
F0.28767737498846424
sVbrash
p4820
F0.30555861976643256
sVchampionship
p4821
F0.7225382357137485
sVseparate
p4822
F0.308645070471144
sVsymbol
p4823
F0.7153843917957906
sVfinale
p4824
F0.8904502982864876
sVincludes
p4825
F0.1334215782768266
sVbullets
p4826
F0.2329403875848967
sVkingsley
p4827
F0.9546832440871756
sVstocks
p4828
F0.8557052343921754
sVassassins
p4829
F2.713960655606183
sVcalls
p4830
F0.2935183909687422
sVwife
p4831
F8.848501802342579
sVodds
p4832
F0.2735783211953806
sVparsons
p4833
F0.23529332079282497
sVwebsites
p4834
F0.8388444607314728
sVdirectors
p4835
F0.17828324263361442
sVall
p4836
F0.009841661330255234
sVphongam
p4837
F0.2400707282857106
sVchinese
p4838
F3.214155631006199
sVali
p4839
F1.1533613720201836
sVlack
p4840
F1.8047922703778476
sVdish
p4841
F0.28767737498846424
sVfollow
p4842
F0.17580460327901115
sVeveryones
p4843
F0.10961863468323617
sVapartment
p4844
F0.5295670597619414
sVcatastrophe
p4845
F0.31491181560161613
sVthursday
p4846
F0.09716429944139753
sVaaron
p4847
F0.9358722126136414
sVprogram
p4848
F0.04890992622920484
sVpresent
p4849
F0.0017267114042196921
sVpresentation
p4850
F0.012012328492476224
sVwoman
p4851
F1.0383433651818572
sVworse
p4852
F0.25499287312478264
sVchameleon
p4853
F0.23061098370904776
sVfar
p4854
F0.0974026070550884
sVworst
p4855
F0.8223159109219417
sVvacationing
p4856
F0.14671136076260793
sVsony
p4857
F0.2896836524548676
sVwily
p4858
F0.23061098370904776
sVmorchidat
p4859
F0.11760831462020505
sVlist
p4860
F0.35021460668559173
sVlisa
p4861
F0.751876185462052
sVcaplan
p4862
F1.6016615021113585
sVemploying
p4863
F0.21279506169432733
sVten
p4864
F0.03628739517672469
sVtriforce
p4865
F0.2193087509049554
sVinvention
p4866
F0.31491181560161613
sVdesign
p4867
F0.16222276493171284
sVgunn
p4868
F0.4214715966919633
sVwhat
p4869
F0.0045864227126045255
sVsun
p4870
F1.0914735749023745
sVmagnolia
p4871
F0.2400707282857106
sVbrief
p4872
F1.0973837708882472
sVcrush
p4873
F0.629682440037834
sVversion
p4874
F0.1962082626921553
sVpulpit
p4875
F0.1963555141789025
sVinstilling
p4876
F0.8557052343921754
sVcinemas
p4877
F0.14524424715498185
sVchristian
p4878
F0.9174318327748666
sVdrudgery
p4879
F0.9546832440871756
sVandrews
p4880
F0.9083483492820461
sVtragedy
p4881
F0.5634125150659849
sVallows
p4882
F0.22830487387195728
sVoutposts
p4883
F0.18673214022713464
sVnailbiting
p4884
F0.8642622867360972
sVsuddenly
p4885
F1.2138923343610968
sV1945
p4886
F0.798131721624983
sVdorset
p4887
F0.25756855871190165
sVnutcases
p4888
F1.2489250957044586
sVwajdi
p4889
F1.0757609752850184
sVconspiring
p4890
F0.20236598633916195
sVbranded
p4891
F0.07044220645213385
sVaffluence
p4892
F0.8557052343921754
sVhorses
p4893
F1.6833623355773
sVknows
p4894
F0.976261246717363
sVimmersion
p4895
F0.2964832232007497
sVstutter
p4896
F0.19244803944674235
sVhardcastle
p4897
F0.17404655724622103
sVfloyd
p4898
F2.3145233518923454
sV20000
p4899
F0.1963555141789025
sVknown
p4900
F0.17985005461905793
sVv
p4901
F1.0651098765198201
sVaudiences
p4902
F0.10969536186189031
sVchallenging
p4903
F0.10743722385303976
sVsearchlight
p4904
F0.4136423113082239
sVsaadi
p4905
F1.2740284901281183
sVcoltrane
p4906
F1.0973837708882472
sVprotects
p4907
F0.31491181560161613
sVimitation
p4908
F0.8642622867360972
sVairplane
p4909
F0.43194709542661475
sVoffspring
p4910
F0.751876185462052
sVinfluenced
p4911
F0.28767737498846424
sVcourt
p4912
F1.4938986005486143
sVgoal
p4913
F1.5088375865541006
sVrather
p4914
F0.308645070471144
sVbreaking
p4915
F3.5504274245244596
sVjohannesburg
p4916
F0.7824053736153151
sVoccasionally
p4917
F0.7225382357137485
sVinfluences
p4918
F0.4304378478530061
sVspeeding
p4919
F1.2489250957044586
sVubiquitous
p4920
F0.28767737498846424
sVreflect
p4921
F0.37090575424328004
sVadventure
p4922
F0.002097455064431067
sVcapitalize
p4923
F1.6833623355773
sVmeiwai
p4924
F0.14671136076260793
sVshort
p4925
F0.23213804920208841
sVshady
p4926
F0.23061098370904776
sVseptember
p4927
F0.28767737498846424
sVoverthetop
p4928
F1.1533613720201836
sVscientist
p4929
F0.24741932980010348
sVislam
p4930
F0.308645070471144
sVunleashing
p4931
F0.14671136076260793
sVprodigy
p4932
F0.5700432985654984
sVstrange
p4933
F0.48619366476135595
sVstephen
p4934
F0.6541044390585402
sVbout
p4935
F0.021089015332543867
sVmight
p4936
F4.121936018167158
sValter
p4937
F0.06119637189749919
sVargentine
p4938
F0.1606005372823957
sVholocron
p4939
F0.002310995575610155
sVreturn
p4940
F0.05781138488267425
sVhunter
p4941
F0.11154274952612694
sVunrefined
p4942
F0.15899453190957175
sVmilestone
p4943
F0.28767737498846424
sVcommunities
p4944
F0.308645070471144
sVhunted
p4945
F0.2400707282857106
sVvaughn
p4946
F0.15899453190957175
sVbollywood
p4947
F1.2365595006974839
sVschoolteacher
p4948
F0.7669888967898393
sVmathematician
p4949
F0.8642622867360972
sVturns
p4950
F2.432587304029994
sVfriendship
p4951
F1.4638037593589956
sVcharacterized
p4952
F0.17404655724622103
sVpirates
p4953
F0.25654029096938685
sVweight
p4954
F1.1083576085971296
sVstiller
p4955
F0.3928390704036094
sVwilbert
p4956
F1.0973837708882472
sVhilt
p4957
F0.23061098370904776
sVhill
p4958
F0.9977781710671974
sVparadise
p4959
F1.0235496560500665
sVbenjamin
p4960
F0.8642622867360972
sVhailing
p4961
F0.17058303075702122
sVcoldplays
p4962
F1.0973837708882472
sVteach
p4963
F1.1765439355977894
sVthrown
p4964
F0.17058303075702122
sVfantastical
p4965
F0.33448587928484014
sVbenedict
p4966
F0.723803727352036
sVprejudice
p4967
F0.308645070471144
sVthreat
p4968
F0.02173455330011045
sVdivorce
p4969
F0.641215997508617
sVthrows
p4970
F0.3117626974456
sVcareerlaunching
p4971
F0.28767737498846424
sVtwoface
p4972
F0.1274548803481546
sVfeel
p4973
F0.9738723772933279
sVmankiewicz
p4974
F0.2601702613251532
sVtraveled
p4975
F1.6338548983037968
sVrevolution
p4976
F0.16155898009451222
sVpasses
p4977
F1.2365595006974839
sVstory
p4978
F0.00375445266686134
sVscript
p4979
F0.26538636902723983
sVleading
p4980
F0.04368158191818406
sVinterviews
p4981
F0.0003747738983126217
sVhangs
p4982
F0.8557052343921754
sVcollar
p4983
F0.1963555141789025
sVswarm
p4984
F0.24741932980010348
sVstorm
p4985
F0.2964832232007497
sVpitted
p4986
F0.2524429443935348
sVaristocracy
p4987
F0.7225382357137485
sVstore
p4988
F0.4008152947695229
sVpump
p4989
F0.2400707282857106
sVhotel
p4990
F0.11911743711845099
sVblaise
p4991
F0.9738723772933279
sVhorrifically
p4992
F0.7669888967898393
sVrifle
p4993
F0.1963555141789025
sVconvinced
p4994
F0.09056347656298513
sVuncut
p4995
F0.7669888967898393
sVking
p4996
F1.570100872779645
sVkind
p4997
F0.32995099664425226
sVdouble
p4998
F0.2193087509049554
sVinvaded
p4999
F0.2654527714775566
sVdano
p5000
F0.8223159109219417
sVdank
p5001
F0.9358722126136414
sVrisks
p5002
F0.7153843917957906
sVdane
p5003
F0.18673214022713464
sVdana
p5004
F1.1533613720201836
sVunrelenting
p5005
F0.30555861976643256
sVdecadent
p5006
F0.9546832440871756
sVarsaw
p5007
F1.0545642341780397
sVgarfield
p5008
F0.14671136076260793
sValike
p5009
F0.5200158166008673
sVwilson
p5010
F0.10320376855870683
sVnights
p5011
F0.07557646747657357
sVentirety
p5012
F0.17580460327901115
sVsewashi
p5013
F1.2243163373242414
sVfinding
p5014
F0.6541044390585402
sVdonor
p5015
F0.751876185462052
sVpopulate
p5016
F1.1765439355977894
sVwarnings
p5017
F1.0973837708882472
sVreach
p5018
F0.751876185462052
sVreunited
p5019
F0.23529332079282497
sVcuttingedge
p5020
F0.751876185462052
sV75
p5021
F0.28767737498846424
sV72
p5022
F0.11297407776699364
sVenduring
p5023
F0.2801257556745811
sVsandra
p5024
F0.10320376855870683
sVnothing
p5025
F0.2160327404953315
sVseasons
p5026
F1.0973837708882472
sVlovechild
p5027
F1.003381684197693
sVscreenwriter
p5028
F0.24494513650210245
sV79
p5029
F0.23529332079282497
sVron
p5030
F0.5073030161803341
sVlying
p5031
F0.641215997508617
sVtopclass
p5032
F0.2400707282857106
sVshares
p5033
F0.4387605114994839
sVfelon
p5034
F0.14671136076260793
sV11yearold
p5035
F0.7153843917957906
sVdeserts
p5036
F0.23061098370904776
sVrampant
p5037
F1.6833623355773
sVheavily
p5038
F0.19244803944674235
sVgrotesque
p5039
F1.003381684197693
sVhip
p5040
F1.1419419524952312
sVhis
p5041
F0.0004275254521579902
sVhit
p5042
F0.16764041390076415
sValicia
p5043
F0.8904502982864876
sVhim
p5044
F0.7366543655485591
sVbudapest
p5045
F1.1883093749537672
sVadulthood
p5046
F1.9009373271265777
sVbrendan
p5047
F0.7225382357137485
sVpostchristmas
p5048
F0.33114102049199173
sVtimeless
p5049
F0.05878499067121386
sVinvestigate
p5050
F0.39207367703577906
sVactivity
p5051
F1.1083576085971296
sVvincent
p5052
F0.7824053736153151
sVrelentless
p5053
F0.17580460327901115
sVbars
p5054
F0.5634125150659849
sVart
p5055
F0.9889861909792566
sVpvt
p5056
F1.7517135966847042
sVintelligence
p5057
F2.4165842956809773
sVdeming
p5058
F1.4938986005486143
sVchoreographed
p5059
F0.2400707282857106
sVbare
p5060
F1.1533613720201836
sVare
p5061
F6.524038980718368e-07
sVchambers
p5062
F0.0763398661379531
sVromances
p5063
F1.0973837708882472
sVyouth
p5064
F0.30555861976643256
sVlearns
p5065
F4.73403253207181
sVvarious
p5066
F0.2819525952261938
sVcorruption
p5067
F1.716081760741921
sVkorea
p5068
F2.0135496083667963
sVrecently
p5069
F1.5858034674369885
sVcreating
p5070
F1.1533613720201836
sVfranchises
p5071
F0.30555861976643256
sVattention
p5072
F0.2735783211953806
sVsucceed
p5073
F1.379590293696451
sVfranchise
p5074
F0.13756064909163468
sVcitys
p5075
F1.6380264807193938
sVprelude
p5076
F1.6338548983037968
sVc
p5077
F0.02554405785864554
sVblazes
p5078
F0.7225382357137485
sVateam
p5079
F0.3245513141842011
sVriddled
p5080
F0.2400707282857106
sVroman
p5081
F0.3206477125187704
sVbecame
p5082
F0.06835000247829902
sVcontext
p5083
F0.18118600893024847
sVbond
p5084
F6.137001049620123
sVrollers
p5085
F1.1533613720201836
sVfinds
p5086
F0.0008723589540973025
sVclashing
p5087
F1.0973837708882472
sVsweet
p5088
F0.9174318327748666
sVcrystalsomething
p5089
F0.2193087509049554
sVguzman
p5090
F0.751876185462052
sVweasel
p5091
F0.2400707282857106
sVrave
p5092
F0.31809274303193547
sVduo
p5093
F0.33448587928484014
sVnader
p5094
F1.3524069147107647
sVpolitical
p5095
F0.08190398485404372
sVdue
p5096
F0.7819750171315879
sVappears
p5097
F0.23061098370904776
sVwhom
p5098
F0.30750513689043496
sVpa
p5099
F0.5743060981299872
sVbrick
p5100
F0.14671136076260793
sVpm
p5101
F0.15583054072457125
sVflight
p5102
F0.18486481882486328
sV1950s
p5103
F1.003381684197693
sVsending
p5104
F0.7669888967898393
sVorchestral
p5105
F0.05819714076450172
sVimprudence
p5106
F1.2365595006974839
sVdemand
p5107
F0.3811713571735518
sVinstructor
p5108
F0.9083483492820461
sVstolen
p5109
F0.015757123753407935
sVfrozen
p5110
F1.6338548983037968
sVbehavior
p5111
F0.7314805432440505
sVincognito
p5112
F0.7225382357137485
sVyuhang
p5113
F0.14671136076260793
sVdisappointing
p5114
F1.003381684197693
sVrim
p5115
F0.31491181560161613
sVfrantic
p5116
F0.8223159109219417
sVconfirms
p5117
F0.09523072988251371
sVcriticallyacclaimed
p5118
F0.676930141902737
sVviola
p5119
F1.7517135966847042
sVpeoples
p5120
F0.33641475382589875
sVhigher
p5121
F0.8904502982864876
sVarrives
p5122
F0.3912316473116427
sVpaths
p5123
F0.06973778438761251
sVwasseypur
p5124
F3.058158797530417
sVholidays
p5125
F0.4008152947695229
sVmoving
p5126
F0.2683889290586639
sVhumanoids
p5127
F1.003381684197693
sVcontractors
p5128
F1.6833623355773
sVdancing
p5129
F1.119441184683101
sVstarved
p5130
F0.6874703392655489
sVdares
p5131
F1.003381684197693
sVexgirlfriend
p5132
F0.2708425379834268
sVemerge
p5133
F0.2708425379834268
sVcompetitive
p5134
F0.2193087509049554
sVcomedyc
p5135
F0.2708425379834268
sVturbulence
p5136
F0.8557052343921754
sVpatel
p5137
F0.17404655724622103
sVcontinent
p5138
F1.8594792809625669
sVprofitable
p5139
F0.8557052343921754
sVtables
p5140
F0.2193087509049554
sVillusions
p5141
F0.23529332079282497
sVworkers
p5142
F1.822840193081626
sVhumanoid
p5143
F0.30555861976643256
sVtormented
p5144
F0.17580460327901115
sVcostarring
p5145
F3.0278799975548685
sVgrindhouse
p5146
F0.2819525952261938
sVsightings
p5147
F0.2654527714775566
sVmanatee
p5148
F0.29058320705905477
sVmoods
p5149
F1.0235496560500665
sVillfated
p5150
F0.3753272921947599
sVhelpful
p5151
F0.23061098370904776
sVskeptical
p5152
F0.23529332079282497
sVmodifications
p5153
F0.14671136076260793
sVshaped
p5154
F0.18118600893024847
sVconfront
p5155
F0.8286722264948104
sVincidental
p5156
F1.0973837708882472
sVnairobi
p5157
F0.7824053736153151
sVwizarding
p5158
F0.8904502982864876
sVunderstood
p5159
F0.20236598633916195
sVsaucer
p5160
F0.2654527714775566
sVanna
p5161
F0.2979842759595766
sVzombie
p5162
F0.2400707282857106
sVtinker
p5163
F1.044123004136673
sVrefuses
p5164
F1.2387252763354086
sVintense
p5165
F2.080066984480656
sVunconfirmed
p5166
F0.2964832232007497
sVstandalone
p5167
F0.17058303075702122
sVbrooklyn
p5168
F1.1765439355977894
sVsurfers
p5169
F0.18673214022713464
sVrango
p5170
F0.049056883681842994
sVfantasia
p5171
F0.9836111010662612
sVdwight
p5172
F1.6016615021113585
sVcredible
p5173
F0.2654527714775566
sVyearsleads
p5174
F0.25756855871190165
sVimpressed
p5175
F1.0973837708882472
sVsonny
p5176
F0.0605844081785242
sVreawakens
p5177
F0.27634173858119254
sVquestion
p5178
F0.7087618284723021
sVamidst
p5179
F0.8557052343921754
sVsummertime
p5180
F0.31491181560161613
sVtate
p5181
F1.0235496560500665
sVoutpost
p5182
F0.08612496509575071
sVstalking
p5183
F0.737061254251595
sVstrands
p5184
F0.8729049096034581
sVcalled
p5185
F0.01475438180948936
sVboneknapper
p5186
F0.4008152947695229
sVassociated
p5187
F0.15740458659047601
sVkathryn
p5188
F0.751876185462052
sVassociates
p5189
F1.0235496560500665
sVrally
p5190
F0.5229362206955692
sVrainbow
p5191
F3.694589015174125
sVlemon
p5192
F0.2329403875848967
sVgrouper
p5193
F1.0235496560500665
sVpeace
p5194
F0.1313562936251141
sVnick
p5195
F1.8664654579714242
sVnice
p5196
F0.2329403875848967
sVdictating
p5197
F0.2376700210028535
sVproblems
p5198
F0.23061098370904776
sVhelping
p5199
F0.1606005372823957
sVdevelops
p5200
F0.8993548012693525
sVdaly
p5201
F0.23529332079282497
sVrightful
p5202
F0.45829133136349987
sVnarrative
p5203
F0.8729049096034581
sVjoining
p5204
F0.21027768270270256
sVonce
p5205
F0.01413336942292203
sVissued
p5206
F0.19244803944674235
sVresistance
p5207
F0.20856043996661022
sVcheung
p5208
F0.14671136076260793
sVgang
p5209
F0.06032744794657049
sVwinds
p5210
F0.23061098370904776
sVleung
p5211
F0.14671136076260793
sVbrolin
p5212
F0.2654527714775566
sVshanghai
p5213
F0.28767737498846424
sVlanguages
p5214
F0.18118600893024847
sVagencys
p5215
F0.15899453190957175
sVcelia
p5216
F0.17404655724622103
sVinclude
p5217
F0.18673214022713464
sVdramatically
p5218
F1.1883093749537672
sVwished
p5219
F0.2964832232007497
sVmainstream
p5220
F1.2365595006974839
sVengineered
p5221
F0.20856043996661022
sVcemeteries
p5222
F0.24741932980010348
sVhalfbrained
p5223
F0.2193087509049554
sVpaternity
p5224
F0.8729049096034581
sVmurdoch
p5225
F1.9349815962815637
sVsucharts
p5226
F0.2400707282857106
sVpleas
p5227
F1.0973837708882472
sVwrestling
p5228
F0.7225382357137485
sVsensation
p5229
F0.2193087509049554
sVperched
p5230
F0.2735783211953806
sVtraveling
p5231
F0.34472454293453886
sVreunion
p5232
F1.0235496560500665
sVfolk
p5233
F0.9738723772933279
sVkris
p5234
F1.6016615021113585
sVwaiting
p5235
F0.3946700517363214
sVcolorization
p5236
F1.0545642341780397
sVcapital
p5237
F0.179374148840946
sVoakmont
p5238
F0.8557052343921754
sVpushing
p5239
F0.23529332079282497
sVexplore
p5240
F0.10636285161450937
sVseparation
p5241
F0.641215997508617
sVsexy
p5242
F0.29058320705905477
sVselfabsorbed
p5243
F0.23529332079282497
sVincriminating
p5244
F0.8642622867360972
sVcalvin
p5245
F0.28690165498263004
sVleaving
p5246
F0.04304844675363223
sVhelpers
p5247
F0.23061098370904776
sVselby
p5248
F0.2735783211953806
sVapple
p5249
F0.8557052343921754
sVspy
p5250
F0.022854658997111397
sVmessengers
p5251
F1.2489250957044586
sVterrapin
p5252
F0.9174318327748666
sVimprobable
p5253
F0.8557052343921754
sVboasts
p5254
F0.17058303075702122
sVfed
p5255
F0.09538798226174224
sVfrom
p5256
F1.4103990127326386e-05
sVusa
p5257
F0.23977077240081499
sVgere
p5258
F0.17404655724622103
sVfew
p5259
F0.14819329369960396
sVwesternstyle
p5260
F0.7669888967898393
sVcrimeridden
p5261
F1.6833623355773
sVrecount
p5262
F0.25756855871190165
sVwomen
p5263
F0.009200193298714557
sVsuperheroic
p5264
F0.3117626974456
sVsoechtig
p5265
F0.20441008721127468
sVwildest
p5266
F0.39746238060056366
sVpersuades
p5267
F0.2708425379834268
sVmatinee
p5268
F0.4257288855474377
sVvillain
p5269
F0.11072589361943047
sVsomething
p5270
F0.024003667007623533
sVrape
p5271
F0.8642622867360972
sVsir
p5272
F0.33448587928484014
sVcliches
p5273
F0.7824053736153151
sVsix
p5274
F0.18545730161448912
sVstruggles
p5275
F0.2400707282857106
sVcabbies
p5276
F1.2489250957044586
sVunites
p5277
F1.0651098765198201
sVjustifiably
p5278
F0.20236598633916195
sVinstead
p5279
F1.8968548145099144
sVpanic
p5280
F0.8223159109219417
sVsin
p5281
F0.2376700210028535
sVbertie
p5282
F1.0651098765198201
sVkunchako
p5283
F2.660484908936558
sVcorddry
p5284
F0.35527661363614604
sVdaycare
p5285
F0.2329403875848967
sVlight
p5286
F0.15635344854731237
sVemanuel
p5287
F1.0973837708882472
sVarkham
p5288
F0.31491181560161613
sVlooks
p5289
F0.14671136076260793
sVgunslinger
p5290
F0.2524429443935348
sVnostalgic
p5291
F2.4085022812178156
sVvital
p5292
F0.6541044390585402
sVjawdropping
p5293
F0.9546832440871756
sVorange
p5294
F0.2329403875848967
sVcovered
p5295
F0.9174318327748666
sVholiday
p5296
F0.2358233140226294
sVdefining
p5297
F0.9546832440871756
sVfreeman
p5298
F0.7669888967898393
sVbumbling
p5299
F0.9738723772933279
sVcrash
p5300
F0.46051947804810134
sVmaterial
p5301
F0.20236598633916195
sVimpaired
p5302
F1.003381684197693
sVflee
p5303
F0.2795380794793517
sVsuccessor
p5304
F1.003381684197693
sVlandings
p5305
F0.2654527714775566
sVworlds
p5306
F0.24499405120750592
sVedit
p5307
F0.05819714076450172
sVfeast
p5308
F0.15899453190957175
sVfoshan
p5309
F0.14671136076260793
sVbilly
p5310
F0.04955240775943737
sVedin
p5311
F0.17058303075702122
sVgiamatti
p5312
F0.9546832440871756
sVtrap
p5313
F0.31809274303193547
sVerratic
p5314
F0.2329403875848967
sVstudios
p5315
F0.4095058881951414
sVallnew
p5316
F0.31491181560161613
sVnorthup
p5317
F0.9546832440871756
sVour
p5318
F0.006907546414917777
sV87
p5319
F1.0235496560500665
sVout
p5320
F0.0016599146815249105
sVfrontier
p5321
F1.0235496560500665
sVcerebral
p5322
F0.8904502982864876
sVchaos
p5323
F0.7669888967898393
sVoscarwinning
p5324
F0.30698279615567703
sVdive
p5325
F0.4257288855474377
sVretaker
p5326
F0.14671136076260793
sVunforgiven
p5327
F0.9452309347397778
sVyork
p5328
F1.0419841165987918
sVconflicts
p5329
F0.2708425379834268
sVipos
p5330
F0.8557052343921754
sVproduce
p5331
F0.17404655724622103
sVltd
p5332
F0.22152399081308627
sVpublication
p5333
F0.18118600893024847
sVavengers
p5334
F0.5334472387315502
sVtheir
p5335
F1.483185432445851e-07
sVacademy
p5336
F0.35362815336807146
sV12yearolds
p5337
F1.5545568742642766
sVashburn
p5338
F0.2935183909687422
sVjuly
p5339
F0.15427223531732553
sVchisholm
p5340
F0.22830487387195728
sVinstitution
p5341
F0.9546832440871756
sVtommy
p5342
F0.8010502381205876
sVpatients
p5343
F0.3674538372344651
sVindividual
p5344
F0.14671136076260793
sVencore
p5345
F0.29058320705905477
sVsplatter
p5346
F0.29058320705905477
sVloots
p5347
F1.2365595006974839
sVteenagers
p5348
F0.04304844675363223
sVandfor
p5349
F0.25756855871190165
sVsincerity
p5350
F0.1963555141789025
sVmcquarrie
p5351
F1.1765439355977894
sVrussians
p5352
F0.14671136076260793
sVghoneimy
p5353
F0.7824053736153151
sVfacessome
p5354
F0.2329403875848967
sVberrykin
p5355
F0.3412772975051935
sVfancher
p5356
F0.38891067969957327
sVwhich
p5357
F0.5784266336793422
sVgordonlevitt
p5358
F1.2489250957044586
sVcombat
p5359
F0.2329403875848967
sVwho
p5360
F0.1028530426557468
sVcracking
p5361
F0.8642622867360972
sVdelve
p5362
F1.0651098765198201
sVwhy
p5363
F0.015916286619603974
sVdent
p5364
F1.344316364611399
sVnapoleonthe
p5365
F0.17580460327901115
sVsolando
p5366
F0.9546832440871756
sVrejections
p5367
F1.0973837708882472
sVpulsepounding
p5368
F0.04304844675363223
sVchapters
p5369
F0.2819525952261938
sVplanning
p5370
F0.18673214022713464
sVdorothy
p5371
F0.3452247235770913
sVutter
p5372
F1.5545568742642766
sVchicken
p5373
F0.16551654416050693
sVpleased
p5374
F0.33448587928484014
sVfilmed
p5375
F1.2664068259564265
sVreign
p5376
F0.31491181560161613
sVlassiter
p5377
F0.4387605114994839
sVthousands
p5378
F0.4433918534065896
sVunchained
p5379
F0.6541044390585402
sVaykroyd
p5380
F1.0235496560500665
sVones
p5381
F0.0077192616573180575
sVsues
p5382
F0.641215997508617
sVcubs
p5383
F1.8968548145099144
sVgleeson
p5384
F0.8904502982864876
sVpresley
p5385
F0.8557052343921754
sVburglary
p5386
F0.8642622867360972
sVpenetrate
p5387
F0.31491181560161613
sVspur
p5388
F1.2365595006974839
sVairman
p5389
F1.0545642341780397
sVseabrook
p5390
F0.24741932980010348
sVqa
p5391
F0.17058303075702122
sVmarries
p5392
F0.2193087509049554
sVgenerations
p5393
F1.666695381759703
sVdeceived
p5394
F0.8388444607314728
sVknowing
p5395
F0.8223159109219417
sVpaulson
p5396
F0.9546832440871756
sVcloser
p5397
F1.3659309838578724
sVcloses
p5398
F0.17058303075702122
sVweller
p5399
F0.2735783211953806
sVmonstrous
p5400
F0.1963555141789025
sVgenius
p5401
F0.27482595545340344
sVconverted
p5402
F0.1606005372823957
sVbought
p5403
F0.7669888967898393
sVopening
p5404
F0.7669888967898393
sVjoy
p5405
F0.8223159109219417
sVjob
p5406
F1.638763522236295
sVjoe
p5407
F0.07044220645213385
sVjoh
p5408
F0.9546832440871756
sVjon
p5409
F2.3145233518923454
sVmarrowc
p5410
F1.003381684197693
sVapril
p5411
F0.06631993905469107
sVbronx
p5412
F0.23061098370904776
sVwall
p5413
F0.5623710196996926
sVwalk
p5414
F0.12491852822922633
sVwalt
p5415
F0.213082507891838
sVrespect
p5416
F0.7669888967898393
sVhunters
p5417
F0.11072589361943047
sVintimidating
p5418
F0.8993548012693525
sVcharts
p5419
F0.6507117549622808
sVjaden
p5420
F0.8993548012693525
sVmike
p5421
F0.4813317281137423
sVensuring
p5422
F1.0545642341780397
sVsydow
p5423
F0.9546832440871756
sVpainter
p5424
F0.7225382357137485
sVgermanborn
p5425
F0.6541044390585402
sVabandoned
p5426
F0.6271686155852039
sVshrimping
p5427
F0.8557052343921754
sVtribeca
p5428
F0.5634125150659849
sVchoices
p5429
F0.14671136076260793
sVwill
p5430
F3.2876184590635637e-06
sVstunning
p5431
F0.7713347385973036
sVwild
p5432
F0.9703238836084465
sVmutant
p5433
F0.11760831462020505
sVmalls
p5434
F0.2935183909687422
sVlightweight
p5435
F1.2489250957044586
sVava
p5436
F0.8904502982864876
sVterrorised
p5437
F1.6833623355773
sVlinklaters
p5438
F1.0973837708882472
sVperhaps
p5439
F0.17404655724622103
sVcross
p5440
F0.19824963327820305
sVmember
p5441
F0.09114039813068242
sVlargest
p5442
F0.09333563835785168
sVgets
p5443
F0.44314796888664626
sVgrandeur
p5444
F0.9546832440871756
sVdifficult
p5445
F0.9174318327748666
sVelbows
p5446
F0.2400707282857106
sVslave
p5447
F3.7315349053258666
sVpremiere
p5448
F0.12874230338197434
sVoutcast
p5449
F0.36283465402251774
sVbeast
p5450
F0.14710798750216916
sVstudent
p5451
F0.049056883681842994
sVconceives
p5452
F0.20236598633916195
sVlobby
p5453
F1.1883093749537672
sVtyne
p5454
F0.23529332079282497
sVundertakes
p5455
F0.34472454293453886
sVvalerie
p5456
F0.23529332079282497
sVfighting
p5457
F0.12274524636333667
sVenglish
p5458
F0.7284511595014307
sVcarrie
p5459
F0.1274548803481546
sVcamel
p5460
F0.25756855871190165
sV1952
p5461
F0.8642622867360972
sVtcm
p5462
F0.03739815786342632
sVhappiness
p5463
F0.6739244576664531
sVdolarhyde
p5464
F0.2524429443935348
sVnicks
p5465
F1.0973837708882472
sVsmith
p5466
F0.11054331899192041
sVcapabilities
p5467
F0.8904502982864876
sVarresting
p5468
F0.8642622867360972
sVother
p5469
F0.27591358131785976
sVunprecedented
p5470
F0.20236598633916195
sVcaptivating
p5471
F0.28767737498846424
sVramadhir
p5472
F1.2365595006974839
sVsammo
p5473
F0.7669888967898393
sVkristofferson
p5474
F1.6016615021113585
sVknow
p5475
F0.0629026701431592
sVcochin
p5476
F0.7669888967898393
sVgeorges
p5477
F0.19244803944674235
sVmiami
p5478
F1.130635596529932
sVloses
p5479
F2.2021895524901276
sVdancer
p5480
F0.751876185462052
sVstarred
p5481
F0.5634125150659849
sVbecause
p5482
F0.49792911335302076
sVsequence
p5483
F0.40486393411062915
sVsearching
p5484
F0.2400707282857106
sVallstars
p5485
F0.9452309347397778
sVempire
p5486
F0.39579645619471604
sVmisadventures
p5487
F0.22152399081308627
sVjeremy
p5488
F0.15376389939836013
sVlead
p5489
F1.2733277198628974
sVleap
p5490
F0.4214715966919633
sVcholodenko
p5491
F0.751876185462052
sVleader
p5492
F0.13290884501345326
sVmurderer
p5493
F0.2329403875848967
sVmurdered
p5494
F0.3171556525339121
sVshahids
p5495
F1.2365595006974839
sVinsults
p5496
F0.7669888967898393
sVthrone
p5497
F0.3748396593628778
sVpike
p5498
F1.0973837708882472
sVgetting
p5499
F0.17580460327901115
sVuniverse
p5500
F0.03089718461601294
sVown
p5501
F1.0920187473780862
sVpolished
p5502
F0.737061254251595
sVportrait
p5503
F0.07369934170457511
sVpromise
p5504
F2.0135496083667963
sVval
p5505
F1.0235496560500665
sVgeoffrey
p5506
F1.0651098765198201
sVtransfer
p5507
F0.31809274303193547
sVindictments
p5508
F0.179374148840946
sVuniting
p5509
F0.3928390704036094
sVdynamite
p5510
F0.2193087509049554
sVmade
p5511
F0.22386214073471436
sVwhether
p5512
F0.014984867904533886
sVmeeting
p5513
F0.751876185462052
sVrecord
p5514
F0.05819714076450172
sVbelow
p5515
F0.9546832440871756
sVlucasfilm
p5516
F0.028798195128470597
sVrickety
p5517
F0.7669888967898393
sVfulllength
p5518
F0.8904502982864876
sVstirring
p5519
F0.7225382357137485
sVjenny
p5520
F0.8557052343921754
sVbuffs
p5521
F0.2601702613251532
sVhumanizes
p5522
F0.14671136076260793
sVuptight
p5523
F0.2935183909687422
sVmutual
p5524
F0.8993548012693525
sVincredible
p5525
F0.5488971574613934
sVbook
p5526
F0.05819714076450172
sVbranch
p5527
F0.751876185462052
sVcutthroat
p5528
F0.2193087509049554
sVrian
p5529
F0.14671136076260793
sVirons
p5530
F0.9738723772933279
sVsandler
p5531
F0.06565673966414415
sVranks
p5532
F0.2193087509049554
sVexpands
p5533
F0.30555861976643256
sVhardboiled
p5534
F0.2376700210028535
s.