(lp0
S'Animation'
p1
aS'Anime & Manga'
p2
aS'Art House & International'
p3
aS'Classics'
p4
aS'Comedy'
p5
aS'Cult Movies'
p6
aS'Documentary'
p7
aS'Faith & Spirituality'
p8
aS'Gay & Lesbian'
p9
aS'Horror'
p10
aS'Kids & Family'
p11
aS'Musical & Performing Arts'
p12
aS'Mystery & Suspense'
p13
aS'Romance'
p14
aS'Science Fiction & Fantasy'
p15
aS'Special Interest'
p16
aS'Sports & Fitness'
p17
aS'Television'
p18
aS'Western'
p19
a.