(lp0
S'Action & Adventure'
p1
aS'Animation'
p2
aS'Art House & International'
p3
aS'Comedy'
p4
aS'Cult Movies'
p5
aS'Documentary'
p6
aS'Drama'
p7
aS'Horror'
p8
aS'Kids & Family'
p9
aS'Musical & Performing Arts'
p10
aS'Mystery & Suspense'
p11
aS'Romance'
p12
aS'Science Fiction & Fantasy'
p13
aS'Special Interest'
p14
aS'Sports & Fitness'
p15
aS'Television'
p16
aS'Western'
p17
a.