(lp0
S'Comedy'
p1
aS'Classics'
p2
aS'Television'
p3
aS'Special Interest'
p4
aS'Horror'
p5
aS'Mystery & Suspense'
p6
aS'Cult Movies'
p7
aS'Romance'
p8
aS'Musical & Performing Arts'
p9
aS'Faith & Spirituality'
p10
aS'Sports & Fitness'
p11
aS'Western'
p12
aS'Gay & Lesbian'
p13
aS'Art House & International'
p14
aS'Animation'
p15
aS'Kids & Family'
p16
aS'Anime & Manga'
p17
aS'Science Fiction & Fantasy'
p18
aS'Documentary'
p19
a.