(lp0
S'Action & Adventure'
p1
aS'Animation'
p2
aS'Anime & Manga'
p3
aS'Art House & International'
p4
aS'Classics'
p5
aS'Comedy'
p6
aS'Cult Movies'
p7
aS'Documentary'
p8
aS'Drama'
p9
aS'Faith & Spirituality'
p10
aS'Gay & Lesbian'
p11
aS'Horror'
p12
aS'Kids & Family'
p13
aS'Musical & Performing Arts'
p14
aS'Mystery & Suspense'
p15
aS'Romance'
p16
aS'Science Fiction & Fantasy'
p17
aS'Special Interest'
p18
aS'Sports & Fitness'
p19
aS'Television'
p20
aS'Western'
p21
a.